(dp1
S'mantissa_package'
p2
ccopy_reg
_reconstructor
p3
(ctwisted.plugin
CachedDropin
p4
c__builtin__
object
p5
Ntp6
Rp7
(dp8
S'plugins'
p9
(lp10
g3
(ctwisted.plugin
CachedPlugin
p11
g5
Ntp12
Rp13
(dp14
S'provided'
p15
(lp16
ctwisted.plugin
IPlugin
p17
acnevow.inevow
IJavascriptPackage
p18
asS'description'
p19
S'\n    A L{inevow.IJavascriptPackage} implementation that scans an on-disk\n    hierarchy locating modules and packages.\n\n    @type baseDir: C{str}\n    @ivar baseDir: A path to the root of a JavaScript packages/modules\n    filesystem hierarchy.\n    '
p20
sS'name'
p21
S'mantissaPkg'
p22
sS'dropin'
p23
g7
sbasg19
NsS'moduleName'
p24
S'nevow.plugins.mantissa_package'
p25
sbs.