Certificate:
    Data:
        Version: 3 (0x2)
        Serial Number: 268435611 (0x1000009b)
    Signature Algorithm: sha1WithRSAEncryption
        Issuer: C=DE, ST=Hessen, O=privacyidea, CN=CA001
        Validity
            Not Before: May 21 13:34:37 2015 GMT
            Not After : May 20 13:34:37 2016 GMT
        Subject: CN=Steve Test/emailAddress=steve@openssl.org
        Subject Public Key Info:
            Public Key Algorithm: rsaEncryption
                Public-Key: (2048 bit)
                Modulus:
                    00:d2:81:89:20:51:48:0f:73:f4:11:32:24:d5:1f:
                    1c:fd:5c:f5:b6:e6:c5:f0:52:81:dc:d2:af:66:4a:
                    7c:93:31:61:5c:af:d1:6d:06:70:03:60:7c:72:0c:
                    88:dd:49:cd:9e:02:6c:d2:5a:d7:53:0f:f3:da:be:
                    69:64:b5:0f:0c:00:e3:b3:50:47:a3:b3:9b:ba:13:
                    50:d6:58:5a:4b:ab:39:e0:11:ca:0a:27:67:03:78:
                    22:66:6d:92:1e:1b:5c:49:ae:e6:6b:d1:8e:3b:9d:
                    06:d3:c6:ac:4d:53:43:10:ab:e8:96:c1:87:82:97:
                    99:8f:20:d3:99:12:37:31:84:e1:8a:ff:29:03:5f:
                    22:90:3e:7f:9b:e0:20:c1:ad:dc:ae:4c:39:1a:31:
                    96:17:02:8c:b2:d9:b4:0d:20:12:9b:7d:86:54:fd:
                    33:fd:c1:2a:62:46:f8:60:96:cf:6e:01:6f:22:df:
                    13:47:e7:97:ec:05:72:23:a3:62:f8:fa:ef:ac:9c:
                    72:f0:37:cb:2f:37:cf:90:a8:27:51:86:c6:d7:78:
                    08:8f:7e:25:a2:15:70:a2:fb:1c:b6:15:5e:a0:97:
                    8b:81:4c:09:28:8a:27:3b:94:bc:71:db:5b:71:37:
                    9a:2b:16:e0:6f:b5:c9:f5:4b:4f:20:ba:65:cf:af:
                    ad:ad
                Exponent: 65537 (0x10001)
        X509v3 extensions:
            X509v3 Key Usage: 
                Digital Signature, Key Encipherment
            X509v3 Basic Constraints: 
                CA:FALSE
            Netscape Cert Type: 
                SSL Server
            Netscape Comment: 
                OpenSSL Generated Server Certificate
            X509v3 Subject Key Identifier: 
                E5:25:6D:3E:AF:0D:DD:3F:4C:F2:45:19:39:D5:14:DB:7E:9C:C0:AD
            X509v3 Authority Key Identifier: 
                keyid:F4:A7:C0:CC:91:46:AF:64:F3:91:F2:27:F8:C8:B2:6F:8A:87:32:73
                DirName:/C=DE/ST=Hessen/O=privacyidea/CN=CA001
                serial:FB:C8:EB:AC:83:CD:12:07

            X509v3 Extended Key Usage: 
                TLS Web Server Authentication
    Signature Algorithm: sha1WithRSAEncryption
         79:a3:31:b7:6f:40:d3:ac:bb:b1:17:a5:94:46:da:fd:9a:80:
         13:71:56:07:a1:3d:90:f3:9b:0e:22:8e:3e:08:89:6f:25:3e:
         00:7e:12:ad:9f:d8:4d:fc:9d:b3:7f:8b:4f:85:60:38:28:df:
         7f:a2:4b:d1:23:97:ac:06:72:c3:4d:f4:72:17:fc:16:a6:d8:
         52:f3:42:c8:2b:6e:49:83:b4:e6:62:3d:d8:c1:c1:33:a4:05:
         d2:eb:df:06:9d:58:4c:97:ad:5d:de:ec:dc:e9:ba:c8:a1:e2:
         b7:9b:76:f9:9a:fc:59:3d:9c:aa:33:5e:89:b0:51:1b:4d:ab:
         b0:9b:f2:61:a1:60:ef:90:91:ab:3b:5b:62:57:bc:5b:6a:b1:
         79:c5:27:2a:ce:1a:c0:de:04:31:54:7a:a1:47:20:12:23:0f:
         6f:fe:7b:7c:4d:8a:de:4f:6b:42:a2:1f:25:bf:4f:a3:45:32:
         84:fb:50:c8:4b:55:19:e5:b5:1f:b4:07:e2:cb:d2:d3:9a:d3:
         63:e7:e5:8d:88:4c:76:e3:82:52:57:bc:ec:81:0d:71:16:ab:
         5f:d3:f3:e8:7a:5d:32:df:31:42:b8:a7:40:f2:29:2c:99:97:
         a7:e2:33:72:89:f4:2c:29:84:27:43:ff:05:ff:99:e5:97:2a:
         c2:51:16:e0
-----BEGIN CERTIFICATE-----
MIIECTCCAvGgAwIBAgIEEAAAmzANBgkqhkiG9w0BAQUFADBEMQswCQYDVQQGEwJE
RTEPMA0GA1UECAwGSGVzc2VuMRQwEgYDVQQKDAtwcml2YWN5aWRlYTEOMAwGA1UE
AwwFQ0EwMDEwHhcNMTUwNTIxMTMzNDM3WhcNMTYwNTIwMTMzNDM3WjA3MRMwEQYD
VQQDEwpTdGV2ZSBUZXN0MSAwHgYJKoZIhvcNAQkBFhFzdGV2ZUBvcGVuc3NsLm9y
ZzCCASIwDQYJKoZIhvcNAQEBBQADggEPADCCAQoCggEBANKBiSBRSA9z9BEyJNUf
HP1c9bbmxfBSgdzSr2ZKfJMxYVyv0W0GcANgfHIMiN1JzZ4CbNJa11MP89q+aWS1
DwwA47NQR6Ozm7oTUNZYWkurOeARygonZwN4ImZtkh4bXEmu5mvRjjudBtPGrE1T
QxCr6JbBh4KXmY8g05kSNzGE4Yr/KQNfIpA+f5vgIMGt3K5MORoxlhcCjLLZtA0g
Ept9hlT9M/3BKmJG+GCWz24BbyLfE0fnl+wFciOjYvj676yccvA3yy83z5CoJ1GG
xtd4CI9+JaIVcKL7HLYVXqCXi4FMCSiKJzuUvHHbW3E3misW4G+1yfVLTyC6Zc+v
ra0CAwEAAaOCAQ4wggEKMAsGA1UdDwQEAwIFoDAJBgNVHRMEAjAAMBEGCWCGSAGG
+EIBAQQEAwIGQDAzBglghkgBhvhCAQ0EJhYkT3BlblNTTCBHZW5lcmF0ZWQgU2Vy
dmVyIENlcnRpZmljYXRlMB0GA1UdDgQWBBTlJW0+rw3dP0zyRRk51RTbfpzArTB0
BgNVHSMEbTBrgBT0p8DMkUavZPOR8if4yLJviocyc6FIpEYwRDELMAkGA1UEBhMC
REUxDzANBgNVBAgMBkhlc3NlbjEUMBIGA1UECgwLcHJpdmFjeWlkZWExDjAMBgNV
BAMMBUNBMDAxggkA+8jrrIPNEgcwEwYDVR0lBAwwCgYIKwYBBQUHAwEwDQYJKoZI
hvcNAQEFBQADggEBAHmjMbdvQNOsu7EXpZRG2v2agBNxVgehPZDzmw4ijj4IiW8l
PgB+Eq2f2E38nbN/i0+FYDgo33+iS9Ejl6wGcsNN9HIX/Bam2FLzQsgrbkmDtOZi
PdjBwTOkBdLr3wadWEyXrV3e7Nzpusih4rebdvma/Fk9nKozXomwURtNq7Cb8mGh
YO+Qkas7W2JXvFtqsXnFJyrOGsDeBDFUeqFHIBIjD2/+e3xNit5Pa0KiHyW/T6NF
MoT7UMhLVRnltR+0B+LL0tOa02Pn5Y2ITHbjglJXvOyBDXEWq1/T8+h6XTLfMUK4
p0DyKSyZl6fiM3KJ9CwphCdD/wX/meWXKsJRFuA=
-----END CERTIFICATE-----
