Certificate:
    Data:
        Version: 3 (0x2)
        Serial Number: 268435593 (0x10000089)
    Signature Algorithm: sha1WithRSAEncryption
        Issuer: C=DE, ST=Hessen, O=privacyidea, CN=CA001
        Validity
            Not Before: May 22 07:55:17 2015 GMT
            Not After : May 21 07:55:17 2016 GMT
        Subject: CN=selfservice,CN=user,O=realm1/emailAddress=meine
        Subject Public Key Info:
            Public Key Algorithm: rsaEncryption
                Public-Key: (2048 bit)
                Modulus:
                    00:cf:3c:d4:33:0e:12:c4:e6:da:cd:b6:56:a1:1c:
                    26:bb:26:1c:8a:4a:73:a8:58:8a:b6:1e:b3:8b:99:
                    d2:1d:07:c2:92:89:79:c0:69:d8:c8:df:28:61:98:
                    1e:b3:fe:ae:2b:bd:78:a9:f7:6e:47:dc:a3:a0:16:
                    8c:85:02:c1:4e:92:fd:72:6e:f0:c8:03:29:9b:b8:
                    00:6e:c0:83:95:c8:34:20:36:9c:b3:e5:e4:e6:76:
                    73:a3:1a:ad:40:96:e0:53:54:00:ec:76:79:9a:c6:
                    0d:7e:b6:bd:29:ec:83:f3:cb:89:a4:cb:6c:00:ba:
                    0c:c5:78:0f:ff:69:b8:94:f4:04:70:43:3f:d8:9e:
                    d7:a7:fb:5d:ce:75:8e:da:e7:c4:07:b1:9d:de:6f:
                    88:4b:b6:4d:9a:cf:f9:bc:fa:9f:cd:32:6d:f6:3a:
                    0b:0d:23:42:78:ec:97:42:bf:0e:4d:60:56:e1:d3:
                    02:f2:19:cb:84:57:90:e5:70:a1:a2:83:35:86:e2:
                    da:86:9f:f9:8a:c4:79:b3:52:28:da:cb:bb:34:ca:
                    d3:da:91:4a:cf:8d:76:a2:b2:6b:9b:f9:96:fd:09:
                    2a:da:11:23:4d:f0:cb:d6:b2:b1:0e:12:6c:9a:19:
                    65:98:87:ca:e4:ee:24:ce:44:ac:90:8f:9d:1b:c5:
                    2a:9d
                Exponent: 65537 (0x10001)
        X509v3 extensions:
            X509v3 Key Usage: 
                Digital Signature, Key Encipherment
            X509v3 Basic Constraints: 
                CA:FALSE
            Netscape Cert Type: 
                SSL Server
            Netscape Comment: 
                OpenSSL Generated Server Certificate
            X509v3 Subject Key Identifier: 
                4D:07:90:AD:FF:1D:0D:E7:1A:DD:D6:2E:FA:BA:34:CB:AA:1F:24:C6
            X509v3 Authority Key Identifier: 
                keyid:F4:A7:C0:CC:91:46:AF:64:F3:91:F2:27:F8:C8:B2:6F:8A:87:32:73
                DirName:/C=DE/ST=Hessen/O=privacyidea/CN=CA001
                serial:FB:C8:EB:AC:83:CD:12:07

            X509v3 Extended Key Usage: 
                TLS Web Server Authentication
    Signature Algorithm: sha1WithRSAEncryption
         7a:39:f2:0c:5c:b8:9a:ed:82:96:4b:45:99:94:fd:c1:f8:a7:
         01:41:de:88:b0:7d:d8:3d:79:08:d9:3f:dc:eb:b8:a7:16:43:
         0e:7f:eb:cc:63:ce:f2:08:4a:40:d8:cb:c2:65:13:a2:13:e4:
         ab:ec:af:fb:41:73:73:a5:cb:9e:b7:0e:88:8a:b4:77:68:4b:
         ee:79:69:21:99:de:2f:03:4a:64:a1:de:0a:56:48:a0:59:3d:
         c1:e6:e6:2b:7d:59:9d:63:b9:7a:fe:f0:bf:9b:ba:34:9f:86:
         fa:0f:6a:dc:c7:56:cd:52:4b:c5:25:60:e7:bb:a4:8e:02:cb:
         75:70:83:73:8c:0d:e9:7f:07:0a:3d:ec:b7:27:bf:5b:1c:75:
         7d:c5:53:43:e5:d3:5b:b9:94:25:2c:08:28:ba:79:1e:29:82:
         b6:90:a8:bd:43:a8:9e:04:d4:2a:4d:72:8e:9b:8c:2f:8a:73:
         70:cb:6e:1e:2d:f3:60:3c:f3:ca:07:63:b6:d5:c2:ea:5d:30:
         b5:21:1f:62:6d:49:e1:d1:8a:67:e7:8d:ee:d2:30:81:68:7d:
         60:64:73:1f:77:76:88:c0:25:7f:f9:f9:18:96:36:80:29:bb:
         3d:eb:dc:a9:45:ed:d5:08:c5:cb:43:54:44:7d:f4:67:92:a5:
         89:23:7e:72
-----BEGIN CERTIFICATE-----
MIIEDzCCAvegAwIBAgIEEAAAiTANBgkqhkiG9w0BAQUFADBEMQswCQYDVQQGEwJE
RTEPMA0GA1UECAwGSGVzc2VuMRQwEgYDVQQKDAtwcml2YWN5aWRlYTEOMAwGA1UE
AwwFQ0EwMDEwHhcNMTUwNTIyMDc1NTE3WhcNMTYwNTIxMDc1NTE3WjA9MSUwIwYD
VQQDExxzZWxmc2VydmljZSxDTj11c2VyLE89cmVhbG0xMRQwEgYJKoZIhvcNAQkB
FgVtZWluZTCCASIwDQYJKoZIhvcNAQEBBQADggEPADCCAQoCggEBAM881DMOEsTm
2s22VqEcJrsmHIpKc6hYirYes4uZ0h0HwpKJecBp2MjfKGGYHrP+riu9eKn3bkfc
o6AWjIUCwU6S/XJu8MgDKZu4AG7Ag5XINCA2nLPl5OZ2c6MarUCW4FNUAOx2eZrG
DX62vSnsg/PLiaTLbAC6DMV4D/9puJT0BHBDP9ie16f7Xc51jtrnxAexnd5viEu2
TZrP+bz6n80ybfY6Cw0jQnjsl0K/Dk1gVuHTAvIZy4RXkOVwoaKDNYbi2oaf+YrE
ebNSKNrLuzTK09qRSs+NdqKya5v5lv0JKtoRI03wy9aysQ4SbJoZZZiHyuTuJM5E
rJCPnRvFKp0CAwEAAaOCAQ4wggEKMAsGA1UdDwQEAwIFoDAJBgNVHRMEAjAAMBEG
CWCGSAGG+EIBAQQEAwIGQDAzBglghkgBhvhCAQ0EJhYkT3BlblNTTCBHZW5lcmF0
ZWQgU2VydmVyIENlcnRpZmljYXRlMB0GA1UdDgQWBBRNB5Ct/x0N5xrd1i76ujTL
qh8kxjB0BgNVHSMEbTBrgBT0p8DMkUavZPOR8if4yLJviocyc6FIpEYwRDELMAkG
A1UEBhMCREUxDzANBgNVBAgMBkhlc3NlbjEUMBIGA1UECgwLcHJpdmFjeWlkZWEx
DjAMBgNVBAMMBUNBMDAxggkA+8jrrIPNEgcwEwYDVR0lBAwwCgYIKwYBBQUHAwEw
DQYJKoZIhvcNAQEFBQADggEBAHo58gxcuJrtgpZLRZmU/cH4pwFB3oiwfdg9eQjZ
P9zruKcWQw5/68xjzvIISkDYy8JlE6IT5Kvsr/tBc3Oly563DoiKtHdoS+55aSGZ
3i8DSmSh3gpWSKBZPcHm5it9WZ1juXr+8L+bujSfhvoPatzHVs1SS8UlYOe7pI4C
y3Vwg3OMDel/Bwo97Lcnv1scdX3FU0Pl01u5lCUsCCi6eR4pgraQqL1DqJ4E1CpN
co6bjC+Kc3DLbh4t82A888oHY7bVwupdMLUhH2JtSeHRimfnje7SMIFofWBkcx93
dojAJX/5+RiWNoApuz3r3KlF7dUIxctDVER99GeSpYkjfnI=
-----END CERTIFICATE-----
