Certificate:
    Data:
        Version: 3 (0x2)
        Serial Number: 268435636 (0x100000b4)
    Signature Algorithm: sha1WithRSAEncryption
        Issuer: C=DE, ST=Hessen, O=privacyidea, CN=CA001
        Validity
            Not Before: May 21 14:22:11 2015 GMT
            Not After : May 20 14:22:11 2016 GMT
        Subject: CN=corny/emailAddress=meine
        Subject Public Key Info:
            Public Key Algorithm: rsaEncryption
                Public-Key: (2048 bit)
                Modulus:
                    00:d3:a8:e6:cb:93:a7:9a:6e:36:42:87:87:d6:f2:
                    1e:5a:f9:51:eb:6e:63:93:a3:e9:d5:ff:83:f8:b5:
                    57:79:6b:44:13:40:6e:00:97:cf:34:3d:47:2e:e5:
                    ae:4b:5b:b9:27:10:d3:e0:ba:2f:cc:88:e1:88:1d:
                    60:be:eb:e0:8e:f0:7e:33:c6:71:5a:73:38:20:86:
                    46:8b:61:25:75:e6:17:a7:a9:12:22:26:64:89:89:
                    d4:c5:55:9a:d1:f5:11:87:64:72:5d:85:1e:32:58:
                    49:86:e1:0b:fe:4b:3d:01:3d:97:44:9e:79:22:47:
                    ce:2b:f4:ab:59:d3:1d:e9:73:95:5f:75:cd:68:b3:
                    34:18:8c:1f:6e:f8:80:fc:19:7b:1a:a4:7e:02:e8:
                    76:c7:58:e0:47:de:f4:ef:e2:af:4a:84:49:66:b0:
                    cc:e8:0b:91:3c:66:2a:10:31:79:ef:04:d2:2e:e6:
                    d5:c8:9d:bd:85:9d:19:62:a2:f3:51:75:06:2e:20:
                    46:79:ef:da:ba:bc:db:e4:e1:01:0f:0d:81:7b:a7:
                    88:c8:d7:36:60:76:40:2a:eb:57:ca:e0:4c:af:f5:
                    6f:2a:14:d0:22:2e:34:64:27:ff:cf:da:f1:a8:ce:
                    5d:67:71:29:e9:c3:dc:cc:08:74:bf:97:e9:5a:10:
                    3d:2d
                Exponent: 65537 (0x10001)
        X509v3 extensions:
            X509v3 Key Usage: 
                Digital Signature, Key Encipherment
            X509v3 Basic Constraints: 
                CA:FALSE
            Netscape Cert Type: 
                SSL Server
            Netscape Comment: 
                OpenSSL Generated Server Certificate
            X509v3 Subject Key Identifier: 
                B5:87:D3:39:61:13:68:91:63:DA:1E:F8:8B:A1:72:CB:17:E9:26:FA
            X509v3 Authority Key Identifier: 
                keyid:F4:A7:C0:CC:91:46:AF:64:F3:91:F2:27:F8:C8:B2:6F:8A:87:32:73
                DirName:/C=DE/ST=Hessen/O=privacyidea/CN=CA001
                serial:FB:C8:EB:AC:83:CD:12:07

            X509v3 Extended Key Usage: 
                TLS Web Server Authentication
    Signature Algorithm: sha1WithRSAEncryption
         91:0a:f1:63:4f:20:92:0a:f0:08:82:cf:1d:42:b7:e7:22:c4:
         b1:43:dd:1a:4d:c6:99:ec:1d:1d:4b:52:58:f7:71:1a:ec:fc:
         84:93:d8:e4:63:d2:c9:26:8e:e2:2c:88:21:cf:86:bb:15:0e:
         b3:c5:64:d8:79:5b:78:dc:20:6a:d9:9e:db:8d:59:21:b5:1c:
         b0:0c:71:f3:0e:a5:58:10:ad:af:51:c6:3d:e5:f9:39:fe:56:
         e0:8c:d2:53:48:80:cf:86:25:21:55:87:08:d1:9c:ed:c9:b6:
         3c:42:cd:c8:a3:05:eb:0a:24:c3:9d:93:65:cb:07:11:f2:03:
         fa:ac:c2:22:e9:04:6d:b2:1e:dd:c6:b9:4b:3f:9c:73:1d:a5:
         b6:a6:59:18:3d:78:35:a4:25:40:57:6c:a7:da:47:0f:a8:29:
         63:2d:dd:79:0a:be:22:3b:99:81:97:d0:fa:08:97:0b:10:77:
         67:47:bb:57:8c:5c:bb:d7:3f:40:f8:78:59:0e:ec:be:01:bd:
         1d:e2:45:cb:fc:6f:d1:b2:6a:c9:35:20:bb:52:7a:ac:25:44:
         51:29:6d:e9:f1:da:ba:2b:4d:92:ba:e3:a9:9c:a7:f4:7b:d2:
         1e:c5:08:8a:3a:11:41:f4:90:41:46:49:b9:fa:04:ea:69:12:
         bc:d5:f5:bb
-----BEGIN CERTIFICATE-----
MIID+DCCAuCgAwIBAgIEEAAAtDANBgkqhkiG9w0BAQUFADBEMQswCQYDVQQGEwJE
RTEPMA0GA1UECAwGSGVzc2VuMRQwEgYDVQQKDAtwcml2YWN5aWRlYTEOMAwGA1UE
AwwFQ0EwMDEwHhcNMTUwNTIxMTQyMjExWhcNMTYwNTIwMTQyMjExWjAmMQ4wDAYD
VQQDEwVjb3JueTEUMBIGCSqGSIb3DQEJARYFbWVpbmUwggEiMA0GCSqGSIb3DQEB
AQUAA4IBDwAwggEKAoIBAQDTqObLk6eabjZCh4fW8h5a+VHrbmOTo+nV/4P4tVd5
a0QTQG4Al880PUcu5a5LW7knENPgui/MiOGIHWC+6+CO8H4zxnFaczgghkaLYSV1
5henqRIiJmSJidTFVZrR9RGHZHJdhR4yWEmG4Qv+Sz0BPZdEnnkiR84r9KtZ0x3p
c5Vfdc1oszQYjB9u+ID8GXsapH4C6HbHWOBH3vTv4q9KhElmsMzoC5E8ZioQMXnv
BNIu5tXInb2FnRliovNRdQYuIEZ579q6vNvk4QEPDYF7p4jI1zZgdkAq61fK4Eyv
9W8qFNAiLjRkJ//P2vGozl1ncSnpw9zMCHS/l+laED0tAgMBAAGjggEOMIIBCjAL
BgNVHQ8EBAMCBaAwCQYDVR0TBAIwADARBglghkgBhvhCAQEEBAMCBkAwMwYJYIZI
AYb4QgENBCYWJE9wZW5TU0wgR2VuZXJhdGVkIFNlcnZlciBDZXJ0aWZpY2F0ZTAd
BgNVHQ4EFgQUtYfTOWETaJFj2h74i6FyyxfpJvowdAYDVR0jBG0wa4AU9KfAzJFG
r2TzkfIn+Miyb4qHMnOhSKRGMEQxCzAJBgNVBAYTAkRFMQ8wDQYDVQQIDAZIZXNz
ZW4xFDASBgNVBAoMC3ByaXZhY3lpZGVhMQ4wDAYDVQQDDAVDQTAwMYIJAPvI66yD
zRIHMBMGA1UdJQQMMAoGCCsGAQUFBwMBMA0GCSqGSIb3DQEBBQUAA4IBAQCRCvFj
TyCSCvAIgs8dQrfnIsSxQ90aTcaZ7B0dS1JY93Ea7PyEk9jkY9LJJo7iLIghz4a7
FQ6zxWTYeVt43CBq2Z7bjVkhtRywDHHzDqVYEK2vUcY95fk5/lbgjNJTSIDPhiUh
VYcI0ZztybY8Qs3IowXrCiTDnZNlywcR8gP6rMIi6QRtsh7dxrlLP5xzHaW2plkY
PXg1pCVAV2yn2kcPqCljLd15Cr4iO5mBl9D6CJcLEHdnR7tXjFy71z9A+HhZDuy+
Ab0d4kXL/G/RsmrJNSC7UnqsJURRKW3p8dq6K02SuuOpnKf0e9IexQiKOhFB9JBB
Rkm5+gTqaRK81fW7
-----END CERTIFICATE-----
