Certificate:
    Data:
        Version: 3 (0x2)
        Serial Number: 268435639 (0x100000b7)
    Signature Algorithm: sha1WithRSAEncryption
        Issuer: C=DE, ST=Hessen, O=privacyidea, CN=CA001
        Validity
            Not Before: May 21 14:28:29 2015 GMT
            Not After : May 20 14:28:29 2016 GMT
        Subject: CN=corny/emailAddress=meine
        Subject Public Key Info:
            Public Key Algorithm: rsaEncryption
                Public-Key: (2048 bit)
                Modulus:
                    00:c0:ed:95:34:2f:46:6b:9c:6e:19:a3:29:07:de:
                    38:4e:67:1f:7e:c9:12:22:29:e4:ac:6f:db:20:52:
                    df:e5:46:03:a5:48:71:5d:c8:51:74:cc:80:9b:3b:
                    b4:78:4a:5b:66:c6:b7:24:68:40:67:3a:88:e6:45:
                    2a:d9:0d:15:df:f9:77:7b:c1:21:4b:0b:52:19:6b:
                    62:e1:27:a5:b8:cc:8b:d2:fd:cf:68:33:e7:8c:85:
                    5d:a1:c2:b7:39:75:f4:79:0f:5a:bb:0d:d0:b5:5c:
                    a4:40:a2:08:97:fe:46:e7:2a:9e:cc:50:0e:b1:45:
                    a4:7b:07:88:b0:97:27:a4:bb:71:9e:05:5a:86:8a:
                    57:37:1d:19:e8:c0:f3:02:23:9e:29:52:8f:a0:e6:
                    11:65:bb:89:7e:7d:87:1c:55:8f:5a:e2:82:1f:f4:
                    42:c7:39:d8:67:21:19:b4:57:32:6c:b0:86:48:b0:
                    c0:f0:b5:29:3b:0a:04:f8:29:67:83:54:e0:cd:fd:
                    9b:a4:2d:70:bd:0c:e3:ba:54:27:1e:e4:32:27:7f:
                    79:34:ef:bc:15:21:bf:2f:48:70:b1:7d:53:5a:71:
                    1d:0a:e6:4a:3c:3e:19:5b:6c:21:f2:f4:8e:b7:27:
                    ed:0b:48:80:4f:90:76:40:03:49:9a:18:4e:0c:cc:
                    42:93
                Exponent: 65537 (0x10001)
        X509v3 extensions:
            X509v3 Key Usage: 
                Digital Signature, Key Encipherment
            X509v3 Basic Constraints: 
                CA:FALSE
            Netscape Cert Type: 
                SSL Server
            Netscape Comment: 
                OpenSSL Generated Server Certificate
            X509v3 Subject Key Identifier: 
                60:DA:D5:75:A4:DA:A3:1F:00:07:23:60:4D:D7:4F:31:0F:96:11:66
            X509v3 Authority Key Identifier: 
                keyid:F4:A7:C0:CC:91:46:AF:64:F3:91:F2:27:F8:C8:B2:6F:8A:87:32:73
                DirName:/C=DE/ST=Hessen/O=privacyidea/CN=CA001
                serial:FB:C8:EB:AC:83:CD:12:07

            X509v3 Extended Key Usage: 
                TLS Web Server Authentication
    Signature Algorithm: sha1WithRSAEncryption
         0d:c6:f6:a9:c9:4a:65:9e:ea:99:83:07:77:7d:e7:95:18:ee:
         57:0d:d5:15:07:36:d6:3b:36:ed:5a:b3:71:ca:20:90:eb:2c:
         fb:1d:01:af:e4:e7:68:91:72:19:2a:96:0d:25:83:4e:31:13:
         9a:ac:80:0f:92:e8:1a:90:9f:73:1a:2c:66:91:ed:89:5e:a6:
         cc:8d:e8:be:41:32:35:84:69:de:cd:93:46:5e:90:fa:6b:95:
         b3:33:22:0f:7a:36:f2:71:3b:bf:0c:d0:ab:0f:05:7b:5d:2b:
         d8:30:0f:24:6a:a4:4d:13:e9:9c:58:71:15:de:36:e1:bd:2d:
         2a:5c:a2:53:6d:97:e2:5e:97:7a:f2:97:21:f4:40:07:c0:d0:
         ed:12:d1:da:25:dc:c7:45:65:23:f9:54:43:83:69:00:fb:0b:
         ea:60:1e:ba:6b:9b:67:d2:cf:6e:16:a7:1c:c1:4c:81:bf:0b:
         95:cb:00:e1:81:e1:58:fe:c7:d7:ef:d7:94:a1:70:19:de:ef:
         8f:ab:03:c8:6f:3d:fc:49:0a:41:83:c5:1b:c8:45:82:7d:9c:
         0a:8f:c6:cd:df:2e:d7:bc:24:7d:5e:a5:e4:fd:62:5d:33:3c:
         ed:e9:0e:9e:ed:49:9f:6c:ee:1c:a3:6f:50:a2:14:52:99:27:
         3d:8c:e5:d2
-----BEGIN CERTIFICATE-----
MIID+DCCAuCgAwIBAgIEEAAAtzANBgkqhkiG9w0BAQUFADBEMQswCQYDVQQGEwJE
RTEPMA0GA1UECAwGSGVzc2VuMRQwEgYDVQQKDAtwcml2YWN5aWRlYTEOMAwGA1UE
AwwFQ0EwMDEwHhcNMTUwNTIxMTQyODI5WhcNMTYwNTIwMTQyODI5WjAmMQ4wDAYD
VQQDEwVjb3JueTEUMBIGCSqGSIb3DQEJARYFbWVpbmUwggEiMA0GCSqGSIb3DQEB
AQUAA4IBDwAwggEKAoIBAQDA7ZU0L0ZrnG4ZoykH3jhOZx9+yRIiKeSsb9sgUt/l
RgOlSHFdyFF0zICbO7R4SltmxrckaEBnOojmRSrZDRXf+Xd7wSFLC1IZa2LhJ6W4
zIvS/c9oM+eMhV2hwrc5dfR5D1q7DdC1XKRAogiX/kbnKp7MUA6xRaR7B4iwlyek
u3GeBVqGilc3HRnowPMCI54pUo+g5hFlu4l+fYccVY9a4oIf9ELHOdhnIRm0VzJs
sIZIsMDwtSk7CgT4KWeDVODN/ZukLXC9DOO6VCce5DInf3k077wVIb8vSHCxfVNa
cR0K5ko8PhlbbCHy9I63J+0LSIBPkHZAA0maGE4MzEKTAgMBAAGjggEOMIIBCjAL
BgNVHQ8EBAMCBaAwCQYDVR0TBAIwADARBglghkgBhvhCAQEEBAMCBkAwMwYJYIZI
AYb4QgENBCYWJE9wZW5TU0wgR2VuZXJhdGVkIFNlcnZlciBDZXJ0aWZpY2F0ZTAd
BgNVHQ4EFgQUYNrVdaTaox8AByNgTddPMQ+WEWYwdAYDVR0jBG0wa4AU9KfAzJFG
r2TzkfIn+Miyb4qHMnOhSKRGMEQxCzAJBgNVBAYTAkRFMQ8wDQYDVQQIDAZIZXNz
ZW4xFDASBgNVBAoMC3ByaXZhY3lpZGVhMQ4wDAYDVQQDDAVDQTAwMYIJAPvI66yD
zRIHMBMGA1UdJQQMMAoGCCsGAQUFBwMBMA0GCSqGSIb3DQEBBQUAA4IBAQANxvap
yUplnuqZgwd3feeVGO5XDdUVBzbWOzbtWrNxyiCQ6yz7HQGv5OdokXIZKpYNJYNO
MROarIAPkugakJ9zGixmke2JXqbMjei+QTI1hGnezZNGXpD6a5WzMyIPejbycTu/
DNCrDwV7XSvYMA8kaqRNE+mcWHEV3jbhvS0qXKJTbZfiXpd68pch9EAHwNDtEtHa
JdzHRWUj+VRDg2kA+wvqYB66a5tn0s9uFqccwUyBvwuVywDhgeFY/sfX79eUoXAZ
3u+PqwPIbz38SQpBg8UbyEWCfZwKj8bN3y7XvCR9XqXk/WJdMzzt6Q6e7UmfbO4c
o29QohRSmSc9jOXS
-----END CERTIFICATE-----
