Certificate:
    Data:
        Version: 3 (0x2)
        Serial Number: 268435598 (0x1000008e)
    Signature Algorithm: sha1WithRSAEncryption
        Issuer: C=DE, ST=Hessen, O=privacyidea, CN=CA001
        Validity
            Not Before: May 21 13:26:11 2015 GMT
            Not After : May 20 13:26:11 2016 GMT
        Subject: C=DE, ST=Hessen, O=privacyidea, CN=usercert
        Subject Public Key Info:
            Public Key Algorithm: rsaEncryption
                Public-Key: (2048 bit)
                Modulus:
                    00:dc:2f:d1:5f:29:97:d4:7c:c3:53:c8:30:bd:4b:
                    67:70:2c:24:6b:b8:5e:eb:21:7a:48:12:56:7c:81:
                    5c:48:75:b6:68:eb:f6:f2:98:4e:50:51:d1:7f:6c:
                    73:f3:0a:a7:ae:be:48:5e:e5:d6:e1:d9:2a:7c:32:
                    6e:4e:fd:08:f6:5a:54:49:23:73:c3:b9:07:18:d1:
                    ef:b3:ac:f8:8a:dc:94:96:a4:90:3a:8e:74:df:e6:
                    0d:37:1b:bd:5b:b7:25:1a:56:39:da:6f:91:aa:5e:
                    1c:74:f3:f9:7c:14:01:83:12:65:76:c7:bb:fe:36:
                    5b:95:e9:72:65:83:ed:3e:98:30:71:fa:87:dd:a3:
                    36:5a:30:03:2e:26:e0:61:d1:bf:02:3f:b6:06:1f:
                    4a:89:28:1c:5c:a2:ff:4e:be:94:e6:8c:e0:da:82:
                    f1:9d:29:32:48:30:73:b4:04:f6:42:1e:be:f7:e2:
                    32:32:27:3c:9d:89:2f:70:3e:85:9a:6f:5c:c5:09:
                    c0:8c:32:2f:72:22:c9:d2:95:1f:b6:ac:72:60:72:
                    b7:82:4d:6b:ce:5b:e3:00:d0:d2:2f:58:c6:e0:10:
                    e5:51:ca:4d:3b:2e:e6:7e:ab:84:d6:56:f1:93:35:
                    a0:93:64:26:81:75:2f:91:b5:16:06:38:0b:db:cc:
                    2d:07
                Exponent: 65537 (0x10001)
        X509v3 extensions:
            X509v3 Key Usage: 
                Digital Signature, Key Encipherment
            X509v3 Basic Constraints: 
                CA:FALSE
            Netscape Cert Type: 
                SSL Server
            Netscape Comment: 
                OpenSSL Generated Server Certificate
            X509v3 Subject Key Identifier: 
                FC:14:D1:F0:4B:8D:00:90:F2:F5:B8:71:9E:4E:97:C3:92:54:AD:0B
            X509v3 Authority Key Identifier: 
                keyid:F4:A7:C0:CC:91:46:AF:64:F3:91:F2:27:F8:C8:B2:6F:8A:87:32:73
                DirName:/C=DE/ST=Hessen/O=privacyidea/CN=CA001
                serial:FB:C8:EB:AC:83:CD:12:07

            X509v3 Extended Key Usage: 
                TLS Web Server Authentication
    Signature Algorithm: sha1WithRSAEncryption
         43:d3:e6:07:62:e2:9a:ed:57:5e:68:57:74:97:a2:fc:f9:de:
         b2:d1:33:9e:ee:df:01:36:fe:b6:61:71:bc:52:fd:8e:02:17:
         75:50:09:85:e3:e3:37:cc:69:18:8d:9a:6a:80:b6:42:39:b7:
         c7:f4:2d:60:b0:65:ac:59:59:ca:4d:49:68:18:f4:a4:9a:89:
         0c:ee:d5:6b:4c:e8:86:b3:7a:cc:cb:76:d4:fc:fd:d5:57:ae:
         82:ff:61:d6:37:02:29:c4:10:2c:a2:db:3d:57:a6:48:8e:20:
         ef:31:78:5a:81:55:d5:98:01:78:5e:13:bd:62:68:43:1c:e7:
         56:a4:90:54:58:5f:81:2a:a6:fa:b5:be:6f:d1:17:71:30:4a:
         5e:37:3f:32:b4:da:00:cd:13:ed:ea:e8:5f:a1:cc:63:42:a1:
         c4:5b:8e:48:1c:28:ba:2d:4b:d5:e8:3f:2e:1d:b5:92:30:38:
         4b:9d:ea:97:50:36:7b:d8:da:29:38:ab:69:71:22:5c:51:8e:
         58:cc:5f:74:45:5d:09:5e:88:f3:51:db:74:a0:ca:9b:ae:bc:
         5d:58:f2:8f:6a:0d:81:33:fb:c4:b8:d8:cd:f1:33:4d:4d:cb:
         5a:13:bb:c9:21:00:a0:26:c8:9e:ce:da:3f:52:67:f1:04:7f:
         f1:e5:b2:08
-----BEGIN CERTIFICATE-----
MIIEGTCCAwGgAwIBAgIEEAAAjjANBgkqhkiG9w0BAQUFADBEMQswCQYDVQQGEwJE
RTEPMA0GA1UECAwGSGVzc2VuMRQwEgYDVQQKDAtwcml2YWN5aWRlYTEOMAwGA1UE
AwwFQ0EwMDEwHhcNMTUwNTIxMTMyNjExWhcNMTYwNTIwMTMyNjExWjBHMQswCQYD
VQQGEwJERTEPMA0GA1UECAwGSGVzc2VuMRQwEgYDVQQKDAtwcml2YWN5aWRlYTER
MA8GA1UEAwwIdXNlcmNlcnQwggEiMA0GCSqGSIb3DQEBAQUAA4IBDwAwggEKAoIB
AQDcL9FfKZfUfMNTyDC9S2dwLCRruF7rIXpIElZ8gVxIdbZo6/bymE5QUdF/bHPz
Cqeuvkhe5dbh2Sp8Mm5O/Qj2WlRJI3PDuQcY0e+zrPiK3JSWpJA6jnTf5g03G71b
tyUaVjnab5GqXhx08/l8FAGDEmV2x7v+NluV6XJlg+0+mDBx+ofdozZaMAMuJuBh
0b8CP7YGH0qJKBxcov9OvpTmjODagvGdKTJIMHO0BPZCHr734jIyJzydiS9wPoWa
b1zFCcCMMi9yIsnSlR+2rHJgcreCTWvOW+MA0NIvWMbgEOVRyk07LuZ+q4TWVvGT
NaCTZCaBdS+RtRYGOAvbzC0HAgMBAAGjggEOMIIBCjALBgNVHQ8EBAMCBaAwCQYD
VR0TBAIwADARBglghkgBhvhCAQEEBAMCBkAwMwYJYIZIAYb4QgENBCYWJE9wZW5T
U0wgR2VuZXJhdGVkIFNlcnZlciBDZXJ0aWZpY2F0ZTAdBgNVHQ4EFgQU/BTR8EuN
AJDy9bhxnk6Xw5JUrQswdAYDVR0jBG0wa4AU9KfAzJFGr2TzkfIn+Miyb4qHMnOh
SKRGMEQxCzAJBgNVBAYTAkRFMQ8wDQYDVQQIDAZIZXNzZW4xFDASBgNVBAoMC3By
aXZhY3lpZGVhMQ4wDAYDVQQDDAVDQTAwMYIJAPvI66yDzRIHMBMGA1UdJQQMMAoG
CCsGAQUFBwMBMA0GCSqGSIb3DQEBBQUAA4IBAQBD0+YHYuKa7VdeaFd0l6L8+d6y
0TOe7t8BNv62YXG8Uv2OAhd1UAmF4+M3zGkYjZpqgLZCObfH9C1gsGWsWVnKTUlo
GPSkmokM7tVrTOiGs3rMy3bU/P3VV66C/2HWNwIpxBAsots9V6ZIjiDvMXhagVXV
mAF4XhO9YmhDHOdWpJBUWF+BKqb6tb5v0RdxMEpeNz8ytNoAzRPt6uhfocxjQqHE
W45IHCi6LUvV6D8uHbWSMDhLneqXUDZ72NopOKtpcSJcUY5YzF90RV0JXojzUdt0
oMqbrrxdWPKPag2BM/vEuNjN8TNNTctaE7vJIQCgJsiezto/UmfxBH/x5bII
-----END CERTIFICATE-----
