Certificate:
    Data:
        Version: 3 (0x2)
        Serial Number: 268435650 (0x100000c2)
    Signature Algorithm: sha1WithRSAEncryption
        Issuer: C=DE, ST=Hessen, O=privacyidea, CN=CA001
        Validity
            Not Before: May 21 20:22:58 2015 GMT
            Not After : May 20 20:22:58 2016 GMT
        Subject: CN=admin,CN=admin,O=/emailAddress=meine
        Subject Public Key Info:
            Public Key Algorithm: rsaEncryption
                Public-Key: (2048 bit)
                Modulus:
                    00:a8:ea:14:c0:d4:7a:dd:5a:aa:e8:6a:ad:72:01:
                    66:b3:3a:d3:1b:66:01:66:6d:e8:99:47:b1:8d:29:
                    64:f2:8e:05:2c:b6:d7:6c:57:a0:2c:b3:60:97:81:
                    8a:35:dc:49:b2:ed:72:c4:05:9d:19:2f:93:b3:8c:
                    29:08:a1:a3:f9:18:cd:8e:c9:ce:14:cb:fe:e5:da:
                    5c:75:42:e5:d1:b1:3e:16:43:e6:92:e5:7c:d3:f3:
                    47:e4:53:9a:88:15:a5:4f:20:f4:45:29:00:26:c3:
                    71:6b:9a:05:0d:2e:31:94:b3:69:c5:d4:22:0e:a4:
                    9c:75:87:34:89:7a:ba:11:2c:98:df:11:f0:4a:49:
                    3e:c2:ea:8f:37:03:5b:23:3a:51:a5:a5:96:24:ea:
                    ef:3c:f6:2d:0f:77:08:52:b5:69:e7:a4:a8:16:f2:
                    40:fd:60:09:c4:73:f4:e7:90:fe:05:52:4a:17:a7:
                    cd:1d:7d:bf:f1:3c:50:88:f2:ed:20:a4:0e:bb:43:
                    53:dc:74:6a:1b:9c:1b:ed:5e:17:65:98:0b:64:34:
                    36:69:3c:70:2b:d1:06:88:ac:42:cf:46:34:3f:f9:
                    d8:b4:34:ca:4c:4a:14:c1:64:2e:74:ef:0d:5e:ab:
                    18:f3:45:af:b0:e5:69:92:37:84:65:d1:fc:bd:a8:
                    d3:95
                Exponent: 65537 (0x10001)
        X509v3 extensions:
            X509v3 Key Usage: 
                Digital Signature, Key Encipherment
            X509v3 Basic Constraints: 
                CA:FALSE
            Netscape Cert Type: 
                SSL Server
            Netscape Comment: 
                OpenSSL Generated Server Certificate
            X509v3 Subject Key Identifier: 
                0F:A1:43:5C:A2:D1:B4:33:D3:CE:C8:B4:B4:57:A5:67:79:6E:3C:DA
            X509v3 Authority Key Identifier: 
                keyid:F4:A7:C0:CC:91:46:AF:64:F3:91:F2:27:F8:C8:B2:6F:8A:87:32:73
                DirName:/C=DE/ST=Hessen/O=privacyidea/CN=CA001
                serial:FB:C8:EB:AC:83:CD:12:07

            X509v3 Extended Key Usage: 
                TLS Web Server Authentication
    Signature Algorithm: sha1WithRSAEncryption
         4f:22:2e:9b:0c:57:5a:76:8b:05:b5:5d:f5:1a:2e:6e:af:36:
         9b:57:72:9e:6c:19:02:ad:98:de:bf:59:38:fa:01:3c:1c:9f:
         76:1e:ca:44:ce:e0:07:14:f9:1b:ee:d1:31:4e:c8:66:af:a6:
         e4:0f:99:5c:25:57:40:4e:d1:3d:ea:6d:0e:47:fe:cc:a8:63:
         89:b8:64:6d:67:06:58:f3:53:8b:de:5f:7c:75:73:dd:04:37:
         d1:be:63:98:6f:83:de:29:94:59:1f:ea:99:30:98:68:49:f2:
         7b:2c:cc:53:b8:8f:b9:42:4d:fc:51:02:26:82:84:87:58:01:
         22:63:e5:91:5e:59:9c:63:84:cf:e0:af:17:49:ab:f0:9b:8e:
         cf:ca:91:65:09:fe:91:f6:1c:19:33:c0:0d:fe:64:05:3b:86:
         e2:80:b6:7a:38:ef:10:51:0b:08:1b:3c:8f:c2:20:d7:bd:8b:
         cd:01:75:09:87:51:ad:a2:66:ea:69:21:c7:21:d3:1e:2c:96:
         51:64:e6:0f:11:48:81:9b:77:36:d4:4d:49:8f:aa:f8:4d:e4:
         59:79:26:2e:66:78:a8:54:1b:d1:28:bc:9d:84:5d:d9:2d:d7:
         a1:21:dd:55:e1:7d:2a:ee:1a:41:bb:e4:ac:93:32:9e:cc:75:
         3c:43:a6:c7
-----BEGIN CERTIFICATE-----
MIIEBDCCAuygAwIBAgIEEAAAwjANBgkqhkiG9w0BAQUFADBEMQswCQYDVQQGEwJE
RTEPMA0GA1UECAwGSGVzc2VuMRQwEgYDVQQKDAtwcml2YWN5aWRlYTEOMAwGA1UE
AwwFQ0EwMDEwHhcNMTUwNTIxMjAyMjU4WhcNMTYwNTIwMjAyMjU4WjAyMRowGAYD
VQQDExFhZG1pbixDTj1hZG1pbixPPTEUMBIGCSqGSIb3DQEJARYFbWVpbmUwggEi
MA0GCSqGSIb3DQEBAQUAA4IBDwAwggEKAoIBAQCo6hTA1HrdWqroaq1yAWazOtMb
ZgFmbeiZR7GNKWTyjgUsttdsV6Ass2CXgYo13Emy7XLEBZ0ZL5OzjCkIoaP5GM2O
yc4Uy/7l2lx1QuXRsT4WQ+aS5XzT80fkU5qIFaVPIPRFKQAmw3FrmgUNLjGUs2nF
1CIOpJx1hzSJeroRLJjfEfBKST7C6o83A1sjOlGlpZYk6u889i0PdwhStWnnpKgW
8kD9YAnEc/TnkP4FUkoXp80dfb/xPFCI8u0gpA67Q1PcdGobnBvtXhdlmAtkNDZp
PHAr0QaIrELPRjQ/+di0NMpMShTBZC507w1eqxjzRa+w5WmSN4Rl0fy9qNOVAgMB
AAGjggEOMIIBCjALBgNVHQ8EBAMCBaAwCQYDVR0TBAIwADARBglghkgBhvhCAQEE
BAMCBkAwMwYJYIZIAYb4QgENBCYWJE9wZW5TU0wgR2VuZXJhdGVkIFNlcnZlciBD
ZXJ0aWZpY2F0ZTAdBgNVHQ4EFgQUD6FDXKLRtDPTzsi0tFelZ3luPNowdAYDVR0j
BG0wa4AU9KfAzJFGr2TzkfIn+Miyb4qHMnOhSKRGMEQxCzAJBgNVBAYTAkRFMQ8w
DQYDVQQIDAZIZXNzZW4xFDASBgNVBAoMC3ByaXZhY3lpZGVhMQ4wDAYDVQQDDAVD
QTAwMYIJAPvI66yDzRIHMBMGA1UdJQQMMAoGCCsGAQUFBwMBMA0GCSqGSIb3DQEB
BQUAA4IBAQBPIi6bDFdadosFtV31Gi5urzabV3KebBkCrZjev1k4+gE8HJ92HspE
zuAHFPkb7tExTshmr6bkD5lcJVdATtE96m0OR/7MqGOJuGRtZwZY81OL3l98dXPd
BDfRvmOYb4PeKZRZH+qZMJhoSfJ7LMxTuI+5Qk38UQImgoSHWAEiY+WRXlmcY4TP
4K8XSavwm47PypFlCf6R9hwZM8AN/mQFO4bigLZ6OO8QUQsIGzyPwiDXvYvNAXUJ
h1GtombqaSHHIdMeLJZRZOYPEUiBm3c21E1Jj6r4TeRZeSYuZnioVBvRKLydhF3Z
LdehId1V4X0q7hpBu+SskzKezHU8Q6bH
-----END CERTIFICATE-----
