Certificate:
    Data:
        Version: 3 (0x2)
        Serial Number: 268435606 (0x10000096)
    Signature Algorithm: sha1WithRSAEncryption
        Issuer: C=DE, ST=Hessen, O=privacyidea, CN=CA001
        Validity
            Not Before: May 21 13:31:22 2015 GMT
            Not After : May 20 13:31:22 2016 GMT
        Subject: C=DE, ST=Hessen, O=privacyidea, CN=usercert
        Subject Public Key Info:
            Public Key Algorithm: rsaEncryption
                Public-Key: (2048 bit)
                Modulus:
                    00:dc:2f:d1:5f:29:97:d4:7c:c3:53:c8:30:bd:4b:
                    67:70:2c:24:6b:b8:5e:eb:21:7a:48:12:56:7c:81:
                    5c:48:75:b6:68:eb:f6:f2:98:4e:50:51:d1:7f:6c:
                    73:f3:0a:a7:ae:be:48:5e:e5:d6:e1:d9:2a:7c:32:
                    6e:4e:fd:08:f6:5a:54:49:23:73:c3:b9:07:18:d1:
                    ef:b3:ac:f8:8a:dc:94:96:a4:90:3a:8e:74:df:e6:
                    0d:37:1b:bd:5b:b7:25:1a:56:39:da:6f:91:aa:5e:
                    1c:74:f3:f9:7c:14:01:83:12:65:76:c7:bb:fe:36:
                    5b:95:e9:72:65:83:ed:3e:98:30:71:fa:87:dd:a3:
                    36:5a:30:03:2e:26:e0:61:d1:bf:02:3f:b6:06:1f:
                    4a:89:28:1c:5c:a2:ff:4e:be:94:e6:8c:e0:da:82:
                    f1:9d:29:32:48:30:73:b4:04:f6:42:1e:be:f7:e2:
                    32:32:27:3c:9d:89:2f:70:3e:85:9a:6f:5c:c5:09:
                    c0:8c:32:2f:72:22:c9:d2:95:1f:b6:ac:72:60:72:
                    b7:82:4d:6b:ce:5b:e3:00:d0:d2:2f:58:c6:e0:10:
                    e5:51:ca:4d:3b:2e:e6:7e:ab:84:d6:56:f1:93:35:
                    a0:93:64:26:81:75:2f:91:b5:16:06:38:0b:db:cc:
                    2d:07
                Exponent: 65537 (0x10001)
        X509v3 extensions:
            X509v3 Key Usage: 
                Digital Signature, Key Encipherment
            X509v3 Basic Constraints: 
                CA:FALSE
            Netscape Cert Type: 
                SSL Server
            Netscape Comment: 
                OpenSSL Generated Server Certificate
            X509v3 Subject Key Identifier: 
                FC:14:D1:F0:4B:8D:00:90:F2:F5:B8:71:9E:4E:97:C3:92:54:AD:0B
            X509v3 Authority Key Identifier: 
                keyid:F4:A7:C0:CC:91:46:AF:64:F3:91:F2:27:F8:C8:B2:6F:8A:87:32:73
                DirName:/C=DE/ST=Hessen/O=privacyidea/CN=CA001
                serial:FB:C8:EB:AC:83:CD:12:07

            X509v3 Extended Key Usage: 
                TLS Web Server Authentication
    Signature Algorithm: sha1WithRSAEncryption
         a7:b6:43:41:6b:ff:6f:9a:26:bf:9e:88:f8:c6:29:51:f3:06:
         7e:d1:f1:ce:c5:13:84:23:21:08:98:1d:ee:0e:36:02:9f:14:
         84:77:dd:1e:4e:bc:c2:b0:a4:a8:bb:af:93:2c:4e:0a:fa:e4:
         eb:79:4b:8d:42:69:1b:d3:f8:73:97:49:42:9a:48:e2:35:57:
         02:20:f6:7f:68:6e:1f:40:58:d4:bd:17:16:88:48:1c:60:57:
         88:81:5c:de:09:3f:1b:1f:fd:7a:1a:d4:67:f8:7a:08:21:ec:
         40:09:77:fd:e2:bf:38:9d:c7:b6:45:85:2d:94:4e:f2:a8:c7:
         e2:3a:a9:d2:b1:3e:3f:75:41:b8:b3:25:c3:86:15:24:e0:ba:
         5b:6b:87:45:5d:0d:b9:83:0e:ed:30:bb:3c:a4:56:e1:0f:12:
         12:68:c3:07:ab:e6:b6:44:62:8c:55:99:26:4f:6d:4c:dc:d6:
         e4:ca:dd:fe:aa:1d:72:25:0a:7c:59:3d:6c:c2:3f:00:36:95:
         19:06:cf:5d:2d:23:9e:bb:b4:55:f2:64:08:fc:16:e3:88:fd:
         3b:75:cb:a1:61:c7:2d:dc:72:24:f5:e3:4d:28:04:c8:29:16:
         a0:9f:db:01:c0:32:31:39:91:c7:83:a1:af:3c:0d:5d:8d:fe:
         41:1a:52:c1
-----BEGIN CERTIFICATE-----
MIIEGTCCAwGgAwIBAgIEEAAAljANBgkqhkiG9w0BAQUFADBEMQswCQYDVQQGEwJE
RTEPMA0GA1UECAwGSGVzc2VuMRQwEgYDVQQKDAtwcml2YWN5aWRlYTEOMAwGA1UE
AwwFQ0EwMDEwHhcNMTUwNTIxMTMzMTIyWhcNMTYwNTIwMTMzMTIyWjBHMQswCQYD
VQQGEwJERTEPMA0GA1UECAwGSGVzc2VuMRQwEgYDVQQKDAtwcml2YWN5aWRlYTER
MA8GA1UEAwwIdXNlcmNlcnQwggEiMA0GCSqGSIb3DQEBAQUAA4IBDwAwggEKAoIB
AQDcL9FfKZfUfMNTyDC9S2dwLCRruF7rIXpIElZ8gVxIdbZo6/bymE5QUdF/bHPz
Cqeuvkhe5dbh2Sp8Mm5O/Qj2WlRJI3PDuQcY0e+zrPiK3JSWpJA6jnTf5g03G71b
tyUaVjnab5GqXhx08/l8FAGDEmV2x7v+NluV6XJlg+0+mDBx+ofdozZaMAMuJuBh
0b8CP7YGH0qJKBxcov9OvpTmjODagvGdKTJIMHO0BPZCHr734jIyJzydiS9wPoWa
b1zFCcCMMi9yIsnSlR+2rHJgcreCTWvOW+MA0NIvWMbgEOVRyk07LuZ+q4TWVvGT
NaCTZCaBdS+RtRYGOAvbzC0HAgMBAAGjggEOMIIBCjALBgNVHQ8EBAMCBaAwCQYD
VR0TBAIwADARBglghkgBhvhCAQEEBAMCBkAwMwYJYIZIAYb4QgENBCYWJE9wZW5T
U0wgR2VuZXJhdGVkIFNlcnZlciBDZXJ0aWZpY2F0ZTAdBgNVHQ4EFgQU/BTR8EuN
AJDy9bhxnk6Xw5JUrQswdAYDVR0jBG0wa4AU9KfAzJFGr2TzkfIn+Miyb4qHMnOh
SKRGMEQxCzAJBgNVBAYTAkRFMQ8wDQYDVQQIDAZIZXNzZW4xFDASBgNVBAoMC3By
aXZhY3lpZGVhMQ4wDAYDVQQDDAVDQTAwMYIJAPvI66yDzRIHMBMGA1UdJQQMMAoG
CCsGAQUFBwMBMA0GCSqGSIb3DQEBBQUAA4IBAQCntkNBa/9vmia/noj4xilR8wZ+
0fHOxROEIyEImB3uDjYCnxSEd90eTrzCsKSou6+TLE4K+uTreUuNQmkb0/hzl0lC
mkjiNVcCIPZ/aG4fQFjUvRcWiEgcYFeIgVzeCT8bH/16GtRn+HoIIexACXf94r84
nce2RYUtlE7yqMfiOqnSsT4/dUG4syXDhhUk4Lpba4dFXQ25gw7tMLs8pFbhDxIS
aMMHq+a2RGKMVZkmT21M3Nbkyt3+qh1yJQp8WT1swj8ANpUZBs9dLSOeu7RV8mQI
/BbjiP07dcuhYcct3HIk9eNNKATIKRagn9sBwDIxOZHHg6GvPA1djf5BGlLB
-----END CERTIFICATE-----
