Certificate:
    Data:
        Version: 3 (0x2)
        Serial Number: 268435604 (0x10000094)
    Signature Algorithm: sha1WithRSAEncryption
        Issuer: C=DE, ST=Hessen, O=privacyidea, CN=CA001
        Validity
            Not Before: May 21 13:31:12 2015 GMT
            Not After : May 20 13:31:12 2016 GMT
        Subject: CN=Steve Test/emailAddress=steve@openssl.org
        Subject Public Key Info:
            Public Key Algorithm: rsaEncryption
                Public-Key: (2048 bit)
                Modulus:
                    00:d2:81:89:20:51:48:0f:73:f4:11:32:24:d5:1f:
                    1c:fd:5c:f5:b6:e6:c5:f0:52:81:dc:d2:af:66:4a:
                    7c:93:31:61:5c:af:d1:6d:06:70:03:60:7c:72:0c:
                    88:dd:49:cd:9e:02:6c:d2:5a:d7:53:0f:f3:da:be:
                    69:64:b5:0f:0c:00:e3:b3:50:47:a3:b3:9b:ba:13:
                    50:d6:58:5a:4b:ab:39:e0:11:ca:0a:27:67:03:78:
                    22:66:6d:92:1e:1b:5c:49:ae:e6:6b:d1:8e:3b:9d:
                    06:d3:c6:ac:4d:53:43:10:ab:e8:96:c1:87:82:97:
                    99:8f:20:d3:99:12:37:31:84:e1:8a:ff:29:03:5f:
                    22:90:3e:7f:9b:e0:20:c1:ad:dc:ae:4c:39:1a:31:
                    96:17:02:8c:b2:d9:b4:0d:20:12:9b:7d:86:54:fd:
                    33:fd:c1:2a:62:46:f8:60:96:cf:6e:01:6f:22:df:
                    13:47:e7:97:ec:05:72:23:a3:62:f8:fa:ef:ac:9c:
                    72:f0:37:cb:2f:37:cf:90:a8:27:51:86:c6:d7:78:
                    08:8f:7e:25:a2:15:70:a2:fb:1c:b6:15:5e:a0:97:
                    8b:81:4c:09:28:8a:27:3b:94:bc:71:db:5b:71:37:
                    9a:2b:16:e0:6f:b5:c9:f5:4b:4f:20:ba:65:cf:af:
                    ad:ad
                Exponent: 65537 (0x10001)
        X509v3 extensions:
            X509v3 Key Usage: 
                Digital Signature, Key Encipherment
            X509v3 Basic Constraints: 
                CA:FALSE
            Netscape Cert Type: 
                SSL Server
            Netscape Comment: 
                OpenSSL Generated Server Certificate
            X509v3 Subject Key Identifier: 
                E5:25:6D:3E:AF:0D:DD:3F:4C:F2:45:19:39:D5:14:DB:7E:9C:C0:AD
            X509v3 Authority Key Identifier: 
                keyid:F4:A7:C0:CC:91:46:AF:64:F3:91:F2:27:F8:C8:B2:6F:8A:87:32:73
                DirName:/C=DE/ST=Hessen/O=privacyidea/CN=CA001
                serial:FB:C8:EB:AC:83:CD:12:07

            X509v3 Extended Key Usage: 
                TLS Web Server Authentication
    Signature Algorithm: sha1WithRSAEncryption
         4d:cc:1a:9c:19:2b:00:50:16:49:f4:a1:6c:a0:39:17:d9:6e:
         f6:c8:8d:46:fd:9b:84:66:d4:8f:be:33:cc:d3:c9:38:e6:42:
         59:59:2a:ee:ca:73:f1:fc:93:23:eb:c1:c7:60:d7:d5:c6:68:
         84:a8:4c:57:9d:34:87:af:3d:40:44:28:1c:3d:9e:9e:68:cb:
         8c:97:b1:4b:75:44:2c:9b:06:e6:e1:a1:1e:54:36:1f:c3:ac:
         c7:c6:20:59:a9:ba:28:23:62:95:40:e5:69:fb:35:e9:ae:71:
         e6:44:24:14:1c:ca:fe:3f:06:cf:20:52:68:9b:f4:39:9d:02:
         c3:56:9b:38:cb:c0:9b:c5:d8:6f:99:6e:a0:98:2d:e0:54:f0:
         8e:22:3f:3f:f8:cf:a5:e4:4a:16:ac:1a:48:ed:80:db:c2:5e:
         c3:1a:e7:48:24:0f:16:8f:23:61:d6:f3:27:bf:91:d1:90:58:
         87:e0:52:5b:64:fe:45:f1:d9:07:be:32:b6:55:e6:c9:cb:6c:
         11:69:c5:9c:1d:52:9d:a9:db:f8:71:b8:79:21:c1:c5:79:8f:
         68:70:5c:68:ae:3c:33:f1:33:1a:18:41:6d:66:dc:69:51:be:
         48:f7:97:53:fc:da:fc:50:68:78:98:ab:c5:5c:62:57:ae:22:
         39:47:68:e0
-----BEGIN CERTIFICATE-----
MIIECTCCAvGgAwIBAgIEEAAAlDANBgkqhkiG9w0BAQUFADBEMQswCQYDVQQGEwJE
RTEPMA0GA1UECAwGSGVzc2VuMRQwEgYDVQQKDAtwcml2YWN5aWRlYTEOMAwGA1UE
AwwFQ0EwMDEwHhcNMTUwNTIxMTMzMTEyWhcNMTYwNTIwMTMzMTEyWjA3MRMwEQYD
VQQDEwpTdGV2ZSBUZXN0MSAwHgYJKoZIhvcNAQkBFhFzdGV2ZUBvcGVuc3NsLm9y
ZzCCASIwDQYJKoZIhvcNAQEBBQADggEPADCCAQoCggEBANKBiSBRSA9z9BEyJNUf
HP1c9bbmxfBSgdzSr2ZKfJMxYVyv0W0GcANgfHIMiN1JzZ4CbNJa11MP89q+aWS1
DwwA47NQR6Ozm7oTUNZYWkurOeARygonZwN4ImZtkh4bXEmu5mvRjjudBtPGrE1T
QxCr6JbBh4KXmY8g05kSNzGE4Yr/KQNfIpA+f5vgIMGt3K5MORoxlhcCjLLZtA0g
Ept9hlT9M/3BKmJG+GCWz24BbyLfE0fnl+wFciOjYvj676yccvA3yy83z5CoJ1GG
xtd4CI9+JaIVcKL7HLYVXqCXi4FMCSiKJzuUvHHbW3E3misW4G+1yfVLTyC6Zc+v
ra0CAwEAAaOCAQ4wggEKMAsGA1UdDwQEAwIFoDAJBgNVHRMEAjAAMBEGCWCGSAGG
+EIBAQQEAwIGQDAzBglghkgBhvhCAQ0EJhYkT3BlblNTTCBHZW5lcmF0ZWQgU2Vy
dmVyIENlcnRpZmljYXRlMB0GA1UdDgQWBBTlJW0+rw3dP0zyRRk51RTbfpzArTB0
BgNVHSMEbTBrgBT0p8DMkUavZPOR8if4yLJviocyc6FIpEYwRDELMAkGA1UEBhMC
REUxDzANBgNVBAgMBkhlc3NlbjEUMBIGA1UECgwLcHJpdmFjeWlkZWExDjAMBgNV
BAMMBUNBMDAxggkA+8jrrIPNEgcwEwYDVR0lBAwwCgYIKwYBBQUHAwEwDQYJKoZI
hvcNAQEFBQADggEBAE3MGpwZKwBQFkn0oWygORfZbvbIjUb9m4Rm1I++M8zTyTjm
QllZKu7Kc/H8kyPrwcdg19XGaISoTFedNIevPUBEKBw9np5oy4yXsUt1RCybBubh
oR5UNh/DrMfGIFmpuigjYpVA5Wn7NemuceZEJBQcyv4/Bs8gUmib9DmdAsNWmzjL
wJvF2G+ZbqCYLeBU8I4iPz/4z6XkShasGkjtgNvCXsMa50gkDxaPI2HW8ye/kdGQ
WIfgUltk/kXx2Qe+MrZV5snLbBFpxZwdUp2p2/hxuHkhwcV5j2hwXGiuPDPxMxoY
QW1m3GlRvkj3l1P82vxQaHiYq8VcYleuIjlHaOA=
-----END CERTIFICATE-----
