Certificate:
    Data:
        Version: 3 (0x2)
        Serial Number: 268435635 (0x100000b3)
    Signature Algorithm: sha1WithRSAEncryption
        Issuer: C=DE, ST=Hessen, O=privacyidea, CN=CA001
        Validity
            Not Before: May 21 14:19:44 2015 GMT
            Not After : May 20 14:19:44 2016 GMT
        Subject: CN=asdf/emailAddress=meine
        Subject Public Key Info:
            Public Key Algorithm: rsaEncryption
                Public-Key: (2048 bit)
                Modulus:
                    00:9d:43:28:ad:07:5b:ef:67:2f:b2:ce:db:7f:d5:
                    85:1c:0c:5f:ab:56:dc:ec:50:7e:cc:02:17:6e:f3:
                    f4:fc:66:e4:20:36:60:45:f5:ec:df:56:12:1f:04:
                    bb:40:5e:99:55:0e:96:f0:94:03:2f:f7:da:06:e0:
                    12:e5:ba:90:4e:55:ab:8b:b5:97:f2:1b:7c:70:5f:
                    ef:ee:eb:57:59:a2:e5:da:d0:1a:3f:e7:cd:f0:62:
                    a9:46:f0:4e:84:4a:1d:46:4d:0e:3a:9c:85:51:ae:
                    52:75:eb:15:05:fb:84:e3:94:33:7f:4d:0b:70:83:
                    3b:b3:2c:95:7a:72:58:fd:d2:10:4c:f0:fa:f7:56:
                    c5:7a:bf:3d:1b:3b:e2:65:31:9d:d5:33:8c:b2:dc:
                    e0:49:3f:a0:69:e2:e9:1a:de:bb:0e:e8:49:7d:66:
                    ad:ab:47:89:45:35:4c:84:d9:81:b7:bd:bb:16:ce:
                    c5:a6:57:60:62:ed:3b:af:fb:f5:76:95:4d:12:fe:
                    4a:6f:3b:b9:cc:89:c0:c9:f9:bb:2b:e6:e9:ed:da:
                    96:96:57:7a:95:4a:ed:36:42:2d:73:85:f2:da:97:
                    1c:f8:8b:f1:1b:bc:6b:11:f3:64:d0:21:3c:7c:c6:
                    0b:9b:03:9e:5b:83:c1:c5:47:61:1c:2b:fa:58:e3:
                    bf:cb
                Exponent: 65537 (0x10001)
        X509v3 extensions:
            X509v3 Key Usage: 
                Digital Signature, Key Encipherment
            X509v3 Basic Constraints: 
                CA:FALSE
            Netscape Cert Type: 
                SSL Server
            Netscape Comment: 
                OpenSSL Generated Server Certificate
            X509v3 Subject Key Identifier: 
                93:2F:B7:F2:A2:29:58:9F:FB:C0:9E:B1:11:D4:23:1F:B1:F4:7F:8C
            X509v3 Authority Key Identifier: 
                keyid:F4:A7:C0:CC:91:46:AF:64:F3:91:F2:27:F8:C8:B2:6F:8A:87:32:73
                DirName:/C=DE/ST=Hessen/O=privacyidea/CN=CA001
                serial:FB:C8:EB:AC:83:CD:12:07

            X509v3 Extended Key Usage: 
                TLS Web Server Authentication
    Signature Algorithm: sha1WithRSAEncryption
         b8:5a:c4:76:52:dd:c5:07:9e:4b:43:c4:98:26:b5:41:4c:a1:
         57:37:c7:d0:c8:64:6b:ac:45:a9:ea:5a:2d:04:1d:aa:c4:09:
         fe:0b:52:a0:48:39:d9:ba:92:84:dc:0f:3d:0e:b1:04:04:d4:
         fd:87:fc:72:ce:86:d2:c2:44:45:15:8a:c4:88:65:ca:1e:fa:
         ac:53:7a:33:09:92:71:e0:70:f2:82:36:5d:cd:9e:dd:b9:f1:
         95:14:63:1c:24:e2:6d:63:4c:55:f2:51:a2:bf:ba:ab:10:64:
         88:ee:f6:a7:cc:99:62:3c:dc:cb:53:c0:a2:74:08:f7:03:03:
         b0:5b:6f:06:f8:b2:a8:e0:6c:3b:bf:c9:c2:e6:60:85:48:04:
         28:5c:ef:c4:f3:c8:99:7a:33:e0:d1:3e:3a:6e:6e:28:27:ce:
         46:44:4d:67:6d:5f:21:ea:19:23:bb:c6:d5:34:45:c0:3f:11:
         2f:49:56:f3:e3:9a:f3:20:c5:58:f5:1d:8a:cd:9b:7c:b2:39:
         49:2f:8a:f4:ad:b9:a2:e1:59:08:d7:e9:26:4e:14:d3:09:42:
         f7:91:23:45:d2:dd:ed:01:93:5d:5a:62:7f:c0:ea:cb:d5:e6:
         b4:fa:ef:66:7f:bf:74:a7:bd:99:6b:7e:c4:9b:e8:bf:bd:dd:
         ee:b7:03:36
-----BEGIN CERTIFICATE-----
MIID9zCCAt+gAwIBAgIEEAAAszANBgkqhkiG9w0BAQUFADBEMQswCQYDVQQGEwJE
RTEPMA0GA1UECAwGSGVzc2VuMRQwEgYDVQQKDAtwcml2YWN5aWRlYTEOMAwGA1UE
AwwFQ0EwMDEwHhcNMTUwNTIxMTQxOTQ0WhcNMTYwNTIwMTQxOTQ0WjAlMQ0wCwYD
VQQDEwRhc2RmMRQwEgYJKoZIhvcNAQkBFgVtZWluZTCCASIwDQYJKoZIhvcNAQEB
BQADggEPADCCAQoCggEBAJ1DKK0HW+9nL7LO23/VhRwMX6tW3OxQfswCF27z9Pxm
5CA2YEX17N9WEh8Eu0BemVUOlvCUAy/32gbgEuW6kE5Vq4u1l/IbfHBf7+7rV1mi
5drQGj/nzfBiqUbwToRKHUZNDjqchVGuUnXrFQX7hOOUM39NC3CDO7MslXpyWP3S
EEzw+vdWxXq/PRs74mUxndUzjLLc4Ek/oGni6Rreuw7oSX1mratHiUU1TITZgbe9
uxbOxaZXYGLtO6/79XaVTRL+Sm87ucyJwMn5uyvm6e3alpZXepVK7TZCLXOF8tqX
HPiL8Ru8axHzZNAhPHzGC5sDnluDwcVHYRwr+ljjv8sCAwEAAaOCAQ4wggEKMAsG
A1UdDwQEAwIFoDAJBgNVHRMEAjAAMBEGCWCGSAGG+EIBAQQEAwIGQDAzBglghkgB
hvhCAQ0EJhYkT3BlblNTTCBHZW5lcmF0ZWQgU2VydmVyIENlcnRpZmljYXRlMB0G
A1UdDgQWBBSTL7fyoilYn/vAnrER1CMfsfR/jDB0BgNVHSMEbTBrgBT0p8DMkUav
ZPOR8if4yLJviocyc6FIpEYwRDELMAkGA1UEBhMCREUxDzANBgNVBAgMBkhlc3Nl
bjEUMBIGA1UECgwLcHJpdmFjeWlkZWExDjAMBgNVBAMMBUNBMDAxggkA+8jrrIPN
EgcwEwYDVR0lBAwwCgYIKwYBBQUHAwEwDQYJKoZIhvcNAQEFBQADggEBALhaxHZS
3cUHnktDxJgmtUFMoVc3x9DIZGusRanqWi0EHarECf4LUqBIOdm6koTcDz0OsQQE
1P2H/HLOhtLCREUVisSIZcoe+qxTejMJknHgcPKCNl3Nnt258ZUUYxwk4m1jTFXy
UaK/uqsQZIju9qfMmWI83MtTwKJ0CPcDA7Bbbwb4sqjgbDu/ycLmYIVIBChc78Tz
yJl6M+DRPjpubignzkZETWdtXyHqGSO7xtU0RcA/ES9JVvPjmvMgxVj1HYrNm3yy
OUkvivStuaLhWQjX6SZOFNMJQveRI0XS3e0Bk11aYn/A6svV5rT672Z/v3SnvZlr
fsSb6L+93e63AzY=
-----END CERTIFICATE-----
