Certificate:
    Data:
        Version: 3 (0x2)
        Serial Number: 268435643 (0x100000bb)
    Signature Algorithm: sha1WithRSAEncryption
        Issuer: C=DE, ST=Hessen, O=privacyidea, CN=CA001
        Validity
            Not Before: May 21 14:34:55 2015 GMT
            Not After : May 20 14:34:55 2016 GMT
        Subject: CN=cornelius/emailAddress=meine
        Subject Public Key Info:
            Public Key Algorithm: rsaEncryption
                Public-Key: (2048 bit)
                Modulus:
                    00:ef:bb:69:a8:83:54:2e:ea:5a:02:f4:f8:1e:03:
                    c2:88:28:ce:70:5f:1c:4a:c5:84:77:43:57:66:1d:
                    9b:b1:7d:a1:57:a6:da:49:0a:5e:05:5a:c3:01:8e:
                    d7:48:39:ba:ec:29:0a:da:7c:49:86:41:78:07:33:
                    16:83:c9:b7:3d:ee:90:06:7b:aa:77:c0:d5:97:0c:
                    60:97:4d:73:f2:2c:97:3c:2e:c7:9f:4d:94:e1:ba:
                    64:22:58:e3:2d:52:40:1b:3e:ed:f6:91:7a:6f:3f:
                    d4:c4:d7:bd:65:21:3c:63:f0:95:5c:5f:67:0a:e2:
                    6e:68:55:95:ad:0c:5f:de:dd:c9:4f:d7:49:75:f5:
                    6b:a0:dc:4e:3d:94:1c:51:44:2f:ad:ad:58:cd:c9:
                    b6:c5:a3:3d:33:3a:d0:e6:41:3a:b8:30:1a:ba:e5:
                    d5:cf:23:80:9c:7b:68:80:ab:6e:3e:44:11:79:71:
                    47:da:c9:44:4d:01:15:c2:04:6a:6a:69:78:ac:e4:
                    06:d0:7f:1b:01:b9:cc:ec:3b:66:e3:24:fc:91:7b:
                    60:b5:82:b6:50:96:2e:a0:96:a6:f9:9b:ce:82:ac:
                    1f:c8:93:b1:cf:ef:af:12:32:cd:08:71:22:b8:50:
                    9f:90:26:3f:c8:d7:dd:f8:e5:5a:66:0d:a3:c0:c5:
                    42:87
                Exponent: 65537 (0x10001)
        X509v3 extensions:
            X509v3 Key Usage: 
                Digital Signature, Key Encipherment
            X509v3 Basic Constraints: 
                CA:FALSE
            Netscape Cert Type: 
                SSL Server
            Netscape Comment: 
                OpenSSL Generated Server Certificate
            X509v3 Subject Key Identifier: 
                C9:1C:E9:EA:5E:21:40:CB:88:75:B4:B0:EE:F6:24:F8:90:0D:71:CD
            X509v3 Authority Key Identifier: 
                keyid:F4:A7:C0:CC:91:46:AF:64:F3:91:F2:27:F8:C8:B2:6F:8A:87:32:73
                DirName:/C=DE/ST=Hessen/O=privacyidea/CN=CA001
                serial:FB:C8:EB:AC:83:CD:12:07

            X509v3 Extended Key Usage: 
                TLS Web Server Authentication
    Signature Algorithm: sha1WithRSAEncryption
         96:ca:41:36:c8:76:91:d6:96:05:61:11:f3:18:91:78:d1:3d:
         d8:a6:80:26:18:e7:00:ec:98:17:a4:28:02:31:57:45:73:57:
         ce:80:8f:5f:6b:65:21:a1:64:19:6a:4e:ee:57:a0:86:fe:eb:
         49:18:9c:37:6d:f3:8d:ac:2c:31:db:60:8f:60:03:64:e1:9c:
         5e:98:94:4d:74:17:d2:b0:3b:70:76:a5:82:46:da:fd:2c:3a:
         f8:c1:19:4e:f3:bc:ba:a4:44:03:eb:ec:70:ac:d4:5c:e4:8d:
         b6:12:c6:a9:b4:b2:a0:49:55:e2:d6:fb:b5:ff:a3:8b:a0:54:
         5c:71:fe:f1:d3:24:fa:e9:8b:f1:79:3b:58:85:e9:58:c8:c4:
         d3:03:7e:b3:87:94:3b:81:10:3a:cd:eb:19:6a:e0:51:d6:df:
         84:b9:a5:56:89:0f:32:40:9e:e4:17:4c:48:4f:f8:ec:30:bf:
         c0:16:7b:95:23:40:e8:89:0e:7d:06:34:16:d3:99:cf:68:10:
         a9:0f:a5:f9:0f:5d:75:35:a2:35:13:e0:44:05:bd:7c:cc:99:
         87:23:2a:41:e0:e3:94:ad:0d:52:7b:38:d2:3f:43:58:1a:fe:
         4f:44:4c:74:8f:56:a2:ed:9f:53:ba:ad:d4:f6:f7:39:cd:aa:
         e9:e4:6b:fb
-----BEGIN CERTIFICATE-----
MIID/DCCAuSgAwIBAgIEEAAAuzANBgkqhkiG9w0BAQUFADBEMQswCQYDVQQGEwJE
RTEPMA0GA1UECAwGSGVzc2VuMRQwEgYDVQQKDAtwcml2YWN5aWRlYTEOMAwGA1UE
AwwFQ0EwMDEwHhcNMTUwNTIxMTQzNDU1WhcNMTYwNTIwMTQzNDU1WjAqMRIwEAYD
VQQDEwljb3JuZWxpdXMxFDASBgkqhkiG9w0BCQEWBW1laW5lMIIBIjANBgkqhkiG
9w0BAQEFAAOCAQ8AMIIBCgKCAQEA77tpqINULupaAvT4HgPCiCjOcF8cSsWEd0NX
Zh2bsX2hV6baSQpeBVrDAY7XSDm67CkK2nxJhkF4BzMWg8m3Pe6QBnuqd8DVlwxg
l01z8iyXPC7Hn02U4bpkIljjLVJAGz7t9pF6bz/UxNe9ZSE8Y/CVXF9nCuJuaFWV
rQxf3t3JT9dJdfVroNxOPZQcUUQvra1Yzcm2xaM9MzrQ5kE6uDAauuXVzyOAnHto
gKtuPkQReXFH2slETQEVwgRqaml4rOQG0H8bAbnM7Dtm4yT8kXtgtYK2UJYuoJam
+ZvOgqwfyJOxz++vEjLNCHEiuFCfkCY/yNfd+OVaZg2jwMVChwIDAQABo4IBDjCC
AQowCwYDVR0PBAQDAgWgMAkGA1UdEwQCMAAwEQYJYIZIAYb4QgEBBAQDAgZAMDMG
CWCGSAGG+EIBDQQmFiRPcGVuU1NMIEdlbmVyYXRlZCBTZXJ2ZXIgQ2VydGlmaWNh
dGUwHQYDVR0OBBYEFMkc6epeIUDLiHW0sO72JPiQDXHNMHQGA1UdIwRtMGuAFPSn
wMyRRq9k85HyJ/jIsm+KhzJzoUikRjBEMQswCQYDVQQGEwJERTEPMA0GA1UECAwG
SGVzc2VuMRQwEgYDVQQKDAtwcml2YWN5aWRlYTEOMAwGA1UEAwwFQ0EwMDGCCQD7
yOusg80SBzATBgNVHSUEDDAKBggrBgEFBQcDATANBgkqhkiG9w0BAQUFAAOCAQEA
lspBNsh2kdaWBWER8xiReNE92KaAJhjnAOyYF6QoAjFXRXNXzoCPX2tlIaFkGWpO
7leghv7rSRicN23zjawsMdtgj2ADZOGcXpiUTXQX0rA7cHalgkba/Sw6+MEZTvO8
uqREA+vscKzUXOSNthLGqbSyoElV4tb7tf+ji6BUXHH+8dMk+umL8Xk7WIXpWMjE
0wN+s4eUO4EQOs3rGWrgUdbfhLmlVokPMkCe5BdMSE/47DC/wBZ7lSNA6IkOfQY0
FtOZz2gQqQ+l+Q9ddTWiNRPgRAW9fMyZhyMqQeDjlK0NUns40j9DWBr+T0RMdI9W
ou2fU7qt1Pb3Oc2q6eRr+w==
-----END CERTIFICATE-----
