Certificate:
    Data:
        Version: 3 (0x2)
        Serial Number: 268435594 (0x1000008a)
    Signature Algorithm: sha1WithRSAEncryption
        Issuer: C=DE, ST=Hessen, O=privacyidea, CN=CA001
        Validity
            Not Before: May 21 13:24:21 2015 GMT
            Not After : May 20 13:24:21 2016 GMT
        Subject: C=DE, ST=Hessen, O=privacyidea, CN=usercert
        Subject Public Key Info:
            Public Key Algorithm: rsaEncryption
                Public-Key: (2048 bit)
                Modulus:
                    00:dc:2f:d1:5f:29:97:d4:7c:c3:53:c8:30:bd:4b:
                    67:70:2c:24:6b:b8:5e:eb:21:7a:48:12:56:7c:81:
                    5c:48:75:b6:68:eb:f6:f2:98:4e:50:51:d1:7f:6c:
                    73:f3:0a:a7:ae:be:48:5e:e5:d6:e1:d9:2a:7c:32:
                    6e:4e:fd:08:f6:5a:54:49:23:73:c3:b9:07:18:d1:
                    ef:b3:ac:f8:8a:dc:94:96:a4:90:3a:8e:74:df:e6:
                    0d:37:1b:bd:5b:b7:25:1a:56:39:da:6f:91:aa:5e:
                    1c:74:f3:f9:7c:14:01:83:12:65:76:c7:bb:fe:36:
                    5b:95:e9:72:65:83:ed:3e:98:30:71:fa:87:dd:a3:
                    36:5a:30:03:2e:26:e0:61:d1:bf:02:3f:b6:06:1f:
                    4a:89:28:1c:5c:a2:ff:4e:be:94:e6:8c:e0:da:82:
                    f1:9d:29:32:48:30:73:b4:04:f6:42:1e:be:f7:e2:
                    32:32:27:3c:9d:89:2f:70:3e:85:9a:6f:5c:c5:09:
                    c0:8c:32:2f:72:22:c9:d2:95:1f:b6:ac:72:60:72:
                    b7:82:4d:6b:ce:5b:e3:00:d0:d2:2f:58:c6:e0:10:
                    e5:51:ca:4d:3b:2e:e6:7e:ab:84:d6:56:f1:93:35:
                    a0:93:64:26:81:75:2f:91:b5:16:06:38:0b:db:cc:
                    2d:07
                Exponent: 65537 (0x10001)
        X509v3 extensions:
            X509v3 Key Usage: 
                Digital Signature, Key Encipherment
            X509v3 Basic Constraints: 
                CA:FALSE
            Netscape Cert Type: 
                SSL Server
            Netscape Comment: 
                OpenSSL Generated Server Certificate
            X509v3 Subject Key Identifier: 
                FC:14:D1:F0:4B:8D:00:90:F2:F5:B8:71:9E:4E:97:C3:92:54:AD:0B
            X509v3 Authority Key Identifier: 
                keyid:F4:A7:C0:CC:91:46:AF:64:F3:91:F2:27:F8:C8:B2:6F:8A:87:32:73
                DirName:/C=DE/ST=Hessen/O=privacyidea/CN=CA001
                serial:FB:C8:EB:AC:83:CD:12:07

            X509v3 Extended Key Usage: 
                TLS Web Server Authentication
    Signature Algorithm: sha1WithRSAEncryption
         07:cc:45:8b:f0:a1:6a:f6:1f:de:c4:6f:2f:fb:7e:c9:2a:c2:
         f2:b6:73:df:b7:3a:16:76:f5:ac:d9:5d:e7:11:3f:d7:c9:ba:
         69:f5:8f:7e:c9:8e:56:18:cd:c5:2b:39:09:ab:f5:0d:2f:83:
         cd:54:27:21:90:bc:cc:ab:88:b5:07:5b:c6:e9:8a:b6:f1:7f:
         d5:71:d0:0b:79:d8:5f:4d:7b:10:a8:04:c5:b4:78:09:35:52:
         72:a9:9d:60:ae:03:3c:57:b8:f5:3f:33:d1:6d:c8:4b:3e:a9:
         5d:da:22:ef:c5:4f:e5:47:fd:c6:fd:a4:b0:bf:f9:60:6f:6d:
         cd:1d:2f:7f:65:98:44:b6:12:89:00:a9:77:ec:8e:61:fc:20:
         38:c4:e6:3b:6c:a6:4c:7f:41:18:31:1c:07:ae:7c:58:f1:a4:
         be:c4:68:7c:3f:9f:2e:16:3d:d1:ec:1d:47:83:dc:08:ee:58:
         9a:0e:4c:a1:54:02:22:72:97:04:92:d6:98:92:13:b2:61:30:
         3b:cb:99:55:23:d8:db:6b:be:1a:6f:85:52:e2:73:39:57:aa:
         ae:c9:d9:33:2e:0b:54:ec:3a:16:ad:c7:d6:57:af:24:cc:d0:
         88:fc:66:0c:46:d9:2b:11:94:a7:bd:a6:1c:5c:f9:48:10:87:
         da:28:ea:a5
-----BEGIN CERTIFICATE-----
MIIEGTCCAwGgAwIBAgIEEAAAijANBgkqhkiG9w0BAQUFADBEMQswCQYDVQQGEwJE
RTEPMA0GA1UECAwGSGVzc2VuMRQwEgYDVQQKDAtwcml2YWN5aWRlYTEOMAwGA1UE
AwwFQ0EwMDEwHhcNMTUwNTIxMTMyNDIxWhcNMTYwNTIwMTMyNDIxWjBHMQswCQYD
VQQGEwJERTEPMA0GA1UECAwGSGVzc2VuMRQwEgYDVQQKDAtwcml2YWN5aWRlYTER
MA8GA1UEAwwIdXNlcmNlcnQwggEiMA0GCSqGSIb3DQEBAQUAA4IBDwAwggEKAoIB
AQDcL9FfKZfUfMNTyDC9S2dwLCRruF7rIXpIElZ8gVxIdbZo6/bymE5QUdF/bHPz
Cqeuvkhe5dbh2Sp8Mm5O/Qj2WlRJI3PDuQcY0e+zrPiK3JSWpJA6jnTf5g03G71b
tyUaVjnab5GqXhx08/l8FAGDEmV2x7v+NluV6XJlg+0+mDBx+ofdozZaMAMuJuBh
0b8CP7YGH0qJKBxcov9OvpTmjODagvGdKTJIMHO0BPZCHr734jIyJzydiS9wPoWa
b1zFCcCMMi9yIsnSlR+2rHJgcreCTWvOW+MA0NIvWMbgEOVRyk07LuZ+q4TWVvGT
NaCTZCaBdS+RtRYGOAvbzC0HAgMBAAGjggEOMIIBCjALBgNVHQ8EBAMCBaAwCQYD
VR0TBAIwADARBglghkgBhvhCAQEEBAMCBkAwMwYJYIZIAYb4QgENBCYWJE9wZW5T
U0wgR2VuZXJhdGVkIFNlcnZlciBDZXJ0aWZpY2F0ZTAdBgNVHQ4EFgQU/BTR8EuN
AJDy9bhxnk6Xw5JUrQswdAYDVR0jBG0wa4AU9KfAzJFGr2TzkfIn+Miyb4qHMnOh
SKRGMEQxCzAJBgNVBAYTAkRFMQ8wDQYDVQQIDAZIZXNzZW4xFDASBgNVBAoMC3By
aXZhY3lpZGVhMQ4wDAYDVQQDDAVDQTAwMYIJAPvI66yDzRIHMBMGA1UdJQQMMAoG
CCsGAQUFBwMBMA0GCSqGSIb3DQEBBQUAA4IBAQAHzEWL8KFq9h/exG8v+37JKsLy
tnPftzoWdvWs2V3nET/Xybpp9Y9+yY5WGM3FKzkJq/UNL4PNVCchkLzMq4i1B1vG
6Yq28X/VcdALedhfTXsQqATFtHgJNVJyqZ1grgM8V7j1PzPRbchLPqld2iLvxU/l
R/3G/aSwv/lgb23NHS9/ZZhEthKJAKl37I5h/CA4xOY7bKZMf0EYMRwHrnxY8aS+
xGh8P58uFj3R7B1Hg9wI7liaDkyhVAIicpcEktaYkhOyYTA7y5lVI9jba74ab4VS
4nM5V6quydkzLgtU7DoWrcfWV68kzNCI/GYMRtkrEZSnvaYcXPlIEIfaKOql
-----END CERTIFICATE-----
