Certificate:
    Data:
        Version: 3 (0x2)
        Serial Number: 268435651 (0x100000c3)
    Signature Algorithm: sha1WithRSAEncryption
        Issuer: C=DE, ST=Hessen, O=privacyidea, CN=CA001
        Validity
            Not Before: May 21 20:23:10 2015 GMT
            Not After : May 20 20:23:10 2016 GMT
        Subject: CN=admin,CN=admin,O=/emailAddress=meine
        Subject Public Key Info:
            Public Key Algorithm: rsaEncryption
                Public-Key: (2048 bit)
                Modulus:
                    00:b5:fa:e8:b2:fe:fe:0f:8d:e5:2d:7e:4a:37:5c:
                    4f:69:cb:9a:5f:43:19:c0:a7:70:d8:de:0a:a1:b6:
                    e2:b3:c0:cf:df:6f:44:c0:71:1c:54:be:da:77:59:
                    97:df:9e:08:6b:56:2c:8a:be:5f:35:ae:64:89:ab:
                    34:08:76:fa:9a:6b:56:5e:b3:43:27:bd:b0:b5:34:
                    38:59:cc:04:fd:e3:a9:54:2c:e4:f8:43:66:3a:09:
                    20:4b:93:1f:69:b3:0f:e1:42:4c:cd:50:70:20:70:
                    5f:5f:07:33:e6:c5:c4:eb:44:a4:74:c6:af:fa:7f:
                    b7:38:b5:73:1b:82:2f:69:eb:98:b5:15:19:d0:b2:
                    06:8d:98:78:eb:9f:b0:6f:28:fb:d8:c9:f7:21:be:
                    d2:af:70:94:5c:91:25:d8:c2:71:cc:d1:ad:1a:26:
                    3a:68:48:30:a2:b9:08:dc:ec:71:08:77:8c:ab:fa:
                    f8:e4:8d:80:f3:07:ab:d0:8c:5d:a7:ab:2f:37:55:
                    34:6e:72:fb:98:e9:21:e6:e8:d7:5e:b7:58:4e:fd:
                    2e:ef:11:fa:c8:d6:d5:c6:dc:f0:cf:5b:b0:f6:bb:
                    8a:c7:86:68:26:9f:b6:46:aa:21:da:5d:a4:77:8f:
                    5c:cb:8f:1c:f2:1a:d4:c9:75:58:24:f4:fa:b4:66:
                    b6:8b
                Exponent: 65537 (0x10001)
        X509v3 extensions:
            X509v3 Key Usage: 
                Digital Signature, Key Encipherment
            X509v3 Basic Constraints: 
                CA:FALSE
            Netscape Cert Type: 
                SSL Server
            Netscape Comment: 
                OpenSSL Generated Server Certificate
            X509v3 Subject Key Identifier: 
                E8:77:D3:88:A7:2E:74:F7:74:C3:F7:09:CC:3E:93:20:AA:96:00:80
            X509v3 Authority Key Identifier: 
                keyid:F4:A7:C0:CC:91:46:AF:64:F3:91:F2:27:F8:C8:B2:6F:8A:87:32:73
                DirName:/C=DE/ST=Hessen/O=privacyidea/CN=CA001
                serial:FB:C8:EB:AC:83:CD:12:07

            X509v3 Extended Key Usage: 
                TLS Web Server Authentication
    Signature Algorithm: sha1WithRSAEncryption
         2d:bb:3f:ce:60:ec:e2:e2:89:b7:09:60:d1:c3:8b:8c:f8:76:
         03:1b:12:14:26:5d:34:46:33:bd:1a:af:6c:1a:08:8d:89:b6:
         38:11:a0:3f:29:9c:bb:56:6f:8d:a8:d9:c0:a7:30:05:9c:f6:
         c7:e5:9e:17:e1:37:3b:b8:ac:0d:8a:5c:c3:1c:24:02:63:71:
         af:15:08:f6:aa:56:20:81:f8:6f:ed:68:88:6f:bf:97:ac:43:
         d2:04:52:94:b4:c2:02:14:0e:d6:8c:cd:2e:44:6e:58:5c:d1:
         4b:80:92:52:95:59:85:fc:53:0e:ed:ec:e4:a9:44:77:59:fb:
         a8:96:04:2c:81:2d:eb:58:f7:83:c9:f5:16:94:15:98:b8:e1:
         84:25:39:dd:88:ef:f5:80:a8:97:b9:d7:ea:86:fd:f7:35:fe:
         39:66:a7:fb:97:ae:5c:d5:41:a7:18:78:ca:ce:0f:10:23:ae:
         23:09:aa:10:72:4c:be:dd:cb:63:e1:de:d7:06:d8:99:22:98:
         75:ce:e2:97:fc:ed:e2:2e:bb:1e:eb:99:52:0d:80:69:aa:23:
         ad:fa:4c:c2:12:7a:8b:95:e3:0a:70:e5:08:f3:e1:41:01:3a:
         13:21:1a:5b:6b:ec:64:64:ee:a3:d4:38:2d:f7:fd:ca:b5:5f:
         5d:1c:22:65
-----BEGIN CERTIFICATE-----
MIIEBDCCAuygAwIBAgIEEAAAwzANBgkqhkiG9w0BAQUFADBEMQswCQYDVQQGEwJE
RTEPMA0GA1UECAwGSGVzc2VuMRQwEgYDVQQKDAtwcml2YWN5aWRlYTEOMAwGA1UE
AwwFQ0EwMDEwHhcNMTUwNTIxMjAyMzEwWhcNMTYwNTIwMjAyMzEwWjAyMRowGAYD
VQQDExFhZG1pbixDTj1hZG1pbixPPTEUMBIGCSqGSIb3DQEJARYFbWVpbmUwggEi
MA0GCSqGSIb3DQEBAQUAA4IBDwAwggEKAoIBAQC1+uiy/v4PjeUtfko3XE9py5pf
QxnAp3DY3gqhtuKzwM/fb0TAcRxUvtp3WZffnghrViyKvl81rmSJqzQIdvqaa1Ze
s0MnvbC1NDhZzAT946lULOT4Q2Y6CSBLkx9psw/hQkzNUHAgcF9fBzPmxcTrRKR0
xq/6f7c4tXMbgi9p65i1FRnQsgaNmHjrn7BvKPvYyfchvtKvcJRckSXYwnHM0a0a
JjpoSDCiuQjc7HEId4yr+vjkjYDzB6vQjF2nqy83VTRucvuY6SHm6Ndet1hO/S7v
EfrI1tXG3PDPW7D2u4rHhmgmn7ZGqiHaXaR3j1zLjxzyGtTJdVgk9Pq0ZraLAgMB
AAGjggEOMIIBCjALBgNVHQ8EBAMCBaAwCQYDVR0TBAIwADARBglghkgBhvhCAQEE
BAMCBkAwMwYJYIZIAYb4QgENBCYWJE9wZW5TU0wgR2VuZXJhdGVkIFNlcnZlciBD
ZXJ0aWZpY2F0ZTAdBgNVHQ4EFgQU6HfTiKcudPd0w/cJzD6TIKqWAIAwdAYDVR0j
BG0wa4AU9KfAzJFGr2TzkfIn+Miyb4qHMnOhSKRGMEQxCzAJBgNVBAYTAkRFMQ8w
DQYDVQQIDAZIZXNzZW4xFDASBgNVBAoMC3ByaXZhY3lpZGVhMQ4wDAYDVQQDDAVD
QTAwMYIJAPvI66yDzRIHMBMGA1UdJQQMMAoGCCsGAQUFBwMBMA0GCSqGSIb3DQEB
BQUAA4IBAQAtuz/OYOzi4om3CWDRw4uM+HYDGxIUJl00RjO9Gq9sGgiNibY4EaA/
KZy7Vm+NqNnApzAFnPbH5Z4X4Tc7uKwNilzDHCQCY3GvFQj2qlYggfhv7WiIb7+X
rEPSBFKUtMICFA7WjM0uRG5YXNFLgJJSlVmF/FMO7ezkqUR3WfuolgQsgS3rWPeD
yfUWlBWYuOGEJTndiO/1gKiXudfqhv33Nf45Zqf7l65c1UGnGHjKzg8QI64jCaoQ
cky+3ctj4d7XBtiZIph1zuKX/O3iLrse65lSDYBpqiOt+kzCEnqLleMKcOUI8+FB
AToTIRpba+xkZO6j1Dgt9/3KtV9dHCJl
-----END CERTIFICATE-----
