Certificate:
    Data:
        Version: 3 (0x2)
        Serial Number: 268435613 (0x1000009d)
    Signature Algorithm: sha1WithRSAEncryption
        Issuer: C=DE, ST=Hessen, O=privacyidea, CN=CA001
        Validity
            Not Before: May 21 13:35:35 2015 GMT
            Not After : May 20 13:35:35 2016 GMT
        Subject: C=DE, ST=Hessen, O=privacyidea, CN=usercert
        Subject Public Key Info:
            Public Key Algorithm: rsaEncryption
                Public-Key: (2048 bit)
                Modulus:
                    00:dc:2f:d1:5f:29:97:d4:7c:c3:53:c8:30:bd:4b:
                    67:70:2c:24:6b:b8:5e:eb:21:7a:48:12:56:7c:81:
                    5c:48:75:b6:68:eb:f6:f2:98:4e:50:51:d1:7f:6c:
                    73:f3:0a:a7:ae:be:48:5e:e5:d6:e1:d9:2a:7c:32:
                    6e:4e:fd:08:f6:5a:54:49:23:73:c3:b9:07:18:d1:
                    ef:b3:ac:f8:8a:dc:94:96:a4:90:3a:8e:74:df:e6:
                    0d:37:1b:bd:5b:b7:25:1a:56:39:da:6f:91:aa:5e:
                    1c:74:f3:f9:7c:14:01:83:12:65:76:c7:bb:fe:36:
                    5b:95:e9:72:65:83:ed:3e:98:30:71:fa:87:dd:a3:
                    36:5a:30:03:2e:26:e0:61:d1:bf:02:3f:b6:06:1f:
                    4a:89:28:1c:5c:a2:ff:4e:be:94:e6:8c:e0:da:82:
                    f1:9d:29:32:48:30:73:b4:04:f6:42:1e:be:f7:e2:
                    32:32:27:3c:9d:89:2f:70:3e:85:9a:6f:5c:c5:09:
                    c0:8c:32:2f:72:22:c9:d2:95:1f:b6:ac:72:60:72:
                    b7:82:4d:6b:ce:5b:e3:00:d0:d2:2f:58:c6:e0:10:
                    e5:51:ca:4d:3b:2e:e6:7e:ab:84:d6:56:f1:93:35:
                    a0:93:64:26:81:75:2f:91:b5:16:06:38:0b:db:cc:
                    2d:07
                Exponent: 65537 (0x10001)
        X509v3 extensions:
            X509v3 Key Usage: 
                Digital Signature, Key Encipherment
            X509v3 Basic Constraints: 
                CA:FALSE
            Netscape Cert Type: 
                SSL Server
            Netscape Comment: 
                OpenSSL Generated Server Certificate
            X509v3 Subject Key Identifier: 
                FC:14:D1:F0:4B:8D:00:90:F2:F5:B8:71:9E:4E:97:C3:92:54:AD:0B
            X509v3 Authority Key Identifier: 
                keyid:F4:A7:C0:CC:91:46:AF:64:F3:91:F2:27:F8:C8:B2:6F:8A:87:32:73
                DirName:/C=DE/ST=Hessen/O=privacyidea/CN=CA001
                serial:FB:C8:EB:AC:83:CD:12:07

            X509v3 Extended Key Usage: 
                TLS Web Server Authentication
    Signature Algorithm: sha1WithRSAEncryption
         a0:93:7c:b1:b3:8a:22:aa:16:03:95:b1:e6:b8:3b:e4:e3:42:
         d8:3d:77:40:80:ef:9e:d7:a8:ad:d7:90:7a:5e:cd:68:82:2c:
         a3:1f:aa:30:62:db:95:65:f0:1d:bc:31:47:26:b7:8b:6c:f8:
         94:f0:ed:f4:00:56:e1:eb:3c:88:7c:3f:c0:e8:f2:82:bd:50:
         0b:0f:fd:f4:d8:cb:cd:e9:f8:06:5f:ed:81:b2:de:21:d9:4a:
         46:6c:b1:de:89:8d:5f:e7:75:bb:9b:55:a6:f5:4e:ea:b7:01:
         16:0c:61:5b:26:aa:52:83:91:cd:45:58:6f:ce:90:ef:ef:8b:
         54:1a:9f:21:d8:b7:f9:20:03:d4:6e:11:6e:47:9d:9b:85:b2:
         a1:48:53:dc:eb:ba:75:bf:a7:01:56:65:5b:b6:97:28:5e:2b:
         58:54:84:65:1f:eb:e7:ea:df:b3:d7:d2:2e:e8:ae:2b:e7:93:
         34:62:71:90:fa:20:51:e2:bf:e3:fb:69:2c:e5:40:a3:ec:2a:
         67:76:fc:26:e8:14:20:42:b4:2c:c0:24:69:c9:f7:76:89:cc:
         d8:b2:c4:13:b4:d7:ad:aa:8c:4b:f2:1f:4a:fa:c0:74:57:0a:
         37:50:9f:4e:51:85:53:23:23:05:07:2a:69:da:a8:15:48:ca:
         c4:1c:11:15
-----BEGIN CERTIFICATE-----
MIIEGTCCAwGgAwIBAgIEEAAAnTANBgkqhkiG9w0BAQUFADBEMQswCQYDVQQGEwJE
RTEPMA0GA1UECAwGSGVzc2VuMRQwEgYDVQQKDAtwcml2YWN5aWRlYTEOMAwGA1UE
AwwFQ0EwMDEwHhcNMTUwNTIxMTMzNTM1WhcNMTYwNTIwMTMzNTM1WjBHMQswCQYD
VQQGEwJERTEPMA0GA1UECAwGSGVzc2VuMRQwEgYDVQQKDAtwcml2YWN5aWRlYTER
MA8GA1UEAwwIdXNlcmNlcnQwggEiMA0GCSqGSIb3DQEBAQUAA4IBDwAwggEKAoIB
AQDcL9FfKZfUfMNTyDC9S2dwLCRruF7rIXpIElZ8gVxIdbZo6/bymE5QUdF/bHPz
Cqeuvkhe5dbh2Sp8Mm5O/Qj2WlRJI3PDuQcY0e+zrPiK3JSWpJA6jnTf5g03G71b
tyUaVjnab5GqXhx08/l8FAGDEmV2x7v+NluV6XJlg+0+mDBx+ofdozZaMAMuJuBh
0b8CP7YGH0qJKBxcov9OvpTmjODagvGdKTJIMHO0BPZCHr734jIyJzydiS9wPoWa
b1zFCcCMMi9yIsnSlR+2rHJgcreCTWvOW+MA0NIvWMbgEOVRyk07LuZ+q4TWVvGT
NaCTZCaBdS+RtRYGOAvbzC0HAgMBAAGjggEOMIIBCjALBgNVHQ8EBAMCBaAwCQYD
VR0TBAIwADARBglghkgBhvhCAQEEBAMCBkAwMwYJYIZIAYb4QgENBCYWJE9wZW5T
U0wgR2VuZXJhdGVkIFNlcnZlciBDZXJ0aWZpY2F0ZTAdBgNVHQ4EFgQU/BTR8EuN
AJDy9bhxnk6Xw5JUrQswdAYDVR0jBG0wa4AU9KfAzJFGr2TzkfIn+Miyb4qHMnOh
SKRGMEQxCzAJBgNVBAYTAkRFMQ8wDQYDVQQIDAZIZXNzZW4xFDASBgNVBAoMC3By
aXZhY3lpZGVhMQ4wDAYDVQQDDAVDQTAwMYIJAPvI66yDzRIHMBMGA1UdJQQMMAoG
CCsGAQUFBwMBMA0GCSqGSIb3DQEBBQUAA4IBAQCgk3yxs4oiqhYDlbHmuDvk40LY
PXdAgO+e16it15B6Xs1ogiyjH6owYtuVZfAdvDFHJreLbPiU8O30AFbh6zyIfD/A
6PKCvVALD/302MvN6fgGX+2Bst4h2UpGbLHeiY1f53W7m1Wm9U7qtwEWDGFbJqpS
g5HNRVhvzpDv74tUGp8h2Lf5IAPUbhFuR52bhbKhSFPc67p1v6cBVmVbtpcoXitY
VIRlH+vn6t+z19Iu6K4r55M0YnGQ+iBR4r/j+2ks5UCj7Cpndvwm6BQgQrQswCRp
yfd2iczYssQTtNetqoxL8h9K+sB0Vwo3UJ9OUYVTIyMFBypp2qgVSMrEHBEV
-----END CERTIFICATE-----
