Certificate:
    Data:
        Version: 3 (0x2)
        Serial Number: 268435607 (0x10000097)
    Signature Algorithm: sha1WithRSAEncryption
        Issuer: C=DE, ST=Hessen, O=privacyidea, CN=CA001
        Validity
            Not Before: May 21 13:34:13 2015 GMT
            Not After : May 20 13:34:13 2016 GMT
        Subject: C=DE, ST=Hessen, O=privacyidea, CN=requester.localdomain
        Subject Public Key Info:
            Public Key Algorithm: rsaEncryption
                Public-Key: (2048 bit)
                Modulus:
                    00:cd:be:14:4f:fa:ce:01:3f:42:22:1b:1d:9c:af:
                    dd:92:d2:7f:db:6c:b7:3e:39:43:43:6b:13:03:f1:
                    05:f4:07:74:bc:76:69:28:0b:af:19:8e:d7:fc:e3:
                    cd:c6:58:f2:ca:7f:08:6d:53:fc:07:02:44:24:c6:
                    b4:34:4c:8c:04:fe:33:0e:40:e2:20:ba:02:73:5a:
                    f7:f5:4f:63:6e:cc:c6:b6:df:54:1d:37:39:7d:51:
                    36:26:5f:bd:dc:3f:a8:8b:6b:a2:ae:b6:9d:d6:21:
                    e7:df:41:b8:7a:28:2a:68:48:ca:a8:2d:ed:e1:e9:
                    46:5e:5a:72:6d:b4:84:38:87:91:fd:94:11:0b:28:
                    84:c6:c2:2f:2a:fb:01:f9:36:7a:09:75:d1:33:88:
                    3c:73:41:5b:c8:bf:94:89:70:a1:f0:c0:b9:2e:50:
                    53:1e:b1:17:64:69:f4:2d:81:e0:a9:0d:0e:32:e9:
                    ba:55:8a:85:f1:1b:6f:49:79:b4:7f:88:c3:0d:3e:
                    54:88:9b:3d:1f:38:8c:04:f3:ee:6a:63:2b:f5:c6:
                    db:b4:83:aa:c4:78:41:3a:7d:4b:e1:c8:3e:71:ca:
                    1b:61:59:ea:c6:c4:ca:32:5e:c9:e9:bf:12:29:e6:
                    c6:c3:63:fe:a0:55:da:7a:f1:60:98:4d:26:ed:fa:
                    70:2d
                Exponent: 65537 (0x10001)
        X509v3 extensions:
            X509v3 Key Usage: 
                Digital Signature, Key Encipherment
            X509v3 Basic Constraints: 
                CA:FALSE
            Netscape Cert Type: 
                SSL Server
            Netscape Comment: 
                OpenSSL Generated Server Certificate
            X509v3 Subject Key Identifier: 
                53:3F:ED:5D:09:07:B3:65:7B:AB:45:C9:24:5B:09:77:80:0A:96:ED
            X509v3 Authority Key Identifier: 
                keyid:F4:A7:C0:CC:91:46:AF:64:F3:91:F2:27:F8:C8:B2:6F:8A:87:32:73
                DirName:/C=DE/ST=Hessen/O=privacyidea/CN=CA001
                serial:FB:C8:EB:AC:83:CD:12:07

            X509v3 Extended Key Usage: 
                TLS Web Server Authentication
    Signature Algorithm: sha1WithRSAEncryption
         64:fe:b1:f9:ae:a0:4c:2e:1a:fc:07:39:40:a8:31:61:68:e0:
         fe:fc:75:d1:4f:0e:c8:4d:5d:a5:42:79:1d:df:c8:71:8c:bc:
         93:80:1b:4c:51:69:a9:26:77:95:24:1d:90:07:7f:32:64:3b:
         35:3d:dd:8b:e2:e1:5f:18:c0:7b:42:2c:f5:0e:55:a4:54:65:
         0f:28:f9:08:0c:69:d8:81:a2:92:2e:50:dc:01:6e:f0:8a:ff:
         7a:64:11:91:26:ec:f7:f3:94:f9:e1:02:c9:c1:34:89:b1:5b:
         20:e3:27:a4:50:aa:cb:bd:c9:58:d0:f5:e3:ce:7e:7e:6c:af:
         46:58:68:79:80:ca:c2:78:29:3a:d5:35:0e:a1:1c:d5:a1:1d:
         c2:ee:53:07:7a:06:16:58:1c:a6:07:37:e5:c1:09:ee:f3:48:
         98:b8:36:29:01:a9:82:d2:7c:d4:25:b0:fd:8a:44:c6:8f:e3:
         d8:af:c9:7b:23:89:35:43:7d:75:55:71:bc:48:3a:4b:3b:38:
         e1:30:db:f5:f1:a3:90:3a:22:19:35:bf:52:25:43:ed:8d:a4:
         45:cb:ef:86:40:47:4f:d0:9f:7e:82:b8:56:a2:f0:48:22:4b:
         7d:ed:9c:be:43:21:b8:9b:83:89:44:a8:ee:a5:78:7e:75:22:
         8e:8c:fb:9a
-----BEGIN CERTIFICATE-----
MIIEJjCCAw6gAwIBAgIEEAAAlzANBgkqhkiG9w0BAQUFADBEMQswCQYDVQQGEwJE
RTEPMA0GA1UECAwGSGVzc2VuMRQwEgYDVQQKDAtwcml2YWN5aWRlYTEOMAwGA1UE
AwwFQ0EwMDEwHhcNMTUwNTIxMTMzNDEzWhcNMTYwNTIwMTMzNDEzWjBUMQswCQYD
VQQGEwJERTEPMA0GA1UECAwGSGVzc2VuMRQwEgYDVQQKDAtwcml2YWN5aWRlYTEe
MBwGA1UEAwwVcmVxdWVzdGVyLmxvY2FsZG9tYWluMIIBIjANBgkqhkiG9w0BAQEF
AAOCAQ8AMIIBCgKCAQEAzb4UT/rOAT9CIhsdnK/dktJ/22y3PjlDQ2sTA/EF9Ad0
vHZpKAuvGY7X/OPNxljyyn8IbVP8BwJEJMa0NEyMBP4zDkDiILoCc1r39U9jbszG
tt9UHTc5fVE2Jl+93D+oi2uirrad1iHn30G4eigqaEjKqC3t4elGXlpybbSEOIeR
/ZQRCyiExsIvKvsB+TZ6CXXRM4g8c0FbyL+UiXCh8MC5LlBTHrEXZGn0LYHgqQ0O
Mum6VYqF8RtvSXm0f4jDDT5UiJs9HziMBPPuamMr9cbbtIOqxHhBOn1L4cg+ccob
YVnqxsTKMl7J6b8SKebGw2P+oFXaevFgmE0m7fpwLQIDAQABo4IBDjCCAQowCwYD
VR0PBAQDAgWgMAkGA1UdEwQCMAAwEQYJYIZIAYb4QgEBBAQDAgZAMDMGCWCGSAGG
+EIBDQQmFiRPcGVuU1NMIEdlbmVyYXRlZCBTZXJ2ZXIgQ2VydGlmaWNhdGUwHQYD
VR0OBBYEFFM/7V0JB7Nle6tFySRbCXeACpbtMHQGA1UdIwRtMGuAFPSnwMyRRq9k
85HyJ/jIsm+KhzJzoUikRjBEMQswCQYDVQQGEwJERTEPMA0GA1UECAwGSGVzc2Vu
MRQwEgYDVQQKDAtwcml2YWN5aWRlYTEOMAwGA1UEAwwFQ0EwMDGCCQD7yOusg80S
BzATBgNVHSUEDDAKBggrBgEFBQcDATANBgkqhkiG9w0BAQUFAAOCAQEAZP6x+a6g
TC4a/Ac5QKgxYWjg/vx10U8OyE1dpUJ5Hd/IcYy8k4AbTFFpqSZ3lSQdkAd/MmQ7
NT3di+LhXxjAe0Is9Q5VpFRlDyj5CAxp2IGiki5Q3AFu8Ir/emQRkSbs9/OU+eEC
ycE0ibFbIOMnpFCqy73JWND1485+fmyvRlhoeYDKwngpOtU1DqEc1aEdwu5TB3oG
Flgcpgc35cEJ7vNImLg2KQGpgtJ81CWw/YpExo/j2K/JeyOJNUN9dVVxvEg6Szs4
4TDb9fGjkDoiGTW/UiVD7Y2kRcvvhkBHT9CffoK4VqLwSCJLfe2cvkMhuJuDiUSo
7qV4fnUijoz7mg==
-----END CERTIFICATE-----
