Certificate:
    Data:
        Version: 3 (0x2)
        Serial Number: 268435608 (0x10000098)
    Signature Algorithm: sha1WithRSAEncryption
        Issuer: C=DE, ST=Hessen, O=privacyidea, CN=CA001
        Validity
            Not Before: May 21 13:34:13 2015 GMT
            Not After : May 20 13:34:13 2016 GMT
        Subject: C=DE, ST=Hessen, O=privacyidea, CN=usercert
        Subject Public Key Info:
            Public Key Algorithm: rsaEncryption
                Public-Key: (2048 bit)
                Modulus:
                    00:dc:2f:d1:5f:29:97:d4:7c:c3:53:c8:30:bd:4b:
                    67:70:2c:24:6b:b8:5e:eb:21:7a:48:12:56:7c:81:
                    5c:48:75:b6:68:eb:f6:f2:98:4e:50:51:d1:7f:6c:
                    73:f3:0a:a7:ae:be:48:5e:e5:d6:e1:d9:2a:7c:32:
                    6e:4e:fd:08:f6:5a:54:49:23:73:c3:b9:07:18:d1:
                    ef:b3:ac:f8:8a:dc:94:96:a4:90:3a:8e:74:df:e6:
                    0d:37:1b:bd:5b:b7:25:1a:56:39:da:6f:91:aa:5e:
                    1c:74:f3:f9:7c:14:01:83:12:65:76:c7:bb:fe:36:
                    5b:95:e9:72:65:83:ed:3e:98:30:71:fa:87:dd:a3:
                    36:5a:30:03:2e:26:e0:61:d1:bf:02:3f:b6:06:1f:
                    4a:89:28:1c:5c:a2:ff:4e:be:94:e6:8c:e0:da:82:
                    f1:9d:29:32:48:30:73:b4:04:f6:42:1e:be:f7:e2:
                    32:32:27:3c:9d:89:2f:70:3e:85:9a:6f:5c:c5:09:
                    c0:8c:32:2f:72:22:c9:d2:95:1f:b6:ac:72:60:72:
                    b7:82:4d:6b:ce:5b:e3:00:d0:d2:2f:58:c6:e0:10:
                    e5:51:ca:4d:3b:2e:e6:7e:ab:84:d6:56:f1:93:35:
                    a0:93:64:26:81:75:2f:91:b5:16:06:38:0b:db:cc:
                    2d:07
                Exponent: 65537 (0x10001)
        X509v3 extensions:
            X509v3 Key Usage: 
                Digital Signature, Key Encipherment
            X509v3 Basic Constraints: 
                CA:FALSE
            Netscape Cert Type: 
                SSL Server
            Netscape Comment: 
                OpenSSL Generated Server Certificate
            X509v3 Subject Key Identifier: 
                FC:14:D1:F0:4B:8D:00:90:F2:F5:B8:71:9E:4E:97:C3:92:54:AD:0B
            X509v3 Authority Key Identifier: 
                keyid:F4:A7:C0:CC:91:46:AF:64:F3:91:F2:27:F8:C8:B2:6F:8A:87:32:73
                DirName:/C=DE/ST=Hessen/O=privacyidea/CN=CA001
                serial:FB:C8:EB:AC:83:CD:12:07

            X509v3 Extended Key Usage: 
                TLS Web Server Authentication
    Signature Algorithm: sha1WithRSAEncryption
         a5:b0:f6:0a:22:3d:25:83:b4:8f:06:59:dc:26:61:4b:47:f6:
         73:76:82:16:60:2a:37:ed:b0:55:63:f7:84:97:e7:69:f7:a8:
         dd:5c:97:25:ff:e8:97:75:35:47:2d:c7:97:40:96:cb:31:74:
         80:8c:02:d4:c4:c3:2f:6c:2e:ac:01:29:e9:ab:75:a0:14:a0:
         f3:6f:6f:d8:cc:74:d4:00:2f:52:d0:05:ae:89:73:70:b0:1c:
         cd:da:36:08:c4:86:46:36:b2:c8:c3:59:c1:35:3a:13:5d:93:
         f0:f3:fa:4c:ac:79:6b:e5:20:c6:56:43:94:0a:d8:46:f6:9a:
         56:70:29:1d:c8:62:de:f5:58:59:80:f7:5c:df:bb:49:df:3b:
         dd:ca:c8:28:4b:58:3f:e5:a2:8c:66:c4:b2:83:01:f4:c4:7e:
         dc:36:ba:5b:1f:8c:7b:0f:19:33:90:8c:f4:39:5a:65:e1:62:
         07:02:79:42:ae:93:60:df:1f:72:8a:8b:e9:b7:67:f0:a5:a9:
         f0:97:3a:c0:e2:84:ea:79:76:d1:6f:a3:5b:76:88:be:4b:58:
         15:ab:71:5f:39:bd:d0:f2:a8:cc:68:a0:11:b7:fe:6f:a7:69:
         14:30:78:d9:04:53:8a:30:94:e0:0e:cf:86:31:83:d0:56:f7:
         b0:f7:6f:35
-----BEGIN CERTIFICATE-----
MIIEGTCCAwGgAwIBAgIEEAAAmDANBgkqhkiG9w0BAQUFADBEMQswCQYDVQQGEwJE
RTEPMA0GA1UECAwGSGVzc2VuMRQwEgYDVQQKDAtwcml2YWN5aWRlYTEOMAwGA1UE
AwwFQ0EwMDEwHhcNMTUwNTIxMTMzNDEzWhcNMTYwNTIwMTMzNDEzWjBHMQswCQYD
VQQGEwJERTEPMA0GA1UECAwGSGVzc2VuMRQwEgYDVQQKDAtwcml2YWN5aWRlYTER
MA8GA1UEAwwIdXNlcmNlcnQwggEiMA0GCSqGSIb3DQEBAQUAA4IBDwAwggEKAoIB
AQDcL9FfKZfUfMNTyDC9S2dwLCRruF7rIXpIElZ8gVxIdbZo6/bymE5QUdF/bHPz
Cqeuvkhe5dbh2Sp8Mm5O/Qj2WlRJI3PDuQcY0e+zrPiK3JSWpJA6jnTf5g03G71b
tyUaVjnab5GqXhx08/l8FAGDEmV2x7v+NluV6XJlg+0+mDBx+ofdozZaMAMuJuBh
0b8CP7YGH0qJKBxcov9OvpTmjODagvGdKTJIMHO0BPZCHr734jIyJzydiS9wPoWa
b1zFCcCMMi9yIsnSlR+2rHJgcreCTWvOW+MA0NIvWMbgEOVRyk07LuZ+q4TWVvGT
NaCTZCaBdS+RtRYGOAvbzC0HAgMBAAGjggEOMIIBCjALBgNVHQ8EBAMCBaAwCQYD
VR0TBAIwADARBglghkgBhvhCAQEEBAMCBkAwMwYJYIZIAYb4QgENBCYWJE9wZW5T
U0wgR2VuZXJhdGVkIFNlcnZlciBDZXJ0aWZpY2F0ZTAdBgNVHQ4EFgQU/BTR8EuN
AJDy9bhxnk6Xw5JUrQswdAYDVR0jBG0wa4AU9KfAzJFGr2TzkfIn+Miyb4qHMnOh
SKRGMEQxCzAJBgNVBAYTAkRFMQ8wDQYDVQQIDAZIZXNzZW4xFDASBgNVBAoMC3By
aXZhY3lpZGVhMQ4wDAYDVQQDDAVDQTAwMYIJAPvI66yDzRIHMBMGA1UdJQQMMAoG
CCsGAQUFBwMBMA0GCSqGSIb3DQEBBQUAA4IBAQClsPYKIj0lg7SPBlncJmFLR/Zz
doIWYCo37bBVY/eEl+dp96jdXJcl/+iXdTVHLceXQJbLMXSAjALUxMMvbC6sASnp
q3WgFKDzb2/YzHTUAC9S0AWuiXNwsBzN2jYIxIZGNrLIw1nBNToTXZPw8/pMrHlr
5SDGVkOUCthG9ppWcCkdyGLe9VhZgPdc37tJ3zvdysgoS1g/5aKMZsSygwH0xH7c
NrpbH4x7DxkzkIz0OVpl4WIHAnlCrpNg3x9yiovpt2fwpanwlzrA4oTqeXbRb6Nb
doi+S1gVq3FfOb3Q8qjMaKARt/5vp2kUMHjZBFOKMJTgDs+GMYPQVvew9281
-----END CERTIFICATE-----
