Certificate:
    Data:
        Version: 3 (0x2)
        Serial Number: 268435615 (0x1000009f)
    Signature Algorithm: sha1WithRSAEncryption
        Issuer: C=DE, ST=Hessen, O=privacyidea, CN=CA001
        Validity
            Not Before: May 21 13:36:21 2015 GMT
            Not After : May 20 13:36:21 2016 GMT
        Subject: CN=Steve Test/emailAddress=steve@openssl.org
        Subject Public Key Info:
            Public Key Algorithm: rsaEncryption
                Public-Key: (2048 bit)
                Modulus:
                    00:d2:81:89:20:51:48:0f:73:f4:11:32:24:d5:1f:
                    1c:fd:5c:f5:b6:e6:c5:f0:52:81:dc:d2:af:66:4a:
                    7c:93:31:61:5c:af:d1:6d:06:70:03:60:7c:72:0c:
                    88:dd:49:cd:9e:02:6c:d2:5a:d7:53:0f:f3:da:be:
                    69:64:b5:0f:0c:00:e3:b3:50:47:a3:b3:9b:ba:13:
                    50:d6:58:5a:4b:ab:39:e0:11:ca:0a:27:67:03:78:
                    22:66:6d:92:1e:1b:5c:49:ae:e6:6b:d1:8e:3b:9d:
                    06:d3:c6:ac:4d:53:43:10:ab:e8:96:c1:87:82:97:
                    99:8f:20:d3:99:12:37:31:84:e1:8a:ff:29:03:5f:
                    22:90:3e:7f:9b:e0:20:c1:ad:dc:ae:4c:39:1a:31:
                    96:17:02:8c:b2:d9:b4:0d:20:12:9b:7d:86:54:fd:
                    33:fd:c1:2a:62:46:f8:60:96:cf:6e:01:6f:22:df:
                    13:47:e7:97:ec:05:72:23:a3:62:f8:fa:ef:ac:9c:
                    72:f0:37:cb:2f:37:cf:90:a8:27:51:86:c6:d7:78:
                    08:8f:7e:25:a2:15:70:a2:fb:1c:b6:15:5e:a0:97:
                    8b:81:4c:09:28:8a:27:3b:94:bc:71:db:5b:71:37:
                    9a:2b:16:e0:6f:b5:c9:f5:4b:4f:20:ba:65:cf:af:
                    ad:ad
                Exponent: 65537 (0x10001)
        X509v3 extensions:
            X509v3 Key Usage: 
                Digital Signature, Key Encipherment
            X509v3 Basic Constraints: 
                CA:FALSE
            Netscape Cert Type: 
                SSL Server
            Netscape Comment: 
                OpenSSL Generated Server Certificate
            X509v3 Subject Key Identifier: 
                E5:25:6D:3E:AF:0D:DD:3F:4C:F2:45:19:39:D5:14:DB:7E:9C:C0:AD
            X509v3 Authority Key Identifier: 
                keyid:F4:A7:C0:CC:91:46:AF:64:F3:91:F2:27:F8:C8:B2:6F:8A:87:32:73
                DirName:/C=DE/ST=Hessen/O=privacyidea/CN=CA001
                serial:FB:C8:EB:AC:83:CD:12:07

            X509v3 Extended Key Usage: 
                TLS Web Server Authentication
    Signature Algorithm: sha1WithRSAEncryption
         7e:5f:d4:f7:a0:0d:a1:d4:f8:d1:58:bd:6f:3d:61:c3:c9:94:
         49:05:9f:ef:f8:85:2f:f9:d0:34:85:58:21:05:12:66:fa:7d:
         d8:2f:c2:7d:75:94:fc:ba:f0:43:06:64:86:a2:a0:34:44:cb:
         65:b1:5c:43:42:0c:dc:30:0a:8d:73:14:df:ca:e4:98:af:95:
         43:20:b6:14:c1:a1:19:24:85:d7:89:78:0b:65:6f:a3:f3:76:
         49:49:2f:84:bf:45:80:35:4e:75:c3:61:74:e9:87:bd:8a:ee:
         8c:d3:03:8a:40:ab:d7:04:cf:81:16:c0:64:25:cf:6b:5f:33:
         ea:72:88:3a:22:84:b5:61:76:aa:79:03:ff:b1:31:57:3d:45:
         ba:35:1f:24:58:f4:c8:ab:79:9e:a8:74:1a:7a:60:3f:84:d7:
         84:84:e8:0b:22:92:1c:5d:76:05:bb:9e:15:b5:1f:83:b1:99:
         89:4c:a7:ac:3d:af:b4:4b:09:65:52:16:91:bb:38:d3:06:df:
         49:9e:a5:76:46:1e:5e:f2:38:26:87:17:2b:68:40:a3:9c:ec:
         14:3e:bc:f3:5d:c0:d6:b8:75:1c:00:f3:df:36:da:26:22:fe:
         8f:36:0f:49:9b:9a:63:c8:fe:5b:e7:a4:0f:f6:28:99:f4:6b:
         48:b2:c9:41
-----BEGIN CERTIFICATE-----
MIIECTCCAvGgAwIBAgIEEAAAnzANBgkqhkiG9w0BAQUFADBEMQswCQYDVQQGEwJE
RTEPMA0GA1UECAwGSGVzc2VuMRQwEgYDVQQKDAtwcml2YWN5aWRlYTEOMAwGA1UE
AwwFQ0EwMDEwHhcNMTUwNTIxMTMzNjIxWhcNMTYwNTIwMTMzNjIxWjA3MRMwEQYD
VQQDEwpTdGV2ZSBUZXN0MSAwHgYJKoZIhvcNAQkBFhFzdGV2ZUBvcGVuc3NsLm9y
ZzCCASIwDQYJKoZIhvcNAQEBBQADggEPADCCAQoCggEBANKBiSBRSA9z9BEyJNUf
HP1c9bbmxfBSgdzSr2ZKfJMxYVyv0W0GcANgfHIMiN1JzZ4CbNJa11MP89q+aWS1
DwwA47NQR6Ozm7oTUNZYWkurOeARygonZwN4ImZtkh4bXEmu5mvRjjudBtPGrE1T
QxCr6JbBh4KXmY8g05kSNzGE4Yr/KQNfIpA+f5vgIMGt3K5MORoxlhcCjLLZtA0g
Ept9hlT9M/3BKmJG+GCWz24BbyLfE0fnl+wFciOjYvj676yccvA3yy83z5CoJ1GG
xtd4CI9+JaIVcKL7HLYVXqCXi4FMCSiKJzuUvHHbW3E3misW4G+1yfVLTyC6Zc+v
ra0CAwEAAaOCAQ4wggEKMAsGA1UdDwQEAwIFoDAJBgNVHRMEAjAAMBEGCWCGSAGG
+EIBAQQEAwIGQDAzBglghkgBhvhCAQ0EJhYkT3BlblNTTCBHZW5lcmF0ZWQgU2Vy
dmVyIENlcnRpZmljYXRlMB0GA1UdDgQWBBTlJW0+rw3dP0zyRRk51RTbfpzArTB0
BgNVHSMEbTBrgBT0p8DMkUavZPOR8if4yLJviocyc6FIpEYwRDELMAkGA1UEBhMC
REUxDzANBgNVBAgMBkhlc3NlbjEUMBIGA1UECgwLcHJpdmFjeWlkZWExDjAMBgNV
BAMMBUNBMDAxggkA+8jrrIPNEgcwEwYDVR0lBAwwCgYIKwYBBQUHAwEwDQYJKoZI
hvcNAQEFBQADggEBAH5f1PegDaHU+NFYvW89YcPJlEkFn+/4hS/50DSFWCEFEmb6
fdgvwn11lPy68EMGZIaioDREy2WxXENCDNwwCo1zFN/K5JivlUMgthTBoRkkhdeJ
eAtlb6PzdklJL4S/RYA1TnXDYXTph72K7ozTA4pAq9cEz4EWwGQlz2tfM+pyiDoi
hLVhdqp5A/+xMVc9Rbo1HyRY9MireZ6odBp6YD+E14SE6AsikhxddgW7nhW1H4Ox
mYlMp6w9r7RLCWVSFpG7ONMG30mepXZGHl7yOCaHFytoQKOc7BQ+vPNdwNa4dRwA
89822iYi/o82D0mbmmPI/lvnpA/2KJn0a0iyyUE=
-----END CERTIFICATE-----
