Certificate:
    Data:
        Version: 3 (0x2)
        Serial Number: 268435646 (0x100000be)
    Signature Algorithm: sha1WithRSAEncryption
        Issuer: C=DE, ST=Hessen, O=privacyidea, CN=CA001
        Validity
            Not Before: May 21 16:08:58 2015 GMT
            Not After : May 20 16:08:58 2016 GMT
        Subject: CN=dsfgsdfg/emailAddress=meine
        Subject Public Key Info:
            Public Key Algorithm: rsaEncryption
                Public-Key: (2048 bit)
                Modulus:
                    00:be:bf:77:2a:e1:ea:bf:8c:2e:05:60:fa:dd:9f:
                    cb:f2:b2:a1:72:aa:f4:18:1c:85:a9:0b:15:01:e1:
                    ef:f1:94:2b:92:2a:44:81:f2:c4:e6:7b:e9:08:5f:
                    a4:33:ed:5a:51:9e:79:e5:c9:80:ad:b6:14:e8:a1:
                    a8:66:81:14:e2:61:1a:44:aa:ed:20:46:0d:3e:18:
                    54:98:fe:e8:ef:76:e8:d0:76:0a:a7:2e:6d:54:d0:
                    4c:b5:ba:68:e5:af:5a:6f:de:fe:1e:82:e2:c8:f9:
                    d8:b2:7c:cb:62:f9:d0:a4:f5:6d:c3:35:c7:4e:77:
                    b9:33:48:eb:d4:99:68:a1:be:c9:8b:48:4d:6a:27:
                    99:0c:ba:4e:f1:7b:7b:0f:ed:37:1b:0f:62:62:ca:
                    69:e8:b3:b4:b0:89:0a:f7:d3:34:17:d0:4d:bc:47:
                    bf:a7:ca:d7:db:73:c0:20:37:e4:da:c6:ce:32:1a:
                    0f:6e:91:3c:38:4b:1f:62:0e:94:4e:13:c6:df:39:
                    27:53:85:c6:3d:eb:7d:6e:7f:9c:67:a6:a6:75:d5:
                    12:09:1d:5f:1f:31:d1:05:bb:32:d5:b3:01:4c:9a:
                    b3:e2:25:51:72:1d:5b:cd:0f:93:f4:cd:16:ac:1c:
                    30:f4:1c:06:4a:57:c3:81:44:10:a4:6f:22:45:e1:
                    7b:71
                Exponent: 65537 (0x10001)
        X509v3 extensions:
            X509v3 Key Usage: 
                Digital Signature, Key Encipherment
            X509v3 Basic Constraints: 
                CA:FALSE
            Netscape Cert Type: 
                SSL Server
            Netscape Comment: 
                OpenSSL Generated Server Certificate
            X509v3 Subject Key Identifier: 
                07:E1:6A:A5:B3:90:A8:D5:1E:A6:D6:19:34:B2:48:D6:06:16:61:53
            X509v3 Authority Key Identifier: 
                keyid:F4:A7:C0:CC:91:46:AF:64:F3:91:F2:27:F8:C8:B2:6F:8A:87:32:73
                DirName:/C=DE/ST=Hessen/O=privacyidea/CN=CA001
                serial:FB:C8:EB:AC:83:CD:12:07

            X509v3 Extended Key Usage: 
                TLS Web Server Authentication
    Signature Algorithm: sha1WithRSAEncryption
         94:ce:68:f5:d0:a5:a0:82:98:2e:47:fd:42:75:d1:a2:e3:96:
         77:03:4c:39:00:f6:b4:a0:3b:05:d9:70:c5:8f:66:04:48:4b:
         55:61:b2:35:c6:8c:fd:15:df:fa:e6:fc:27:e3:d7:49:09:c6:
         e7:f9:c7:22:46:ee:ff:c8:6d:dd:6f:49:4e:ca:3c:cb:18:88:
         a2:80:d2:69:7c:ba:5b:02:46:92:80:61:cd:1a:72:72:83:2d:
         73:b9:3f:42:38:1e:22:e6:4c:39:1f:51:ae:b3:f5:1a:fe:24:
         c8:68:5b:60:f2:bd:dc:c7:22:bc:8e:35:79:a7:42:cc:ad:40:
         f9:f0:de:29:d5:cd:e3:a7:80:da:fb:ba:94:db:3d:49:aa:8e:
         96:18:b5:46:8b:cb:88:e6:ac:71:8a:ea:f1:0a:17:7e:51:a8:
         87:1b:b5:26:e7:45:2a:be:c0:96:4e:c3:0e:28:c9:6c:d6:cb:
         b0:a5:43:1f:28:a4:92:0c:84:d6:31:95:fe:62:e4:60:9f:d5:
         12:af:d4:7f:41:7d:fd:6f:de:56:b0:a5:70:15:a0:63:68:75:
         1b:6e:a2:44:7d:f1:78:12:f9:40:68:53:e0:66:1e:5e:34:ec:
         8e:36:fb:c6:15:27:b5:50:c0:24:fd:36:37:3e:43:6a:a4:94:
         d2:19:b8:b5
-----BEGIN CERTIFICATE-----
MIID+zCCAuOgAwIBAgIEEAAAvjANBgkqhkiG9w0BAQUFADBEMQswCQYDVQQGEwJE
RTEPMA0GA1UECAwGSGVzc2VuMRQwEgYDVQQKDAtwcml2YWN5aWRlYTEOMAwGA1UE
AwwFQ0EwMDEwHhcNMTUwNTIxMTYwODU4WhcNMTYwNTIwMTYwODU4WjApMREwDwYD
VQQDEwhkc2Znc2RmZzEUMBIGCSqGSIb3DQEJARYFbWVpbmUwggEiMA0GCSqGSIb3
DQEBAQUAA4IBDwAwggEKAoIBAQC+v3cq4eq/jC4FYPrdn8vysqFyqvQYHIWpCxUB
4e/xlCuSKkSB8sTme+kIX6Qz7VpRnnnlyYCtthTooahmgRTiYRpEqu0gRg0+GFSY
/ujvdujQdgqnLm1U0Ey1umjlr1pv3v4eguLI+diyfMti+dCk9W3DNcdOd7kzSOvU
mWihvsmLSE1qJ5kMuk7xe3sP7TcbD2Jiymnos7SwiQr30zQX0E28R7+nytfbc8Ag
N+Taxs4yGg9ukTw4Sx9iDpROE8bfOSdThcY9631uf5xnpqZ11RIJHV8fMdEFuzLV
swFMmrPiJVFyHVvND5P0zRasHDD0HAZKV8OBRBCkbyJF4XtxAgMBAAGjggEOMIIB
CjALBgNVHQ8EBAMCBaAwCQYDVR0TBAIwADARBglghkgBhvhCAQEEBAMCBkAwMwYJ
YIZIAYb4QgENBCYWJE9wZW5TU0wgR2VuZXJhdGVkIFNlcnZlciBDZXJ0aWZpY2F0
ZTAdBgNVHQ4EFgQUB+FqpbOQqNUeptYZNLJI1gYWYVMwdAYDVR0jBG0wa4AU9KfA
zJFGr2TzkfIn+Miyb4qHMnOhSKRGMEQxCzAJBgNVBAYTAkRFMQ8wDQYDVQQIDAZI
ZXNzZW4xFDASBgNVBAoMC3ByaXZhY3lpZGVhMQ4wDAYDVQQDDAVDQTAwMYIJAPvI
66yDzRIHMBMGA1UdJQQMMAoGCCsGAQUFBwMBMA0GCSqGSIb3DQEBBQUAA4IBAQCU
zmj10KWggpguR/1CddGi45Z3A0w5APa0oDsF2XDFj2YESEtVYbI1xoz9Fd/65vwn
49dJCcbn+cciRu7/yG3db0lOyjzLGIiigNJpfLpbAkaSgGHNGnJygy1zuT9COB4i
5kw5H1Gus/Ua/iTIaFtg8r3cxyK8jjV5p0LMrUD58N4p1c3jp4Da+7qU2z1Jqo6W
GLVGi8uI5qxxiurxChd+UaiHG7Um50UqvsCWTsMOKMls1suwpUMfKKSSDITWMZX+
YuRgn9USr9R/QX39b95WsKVwFaBjaHUbbqJEffF4EvlAaFPgZh5eNOyONvvGFSe1
UMAk/TY3PkNqpJTSGbi1
-----END CERTIFICATE-----
