Certificate:
    Data:
        Version: 3 (0x2)
        Serial Number: 268435629 (0x100000ad)
    Signature Algorithm: sha1WithRSAEncryption
        Issuer: C=DE, ST=Hessen, O=privacyidea, CN=CA001
        Validity
            Not Before: May 21 13:53:53 2015 GMT
            Not After : May 20 13:53:53 2016 GMT
        Subject: CN=ich/emailAddress=meine
        Subject Public Key Info:
            Public Key Algorithm: rsaEncryption
                Public-Key: (2048 bit)
                Modulus:
                    00:c3:53:ff:6d:3f:a7:80:bf:0e:01:2d:67:60:ad:
                    93:a7:06:1c:f2:2e:e0:a8:e4:da:39:0e:6b:8d:1e:
                    4f:0f:27:a7:d7:3d:14:36:10:29:73:aa:08:43:8e:
                    07:92:1d:d1:ae:8f:11:fd:00:71:a5:f7:46:08:af:
                    cb:06:fd:9b:49:45:c7:75:57:6b:06:05:7d:73:a0:
                    a2:52:b6:c0:2f:62:ad:fe:59:54:73:bf:73:ad:06:
                    fc:02:86:db:55:63:6c:57:ad:5e:b0:80:6f:7b:03:
                    7c:c7:b8:46:bc:e6:fa:4d:75:da:55:a9:e5:1f:b3:
                    ba:4c:19:5e:48:4a:60:40:6e:c5:79:77:44:c9:cd:
                    c0:a7:c8:21:30:82:d2:f3:d0:a9:10:52:93:42:aa:
                    18:00:b0:5f:76:59:d9:21:89:ec:76:cb:68:2b:af:
                    0c:b4:b5:40:02:4d:99:4a:ff:ef:34:37:f6:31:4f:
                    14:ae:27:0c:43:bb:b4:4c:36:72:e3:da:0a:2e:05:
                    8a:3e:bf:ce:15:7d:20:bc:c7:33:8e:f7:29:c8:7d:
                    eb:28:b2:1d:8b:b1:1d:6f:32:be:a3:2e:5d:b4:d9:
                    d3:1b:6e:73:98:a8:fb:70:2f:89:f3:d9:6f:93:6a:
                    15:8e:ef:a4:2a:c5:da:98:2a:c2:b8:83:cb:4e:6f:
                    05:f3
                Exponent: 65537 (0x10001)
        X509v3 extensions:
            X509v3 Key Usage: 
                Digital Signature, Key Encipherment
            X509v3 Basic Constraints: 
                CA:FALSE
            Netscape Cert Type: 
                SSL Server
            Netscape Comment: 
                OpenSSL Generated Server Certificate
            X509v3 Subject Key Identifier: 
                0A:5C:5C:2F:4D:70:E3:59:E8:E7:C6:61:94:92:D9:D8:E7:A1:15:50
            X509v3 Authority Key Identifier: 
                keyid:F4:A7:C0:CC:91:46:AF:64:F3:91:F2:27:F8:C8:B2:6F:8A:87:32:73
                DirName:/C=DE/ST=Hessen/O=privacyidea/CN=CA001
                serial:FB:C8:EB:AC:83:CD:12:07

            X509v3 Extended Key Usage: 
                TLS Web Server Authentication
    Signature Algorithm: sha1WithRSAEncryption
         be:bd:a0:62:bf:97:98:09:e5:03:c3:15:8c:cc:22:ef:99:1e:
         af:ce:0c:75:e9:fb:3b:d4:bd:98:d6:8c:9f:df:df:f7:3b:3e:
         e7:5d:7f:cb:bc:e1:8a:60:0d:8f:d3:e1:62:82:1d:13:ae:3f:
         5b:65:3a:08:85:89:d2:83:71:62:70:4d:a1:a3:45:66:04:9b:
         8c:40:53:02:63:f7:23:f0:6b:30:61:06:04:5d:fa:e6:6a:e4:
         55:c0:87:09:48:3e:dc:be:55:c8:19:88:bf:ad:60:74:b5:70:
         1e:27:5d:fd:fd:a6:da:aa:99:a4:bf:d5:c2:22:c5:d9:5d:7d:
         2c:b2:ff:9f:fc:bb:b9:88:50:31:48:1c:33:a9:83:64:0c:f5:
         3a:83:c8:da:23:9d:c4:45:84:1f:45:78:2c:bd:86:ab:c8:da:
         48:84:95:75:e0:be:17:c0:b1:3f:e7:7e:a8:b2:6c:25:39:0f:
         8d:69:4e:e1:80:7a:be:e1:1b:b5:16:77:49:a3:04:31:4c:4c:
         61:c0:c4:15:75:b0:e3:ec:c3:55:b3:2e:62:65:32:c0:88:ce:
         8c:5d:46:e4:e7:6d:6d:b2:33:6e:e7:af:44:86:c9:02:ca:6f:
         f3:aa:c5:34:d5:b7:e9:a8:92:1d:e7:11:5b:df:21:89:7b:98:
         0d:d7:0c:c0
-----BEGIN CERTIFICATE-----
MIID9jCCAt6gAwIBAgIEEAAArTANBgkqhkiG9w0BAQUFADBEMQswCQYDVQQGEwJE
RTEPMA0GA1UECAwGSGVzc2VuMRQwEgYDVQQKDAtwcml2YWN5aWRlYTEOMAwGA1UE
AwwFQ0EwMDEwHhcNMTUwNTIxMTM1MzUzWhcNMTYwNTIwMTM1MzUzWjAkMQwwCgYD
VQQDEwNpY2gxFDASBgkqhkiG9w0BCQEWBW1laW5lMIIBIjANBgkqhkiG9w0BAQEF
AAOCAQ8AMIIBCgKCAQEAw1P/bT+ngL8OAS1nYK2TpwYc8i7gqOTaOQ5rjR5PDyen
1z0UNhApc6oIQ44Hkh3Rro8R/QBxpfdGCK/LBv2bSUXHdVdrBgV9c6CiUrbAL2Kt
/llUc79zrQb8AobbVWNsV61esIBvewN8x7hGvOb6TXXaVanlH7O6TBleSEpgQG7F
eXdEyc3Ap8ghMILS89CpEFKTQqoYALBfdlnZIYnsdstoK68MtLVAAk2ZSv/vNDf2
MU8UricMQ7u0TDZy49oKLgWKPr/OFX0gvMczjvcpyH3rKLIdi7EdbzK+oy5dtNnT
G25zmKj7cC+J89lvk2oVju+kKsXamCrCuIPLTm8F8wIDAQABo4IBDjCCAQowCwYD
VR0PBAQDAgWgMAkGA1UdEwQCMAAwEQYJYIZIAYb4QgEBBAQDAgZAMDMGCWCGSAGG
+EIBDQQmFiRPcGVuU1NMIEdlbmVyYXRlZCBTZXJ2ZXIgQ2VydGlmaWNhdGUwHQYD
VR0OBBYEFApcXC9NcONZ6OfGYZSS2djnoRVQMHQGA1UdIwRtMGuAFPSnwMyRRq9k
85HyJ/jIsm+KhzJzoUikRjBEMQswCQYDVQQGEwJERTEPMA0GA1UECAwGSGVzc2Vu
MRQwEgYDVQQKDAtwcml2YWN5aWRlYTEOMAwGA1UEAwwFQ0EwMDGCCQD7yOusg80S
BzATBgNVHSUEDDAKBggrBgEFBQcDATANBgkqhkiG9w0BAQUFAAOCAQEAvr2gYr+X
mAnlA8MVjMwi75ker84Mden7O9S9mNaMn9/f9zs+511/y7zhimANj9PhYoIdE64/
W2U6CIWJ0oNxYnBNoaNFZgSbjEBTAmP3I/BrMGEGBF365mrkVcCHCUg+3L5VyBmI
v61gdLVwHidd/f2m2qqZpL/VwiLF2V19LLL/n/y7uYhQMUgcM6mDZAz1OoPI2iOd
xEWEH0V4LL2Gq8jaSISVdeC+F8CxP+d+qLJsJTkPjWlO4YB6vuEbtRZ3SaMEMUxM
YcDEFXWw4+zDVbMuYmUywIjOjF1G5OdtbbIzbuevRIbJAspv86rFNNW36aiSHecR
W98hiXuYDdcMwA==
-----END CERTIFICATE-----
