Certificate:
    Data:
        Version: 3 (0x2)
        Serial Number: 268435641 (0x100000b9)
    Signature Algorithm: sha1WithRSAEncryption
        Issuer: C=DE, ST=Hessen, O=privacyidea, CN=CA001
        Validity
            Not Before: May 21 14:32:08 2015 GMT
            Not After : May 20 14:32:08 2016 GMT
        Subject: CN=tom/emailAddress=meine
        Subject Public Key Info:
            Public Key Algorithm: rsaEncryption
                Public-Key: (2048 bit)
                Modulus:
                    00:c0:44:a6:2b:e1:10:cb:6f:cd:8b:7c:2a:52:c2:
                    71:73:5b:44:2a:05:e4:d8:ed:2e:39:d6:74:cf:f9:
                    7a:57:0d:70:e6:ca:73:3d:2c:64:d2:e0:56:1a:02:
                    2f:80:86:ab:92:44:89:4c:bb:f7:89:3f:c3:72:49:
                    85:65:00:09:40:7d:36:7d:e0:a8:e2:2a:00:d0:90:
                    d5:04:a8:29:d1:79:c5:4e:80:bb:be:f2:9c:33:47:
                    6f:b1:63:ec:bd:be:9d:1e:3e:3c:08:48:96:3a:ef:
                    84:82:5e:ce:f9:8f:0f:c0:35:aa:ec:7e:f6:24:2d:
                    81:09:be:fa:ec:46:ca:69:b0:ae:17:f1:90:ce:33:
                    3d:44:ec:27:e3:d0:ca:f8:9c:35:56:28:c6:d0:8b:
                    54:44:0a:11:b4:56:06:3f:3c:b5:78:d1:54:c2:85:
                    ad:df:c5:c6:5b:f7:91:2d:22:3d:8c:8e:4d:9c:5b:
                    66:db:62:1e:39:a8:26:ff:5e:db:55:9e:d5:83:17:
                    f4:df:16:12:3c:ae:74:92:9a:ed:d3:2f:e8:9d:cd:
                    4e:ca:9c:90:9f:d8:77:6f:d5:a5:63:77:d4:1b:4a:
                    fc:14:90:a4:51:42:55:18:6b:5e:03:c5:a3:93:41:
                    78:6c:3e:5a:77:75:28:fc:bf:aa:d0:b9:d9:c5:35:
                    64:5f
                Exponent: 65537 (0x10001)
        X509v3 extensions:
            X509v3 Key Usage: 
                Digital Signature, Key Encipherment
            X509v3 Basic Constraints: 
                CA:FALSE
            Netscape Cert Type: 
                SSL Server
            Netscape Comment: 
                OpenSSL Generated Server Certificate
            X509v3 Subject Key Identifier: 
                DD:B8:77:67:1B:20:B2:2B:4B:DA:DF:5E:44:13:08:F9:F8:8E:3F:D8
            X509v3 Authority Key Identifier: 
                keyid:F4:A7:C0:CC:91:46:AF:64:F3:91:F2:27:F8:C8:B2:6F:8A:87:32:73
                DirName:/C=DE/ST=Hessen/O=privacyidea/CN=CA001
                serial:FB:C8:EB:AC:83:CD:12:07

            X509v3 Extended Key Usage: 
                TLS Web Server Authentication
    Signature Algorithm: sha1WithRSAEncryption
         68:5a:47:71:61:22:3e:15:3d:09:27:7a:d7:c7:44:14:2d:be:
         30:9b:e9:b1:d6:96:b0:eb:04:9d:31:48:87:f0:92:1c:44:85:
         f2:9b:3d:14:62:ae:71:58:39:dd:04:4c:6f:9f:25:e9:7d:e3:
         ee:d5:3b:da:ae:b6:cd:41:0a:c9:d0:7e:73:a2:7e:68:d2:1f:
         f3:cf:9a:0f:90:de:9f:d5:eb:84:25:93:26:2c:6a:95:99:ca:
         ed:b4:2a:10:a0:ae:8d:51:94:5e:61:93:6e:96:6d:ce:bb:cc:
         d4:c0:cc:17:fc:a3:96:b0:fd:8d:10:95:14:4a:2b:4f:c8:b4:
         ea:f3:ec:8d:88:9a:06:a8:e0:5f:d2:cb:f0:dd:ca:88:4c:67:
         86:4a:04:ae:ca:bb:52:d3:3f:fc:d7:d5:09:6b:af:1d:f6:78:
         7a:b4:21:03:99:eb:95:d1:04:cd:01:ee:72:98:cf:20:6d:88:
         0d:bc:56:a0:7b:3b:02:2f:87:24:08:79:47:72:d1:5e:c3:8b:
         7d:4d:76:6c:db:45:cc:3d:66:65:ee:9d:f6:96:d7:2f:e8:bf:
         8e:af:89:ea:dc:99:f6:c4:0f:c3:00:80:87:69:3e:e8:54:7c:
         da:c7:1b:72:3a:1c:4d:c7:a5:15:05:bf:75:61:de:fe:48:74:
         8a:8d:ca:d0
-----BEGIN CERTIFICATE-----
MIID9jCCAt6gAwIBAgIEEAAAuTANBgkqhkiG9w0BAQUFADBEMQswCQYDVQQGEwJE
RTEPMA0GA1UECAwGSGVzc2VuMRQwEgYDVQQKDAtwcml2YWN5aWRlYTEOMAwGA1UE
AwwFQ0EwMDEwHhcNMTUwNTIxMTQzMjA4WhcNMTYwNTIwMTQzMjA4WjAkMQwwCgYD
VQQDEwN0b20xFDASBgkqhkiG9w0BCQEWBW1laW5lMIIBIjANBgkqhkiG9w0BAQEF
AAOCAQ8AMIIBCgKCAQEAwESmK+EQy2/Ni3wqUsJxc1tEKgXk2O0uOdZ0z/l6Vw1w
5spzPSxk0uBWGgIvgIarkkSJTLv3iT/DckmFZQAJQH02feCo4ioA0JDVBKgp0XnF
ToC7vvKcM0dvsWPsvb6dHj48CEiWOu+Egl7O+Y8PwDWq7H72JC2BCb767EbKabCu
F/GQzjM9ROwn49DK+Jw1VijG0ItURAoRtFYGPzy1eNFUwoWt38XGW/eRLSI9jI5N
nFtm22IeOagm/17bVZ7Vgxf03xYSPK50kprt0y/onc1OypyQn9h3b9WlY3fUG0r8
FJCkUUJVGGteA8Wjk0F4bD5ad3Uo/L+q0LnZxTVkXwIDAQABo4IBDjCCAQowCwYD
VR0PBAQDAgWgMAkGA1UdEwQCMAAwEQYJYIZIAYb4QgEBBAQDAgZAMDMGCWCGSAGG
+EIBDQQmFiRPcGVuU1NMIEdlbmVyYXRlZCBTZXJ2ZXIgQ2VydGlmaWNhdGUwHQYD
VR0OBBYEFN24d2cbILIrS9rfXkQTCPn4jj/YMHQGA1UdIwRtMGuAFPSnwMyRRq9k
85HyJ/jIsm+KhzJzoUikRjBEMQswCQYDVQQGEwJERTEPMA0GA1UECAwGSGVzc2Vu
MRQwEgYDVQQKDAtwcml2YWN5aWRlYTEOMAwGA1UEAwwFQ0EwMDGCCQD7yOusg80S
BzATBgNVHSUEDDAKBggrBgEFBQcDATANBgkqhkiG9w0BAQUFAAOCAQEAaFpHcWEi
PhU9CSd618dEFC2+MJvpsdaWsOsEnTFIh/CSHESF8ps9FGKucVg53QRMb58l6X3j
7tU72q62zUEKydB+c6J+aNIf88+aD5Den9XrhCWTJixqlZnK7bQqEKCujVGUXmGT
bpZtzrvM1MDMF/yjlrD9jRCVFEorT8i06vPsjYiaBqjgX9LL8N3KiExnhkoErsq7
UtM//NfVCWuvHfZ4erQhA5nrldEEzQHucpjPIG2IDbxWoHs7Ai+HJAh5R3LRXsOL
fU12bNtFzD1mZe6d9pbXL+i/jq+J6tyZ9sQPwwCAh2k+6FR82scbcjocTcelFQW/
dWHe/kh0io3K0A==
-----END CERTIFICATE-----
