Certificate:
    Data:
        Version: 3 (0x2)
        Serial Number: 268435626 (0x100000aa)
    Signature Algorithm: sha1WithRSAEncryption
        Issuer: C=DE, ST=Hessen, O=privacyidea, CN=CA001
        Validity
            Not Before: May 21 13:42:00 2015 GMT
            Not After : May 20 13:42:00 2016 GMT
        Subject: CN=Steve Test/emailAddress=steve@openssl.org
        Subject Public Key Info:
            Public Key Algorithm: rsaEncryption
                Public-Key: (2048 bit)
                Modulus:
                    00:d2:81:89:20:51:48:0f:73:f4:11:32:24:d5:1f:
                    1c:fd:5c:f5:b6:e6:c5:f0:52:81:dc:d2:af:66:4a:
                    7c:93:31:61:5c:af:d1:6d:06:70:03:60:7c:72:0c:
                    88:dd:49:cd:9e:02:6c:d2:5a:d7:53:0f:f3:da:be:
                    69:64:b5:0f:0c:00:e3:b3:50:47:a3:b3:9b:ba:13:
                    50:d6:58:5a:4b:ab:39:e0:11:ca:0a:27:67:03:78:
                    22:66:6d:92:1e:1b:5c:49:ae:e6:6b:d1:8e:3b:9d:
                    06:d3:c6:ac:4d:53:43:10:ab:e8:96:c1:87:82:97:
                    99:8f:20:d3:99:12:37:31:84:e1:8a:ff:29:03:5f:
                    22:90:3e:7f:9b:e0:20:c1:ad:dc:ae:4c:39:1a:31:
                    96:17:02:8c:b2:d9:b4:0d:20:12:9b:7d:86:54:fd:
                    33:fd:c1:2a:62:46:f8:60:96:cf:6e:01:6f:22:df:
                    13:47:e7:97:ec:05:72:23:a3:62:f8:fa:ef:ac:9c:
                    72:f0:37:cb:2f:37:cf:90:a8:27:51:86:c6:d7:78:
                    08:8f:7e:25:a2:15:70:a2:fb:1c:b6:15:5e:a0:97:
                    8b:81:4c:09:28:8a:27:3b:94:bc:71:db:5b:71:37:
                    9a:2b:16:e0:6f:b5:c9:f5:4b:4f:20:ba:65:cf:af:
                    ad:ad
                Exponent: 65537 (0x10001)
        X509v3 extensions:
            X509v3 Key Usage: 
                Digital Signature, Key Encipherment
            X509v3 Basic Constraints: 
                CA:FALSE
            Netscape Cert Type: 
                SSL Server
            Netscape Comment: 
                OpenSSL Generated Server Certificate
            X509v3 Subject Key Identifier: 
                E5:25:6D:3E:AF:0D:DD:3F:4C:F2:45:19:39:D5:14:DB:7E:9C:C0:AD
            X509v3 Authority Key Identifier: 
                keyid:F4:A7:C0:CC:91:46:AF:64:F3:91:F2:27:F8:C8:B2:6F:8A:87:32:73
                DirName:/C=DE/ST=Hessen/O=privacyidea/CN=CA001
                serial:FB:C8:EB:AC:83:CD:12:07

            X509v3 Extended Key Usage: 
                TLS Web Server Authentication
    Signature Algorithm: sha1WithRSAEncryption
         2f:06:32:9e:45:d6:2d:92:95:b8:63:b6:a3:ac:0a:3a:97:7b:
         3b:fb:b4:3b:b7:56:5c:8a:81:8e:ad:87:a5:ce:ea:74:45:18:
         36:e1:3b:39:54:da:d7:e3:8b:58:a7:d8:5c:8a:58:e9:c8:48:
         c2:0c:11:a2:5d:d3:9c:10:85:b0:1a:2f:89:61:9a:97:95:57:
         0b:2b:e1:84:01:51:c9:be:a3:72:ec:0a:5f:86:a1:54:82:e4:
         eb:f4:72:9c:80:47:4c:dc:84:14:34:61:6f:69:6a:0d:e4:ff:
         05:c4:29:61:81:e5:1d:52:cc:70:aa:aa:ed:0b:3a:35:80:66:
         ce:29:d6:f2:05:aa:a2:23:4b:c5:e7:11:8f:46:5c:df:aa:c4:
         2e:bf:58:e2:ad:85:c4:42:cd:53:d5:49:0b:81:6d:3d:c7:11:
         b6:7c:c9:58:fb:52:eb:79:9a:44:af:33:0f:73:b9:dc:36:1e:
         12:fa:5c:b3:a3:90:50:e5:3c:95:ff:85:87:ad:6a:4d:76:1d:
         cd:e6:6e:ff:63:c0:d9:17:80:40:e0:39:5b:f8:4c:6f:d3:db:
         60:33:73:72:af:73:d8:3d:72:3f:1f:2c:b3:2f:14:29:7d:99:
         b1:78:20:c7:75:45:ab:e8:ad:f1:a1:f0:2a:b9:4b:d6:bb:43:
         fc:94:97:57
-----BEGIN CERTIFICATE-----
MIIECTCCAvGgAwIBAgIEEAAAqjANBgkqhkiG9w0BAQUFADBEMQswCQYDVQQGEwJE
RTEPMA0GA1UECAwGSGVzc2VuMRQwEgYDVQQKDAtwcml2YWN5aWRlYTEOMAwGA1UE
AwwFQ0EwMDEwHhcNMTUwNTIxMTM0MjAwWhcNMTYwNTIwMTM0MjAwWjA3MRMwEQYD
VQQDEwpTdGV2ZSBUZXN0MSAwHgYJKoZIhvcNAQkBFhFzdGV2ZUBvcGVuc3NsLm9y
ZzCCASIwDQYJKoZIhvcNAQEBBQADggEPADCCAQoCggEBANKBiSBRSA9z9BEyJNUf
HP1c9bbmxfBSgdzSr2ZKfJMxYVyv0W0GcANgfHIMiN1JzZ4CbNJa11MP89q+aWS1
DwwA47NQR6Ozm7oTUNZYWkurOeARygonZwN4ImZtkh4bXEmu5mvRjjudBtPGrE1T
QxCr6JbBh4KXmY8g05kSNzGE4Yr/KQNfIpA+f5vgIMGt3K5MORoxlhcCjLLZtA0g
Ept9hlT9M/3BKmJG+GCWz24BbyLfE0fnl+wFciOjYvj676yccvA3yy83z5CoJ1GG
xtd4CI9+JaIVcKL7HLYVXqCXi4FMCSiKJzuUvHHbW3E3misW4G+1yfVLTyC6Zc+v
ra0CAwEAAaOCAQ4wggEKMAsGA1UdDwQEAwIFoDAJBgNVHRMEAjAAMBEGCWCGSAGG
+EIBAQQEAwIGQDAzBglghkgBhvhCAQ0EJhYkT3BlblNTTCBHZW5lcmF0ZWQgU2Vy
dmVyIENlcnRpZmljYXRlMB0GA1UdDgQWBBTlJW0+rw3dP0zyRRk51RTbfpzArTB0
BgNVHSMEbTBrgBT0p8DMkUavZPOR8if4yLJviocyc6FIpEYwRDELMAkGA1UEBhMC
REUxDzANBgNVBAgMBkhlc3NlbjEUMBIGA1UECgwLcHJpdmFjeWlkZWExDjAMBgNV
BAMMBUNBMDAxggkA+8jrrIPNEgcwEwYDVR0lBAwwCgYIKwYBBQUHAwEwDQYJKoZI
hvcNAQEFBQADggEBAC8GMp5F1i2SlbhjtqOsCjqXezv7tDu3VlyKgY6th6XO6nRF
GDbhOzlU2tfji1in2FyKWOnISMIMEaJd05wQhbAaL4lhmpeVVwsr4YQBUcm+o3Ls
Cl+GoVSC5Ov0cpyAR0zchBQ0YW9pag3k/wXEKWGB5R1SzHCqqu0LOjWAZs4p1vIF
qqIjS8XnEY9GXN+qxC6/WOKthcRCzVPVSQuBbT3HEbZ8yVj7Uut5mkSvMw9zudw2
HhL6XLOjkFDlPJX/hYetak12Hc3mbv9jwNkXgEDgOVv4TG/T22Azc3Kvc9g9cj8f
LLMvFCl9mbF4IMd1RavorfGh8Cq5S9a7Q/yUl1c=
-----END CERTIFICATE-----
