Certificate:
    Data:
        Version: 3 (0x2)
        Serial Number: 268435609 (0x10000099)
    Signature Algorithm: sha1WithRSAEncryption
        Issuer: C=DE, ST=Hessen, O=privacyidea, CN=CA001
        Validity
            Not Before: May 21 13:34:13 2015 GMT
            Not After : May 20 13:34:13 2016 GMT
        Subject: CN=Steve Test/emailAddress=steve@openssl.org
        Subject Public Key Info:
            Public Key Algorithm: rsaEncryption
                Public-Key: (2048 bit)
                Modulus:
                    00:d2:81:89:20:51:48:0f:73:f4:11:32:24:d5:1f:
                    1c:fd:5c:f5:b6:e6:c5:f0:52:81:dc:d2:af:66:4a:
                    7c:93:31:61:5c:af:d1:6d:06:70:03:60:7c:72:0c:
                    88:dd:49:cd:9e:02:6c:d2:5a:d7:53:0f:f3:da:be:
                    69:64:b5:0f:0c:00:e3:b3:50:47:a3:b3:9b:ba:13:
                    50:d6:58:5a:4b:ab:39:e0:11:ca:0a:27:67:03:78:
                    22:66:6d:92:1e:1b:5c:49:ae:e6:6b:d1:8e:3b:9d:
                    06:d3:c6:ac:4d:53:43:10:ab:e8:96:c1:87:82:97:
                    99:8f:20:d3:99:12:37:31:84:e1:8a:ff:29:03:5f:
                    22:90:3e:7f:9b:e0:20:c1:ad:dc:ae:4c:39:1a:31:
                    96:17:02:8c:b2:d9:b4:0d:20:12:9b:7d:86:54:fd:
                    33:fd:c1:2a:62:46:f8:60:96:cf:6e:01:6f:22:df:
                    13:47:e7:97:ec:05:72:23:a3:62:f8:fa:ef:ac:9c:
                    72:f0:37:cb:2f:37:cf:90:a8:27:51:86:c6:d7:78:
                    08:8f:7e:25:a2:15:70:a2:fb:1c:b6:15:5e:a0:97:
                    8b:81:4c:09:28:8a:27:3b:94:bc:71:db:5b:71:37:
                    9a:2b:16:e0:6f:b5:c9:f5:4b:4f:20:ba:65:cf:af:
                    ad:ad
                Exponent: 65537 (0x10001)
        X509v3 extensions:
            X509v3 Key Usage: 
                Digital Signature, Key Encipherment
            X509v3 Basic Constraints: 
                CA:FALSE
            Netscape Cert Type: 
                SSL Server
            Netscape Comment: 
                OpenSSL Generated Server Certificate
            X509v3 Subject Key Identifier: 
                E5:25:6D:3E:AF:0D:DD:3F:4C:F2:45:19:39:D5:14:DB:7E:9C:C0:AD
            X509v3 Authority Key Identifier: 
                keyid:F4:A7:C0:CC:91:46:AF:64:F3:91:F2:27:F8:C8:B2:6F:8A:87:32:73
                DirName:/C=DE/ST=Hessen/O=privacyidea/CN=CA001
                serial:FB:C8:EB:AC:83:CD:12:07

            X509v3 Extended Key Usage: 
                TLS Web Server Authentication
    Signature Algorithm: sha1WithRSAEncryption
         7d:f7:db:d5:43:b1:b3:fc:06:e0:72:92:c4:f3:3e:7b:9e:0e:
         b5:4c:cc:e6:08:d5:70:a7:e8:d9:be:5a:a6:1c:85:66:8f:bd:
         83:f6:5f:62:db:67:4d:61:16:2b:ba:b4:e5:e3:34:2d:e9:0d:
         a2:35:88:b5:39:50:a3:69:d5:8b:98:e7:ef:fe:11:0c:b9:7f:
         0f:ae:64:fc:a2:e3:31:2c:b8:4c:ec:00:d2:de:f8:7c:71:17:
         0c:b7:1a:2c:0b:4c:b1:b2:ae:c3:df:3a:83:4d:e2:65:ed:a0:
         9e:88:83:f5:85:ae:7c:e4:14:8c:be:94:c6:06:2f:85:72:ee:
         e8:52:47:18:c4:a9:f9:55:44:71:f1:36:16:c3:b9:a4:fa:87:
         12:f6:20:15:b2:41:24:3d:30:43:e4:ac:7c:b0:56:5e:7b:dd:
         39:13:a1:47:ef:a8:67:3d:04:5e:54:5e:9a:ec:37:2d:21:ad:
         cc:24:de:74:8d:98:50:13:65:48:20:1f:18:06:f0:1f:30:e7:
         cc:18:4c:18:73:d1:bb:a2:77:a3:a9:04:14:18:0f:64:5a:43:
         44:87:3d:b0:29:e9:36:5b:e3:66:cf:66:79:90:7d:ca:1e:00:
         0c:09:f1:a0:37:89:09:2b:52:0d:1b:89:92:78:3d:6f:4a:d5:
         d5:ba:3e:90
-----BEGIN CERTIFICATE-----
MIIECTCCAvGgAwIBAgIEEAAAmTANBgkqhkiG9w0BAQUFADBEMQswCQYDVQQGEwJE
RTEPMA0GA1UECAwGSGVzc2VuMRQwEgYDVQQKDAtwcml2YWN5aWRlYTEOMAwGA1UE
AwwFQ0EwMDEwHhcNMTUwNTIxMTMzNDEzWhcNMTYwNTIwMTMzNDEzWjA3MRMwEQYD
VQQDEwpTdGV2ZSBUZXN0MSAwHgYJKoZIhvcNAQkBFhFzdGV2ZUBvcGVuc3NsLm9y
ZzCCASIwDQYJKoZIhvcNAQEBBQADggEPADCCAQoCggEBANKBiSBRSA9z9BEyJNUf
HP1c9bbmxfBSgdzSr2ZKfJMxYVyv0W0GcANgfHIMiN1JzZ4CbNJa11MP89q+aWS1
DwwA47NQR6Ozm7oTUNZYWkurOeARygonZwN4ImZtkh4bXEmu5mvRjjudBtPGrE1T
QxCr6JbBh4KXmY8g05kSNzGE4Yr/KQNfIpA+f5vgIMGt3K5MORoxlhcCjLLZtA0g
Ept9hlT9M/3BKmJG+GCWz24BbyLfE0fnl+wFciOjYvj676yccvA3yy83z5CoJ1GG
xtd4CI9+JaIVcKL7HLYVXqCXi4FMCSiKJzuUvHHbW3E3misW4G+1yfVLTyC6Zc+v
ra0CAwEAAaOCAQ4wggEKMAsGA1UdDwQEAwIFoDAJBgNVHRMEAjAAMBEGCWCGSAGG
+EIBAQQEAwIGQDAzBglghkgBhvhCAQ0EJhYkT3BlblNTTCBHZW5lcmF0ZWQgU2Vy
dmVyIENlcnRpZmljYXRlMB0GA1UdDgQWBBTlJW0+rw3dP0zyRRk51RTbfpzArTB0
BgNVHSMEbTBrgBT0p8DMkUavZPOR8if4yLJviocyc6FIpEYwRDELMAkGA1UEBhMC
REUxDzANBgNVBAgMBkhlc3NlbjEUMBIGA1UECgwLcHJpdmFjeWlkZWExDjAMBgNV
BAMMBUNBMDAxggkA+8jrrIPNEgcwEwYDVR0lBAwwCgYIKwYBBQUHAwEwDQYJKoZI
hvcNAQEFBQADggEBAH3329VDsbP8BuByksTzPnueDrVMzOYI1XCn6Nm+WqYchWaP
vYP2X2LbZ01hFiu6tOXjNC3pDaI1iLU5UKNp1YuY5+/+EQy5fw+uZPyi4zEsuEzs
ANLe+HxxFwy3GiwLTLGyrsPfOoNN4mXtoJ6Ig/WFrnzkFIy+lMYGL4Vy7uhSRxjE
qflVRHHxNhbDuaT6hxL2IBWyQSQ9MEPkrHywVl573TkToUfvqGc9BF5UXprsNy0h
rcwk3nSNmFATZUggHxgG8B8w58wYTBhz0buid6OpBBQYD2RaQ0SHPbAp6TZb42bP
ZnmQfcoeAAwJ8aA3iQkrUg0biZJ4PW9K1dW6PpA=
-----END CERTIFICATE-----
