Certificate:
    Data:
        Version: 3 (0x2)
        Serial Number: 268435628 (0x100000ac)
    Signature Algorithm: sha1WithRSAEncryption
        Issuer: C=DE, ST=Hessen, O=privacyidea, CN=CA001
        Validity
            Not Before: May 21 13:50:12 2015 GMT
            Not After : May 20 13:50:12 2016 GMT
        Subject: CN=ich/emailAddress=meine
        Subject Public Key Info:
            Public Key Algorithm: rsaEncryption
                Public-Key: (2048 bit)
                Modulus:
                    00:be:18:6b:0a:e6:42:ce:83:79:e4:5b:4e:ab:6c:
                    9e:d5:25:50:95:f9:91:cc:4b:b9:c8:d0:82:c5:cb:
                    bb:97:55:cd:44:cc:33:c9:a4:31:d7:7c:fb:a2:cd:
                    9a:fe:c0:2d:9c:c6:93:1c:5d:37:23:09:61:a7:fd:
                    80:cd:28:94:8e:6f:47:be:53:7e:4a:27:ea:1e:46:
                    17:9d:e6:71:4d:52:90:23:e7:1c:0a:8a:5c:ea:1f:
                    12:a8:64:35:40:3e:83:30:8d:d0:f6:3a:8e:f8:8f:
                    f3:35:4f:ef:c1:0e:85:25:e4:f4:f3:e8:3b:4b:fb:
                    cc:41:be:fe:09:93:a3:21:5d:f3:7c:2f:9a:55:ed:
                    84:20:53:fa:b1:c9:67:e9:b4:ea:62:f4:de:3d:5b:
                    94:27:98:fe:2b:9b:8e:63:ac:c0:17:a1:93:96:ec:
                    3c:b0:d7:8a:8d:52:d8:e8:6d:9c:c1:58:0b:70:fa:
                    9f:10:40:11:a9:d5:30:21:e7:39:e9:13:a1:b6:09:
                    1f:eb:1b:bf:9c:cc:08:1c:28:27:d2:1e:fa:1d:b5:
                    51:20:33:2d:ed:48:35:24:19:0a:ba:dc:62:d6:a4:
                    4a:8f:63:82:28:61:27:87:36:c6:82:5f:e0:e4:ad:
                    34:f3:a4:f9:4a:02:8e:2b:2e:88:9b:c1:3c:9e:ef:
                    aa:c1
                Exponent: 65537 (0x10001)
        X509v3 extensions:
            X509v3 Key Usage: 
                Digital Signature, Key Encipherment
            X509v3 Basic Constraints: 
                CA:FALSE
            Netscape Cert Type: 
                SSL Server
            Netscape Comment: 
                OpenSSL Generated Server Certificate
            X509v3 Subject Key Identifier: 
                2F:4A:34:61:6F:8B:92:0E:B1:CE:60:04:8A:6E:7B:8D:70:8C:BD:D1
            X509v3 Authority Key Identifier: 
                keyid:F4:A7:C0:CC:91:46:AF:64:F3:91:F2:27:F8:C8:B2:6F:8A:87:32:73
                DirName:/C=DE/ST=Hessen/O=privacyidea/CN=CA001
                serial:FB:C8:EB:AC:83:CD:12:07

            X509v3 Extended Key Usage: 
                TLS Web Server Authentication
    Signature Algorithm: sha1WithRSAEncryption
         8f:25:67:66:94:5f:69:18:0a:67:1f:d1:8d:54:3f:75:86:2e:
         97:e5:ad:d7:f3:a6:47:73:18:99:f7:42:db:5d:d7:bb:b6:31:
         87:ad:08:0b:89:5f:56:3f:23:de:25:79:f7:8c:2a:4f:99:0c:
         b1:4a:37:36:87:e6:f4:ea:38:d2:08:18:ec:94:cf:e6:eb:e9:
         6c:83:48:68:87:45:ea:e2:48:e6:f6:ce:f8:8e:40:14:d0:7d:
         64:35:ac:16:ab:b4:ce:b9:a4:33:45:97:d8:10:77:db:85:02:
         c3:5f:32:ef:2f:6e:52:ef:7d:60:10:95:9a:a6:be:65:d2:af:
         d1:f0:33:d7:71:48:37:b6:18:d4:47:1a:66:79:16:54:82:9d:
         39:10:5b:07:07:8f:a1:e7:0b:9a:fc:7b:0f:d8:00:f6:67:04:
         78:4e:17:72:d9:37:57:8f:32:38:0b:93:eb:77:b9:4e:6f:9b:
         eb:03:82:06:38:26:7f:66:02:d3:94:9e:0f:90:2c:79:57:01:
         68:e8:c0:3e:6d:33:d6:75:3d:1b:fd:13:36:2e:9a:79:ef:1e:
         51:5a:e9:1e:7e:a4:89:42:b0:d3:97:29:de:24:ac:0f:c3:25:
         3d:47:2f:15:c4:3f:ca:da:00:5b:69:06:d6:39:bf:02:e6:56:
         65:fd:3c:71
-----BEGIN CERTIFICATE-----
MIID9jCCAt6gAwIBAgIEEAAArDANBgkqhkiG9w0BAQUFADBEMQswCQYDVQQGEwJE
RTEPMA0GA1UECAwGSGVzc2VuMRQwEgYDVQQKDAtwcml2YWN5aWRlYTEOMAwGA1UE
AwwFQ0EwMDEwHhcNMTUwNTIxMTM1MDEyWhcNMTYwNTIwMTM1MDEyWjAkMQwwCgYD
VQQDEwNpY2gxFDASBgkqhkiG9w0BCQEWBW1laW5lMIIBIjANBgkqhkiG9w0BAQEF
AAOCAQ8AMIIBCgKCAQEAvhhrCuZCzoN55FtOq2ye1SVQlfmRzEu5yNCCxcu7l1XN
RMwzyaQx13z7os2a/sAtnMaTHF03Iwlhp/2AzSiUjm9HvlN+SifqHkYXneZxTVKQ
I+ccCopc6h8SqGQ1QD6DMI3Q9jqO+I/zNU/vwQ6FJeT08+g7S/vMQb7+CZOjIV3z
fC+aVe2EIFP6scln6bTqYvTePVuUJ5j+K5uOY6zAF6GTluw8sNeKjVLY6G2cwVgL
cPqfEEARqdUwIec56ROhtgkf6xu/nMwIHCgn0h76HbVRIDMt7Ug1JBkKutxi1qRK
j2OCKGEnhzbGgl/g5K0086T5SgKOKy6Im8E8nu+qwQIDAQABo4IBDjCCAQowCwYD
VR0PBAQDAgWgMAkGA1UdEwQCMAAwEQYJYIZIAYb4QgEBBAQDAgZAMDMGCWCGSAGG
+EIBDQQmFiRPcGVuU1NMIEdlbmVyYXRlZCBTZXJ2ZXIgQ2VydGlmaWNhdGUwHQYD
VR0OBBYEFC9KNGFvi5IOsc5gBIpue41wjL3RMHQGA1UdIwRtMGuAFPSnwMyRRq9k
85HyJ/jIsm+KhzJzoUikRjBEMQswCQYDVQQGEwJERTEPMA0GA1UECAwGSGVzc2Vu
MRQwEgYDVQQKDAtwcml2YWN5aWRlYTEOMAwGA1UEAwwFQ0EwMDGCCQD7yOusg80S
BzATBgNVHSUEDDAKBggrBgEFBQcDATANBgkqhkiG9w0BAQUFAAOCAQEAjyVnZpRf
aRgKZx/RjVQ/dYYul+Wt1/OmR3MYmfdC213Xu7Yxh60IC4lfVj8j3iV594wqT5kM
sUo3Nofm9Oo40ggY7JTP5uvpbINIaIdF6uJI5vbO+I5AFNB9ZDWsFqu0zrmkM0WX
2BB324UCw18y7y9uUu99YBCVmqa+ZdKv0fAz13FIN7YY1EcaZnkWVIKdORBbBweP
oecLmvx7D9gA9mcEeE4Xctk3V48yOAuT63e5Tm+b6wOCBjgmf2YC05SeD5AseVcB
aOjAPm0z1nU9G/0TNi6aee8eUVrpHn6kiUKw05cp3iSsD8MlPUcvFcQ/ytoAW2kG
1jm/AuZWZf08cQ==
-----END CERTIFICATE-----
