Certificate:
    Data:
        Version: 3 (0x2)
        Serial Number: 268435625 (0x100000a9)
    Signature Algorithm: sha1WithRSAEncryption
        Issuer: C=DE, ST=Hessen, O=privacyidea, CN=CA001
        Validity
            Not Before: May 21 13:42:00 2015 GMT
            Not After : May 20 13:42:00 2016 GMT
        Subject: C=DE, ST=Hessen, O=privacyidea, CN=usercert
        Subject Public Key Info:
            Public Key Algorithm: rsaEncryption
                Public-Key: (2048 bit)
                Modulus:
                    00:dc:2f:d1:5f:29:97:d4:7c:c3:53:c8:30:bd:4b:
                    67:70:2c:24:6b:b8:5e:eb:21:7a:48:12:56:7c:81:
                    5c:48:75:b6:68:eb:f6:f2:98:4e:50:51:d1:7f:6c:
                    73:f3:0a:a7:ae:be:48:5e:e5:d6:e1:d9:2a:7c:32:
                    6e:4e:fd:08:f6:5a:54:49:23:73:c3:b9:07:18:d1:
                    ef:b3:ac:f8:8a:dc:94:96:a4:90:3a:8e:74:df:e6:
                    0d:37:1b:bd:5b:b7:25:1a:56:39:da:6f:91:aa:5e:
                    1c:74:f3:f9:7c:14:01:83:12:65:76:c7:bb:fe:36:
                    5b:95:e9:72:65:83:ed:3e:98:30:71:fa:87:dd:a3:
                    36:5a:30:03:2e:26:e0:61:d1:bf:02:3f:b6:06:1f:
                    4a:89:28:1c:5c:a2:ff:4e:be:94:e6:8c:e0:da:82:
                    f1:9d:29:32:48:30:73:b4:04:f6:42:1e:be:f7:e2:
                    32:32:27:3c:9d:89:2f:70:3e:85:9a:6f:5c:c5:09:
                    c0:8c:32:2f:72:22:c9:d2:95:1f:b6:ac:72:60:72:
                    b7:82:4d:6b:ce:5b:e3:00:d0:d2:2f:58:c6:e0:10:
                    e5:51:ca:4d:3b:2e:e6:7e:ab:84:d6:56:f1:93:35:
                    a0:93:64:26:81:75:2f:91:b5:16:06:38:0b:db:cc:
                    2d:07
                Exponent: 65537 (0x10001)
        X509v3 extensions:
            X509v3 Key Usage: 
                Digital Signature, Key Encipherment
            X509v3 Basic Constraints: 
                CA:FALSE
            Netscape Cert Type: 
                SSL Server
            Netscape Comment: 
                OpenSSL Generated Server Certificate
            X509v3 Subject Key Identifier: 
                FC:14:D1:F0:4B:8D:00:90:F2:F5:B8:71:9E:4E:97:C3:92:54:AD:0B
            X509v3 Authority Key Identifier: 
                keyid:F4:A7:C0:CC:91:46:AF:64:F3:91:F2:27:F8:C8:B2:6F:8A:87:32:73
                DirName:/C=DE/ST=Hessen/O=privacyidea/CN=CA001
                serial:FB:C8:EB:AC:83:CD:12:07

            X509v3 Extended Key Usage: 
                TLS Web Server Authentication
    Signature Algorithm: sha1WithRSAEncryption
         55:cf:a0:3d:e0:5b:5b:7e:86:f1:49:7c:c2:93:01:f5:2a:a3:
         8e:96:fe:b1:5a:5f:9b:04:fb:7c:62:36:34:2b:9d:c0:5f:ca:
         aa:ba:0a:af:88:bf:2a:21:29:0c:bb:10:ae:33:a1:0b:04:24:
         46:3d:23:ec:77:fc:81:2f:40:2e:f8:98:0a:f9:2c:5e:79:8c:
         6e:0c:8b:88:20:ab:cb:52:93:dd:af:24:53:72:ba:f5:fb:1b:
         6b:ca:66:43:63:ba:87:c6:c2:b4:52:3d:4d:b3:4a:40:d6:26:
         22:cb:ff:a2:ae:6c:c3:65:be:69:7b:28:5f:18:d7:00:05:c9:
         34:59:81:8a:e6:ff:4c:c5:b0:ee:d1:ac:2f:94:80:9f:a3:33:
         72:13:a5:a4:ca:b8:83:89:85:e3:a2:5e:0f:ce:73:97:22:18:
         25:93:3c:70:e9:d9:b2:12:39:ba:78:2c:23:85:db:12:1c:f3:
         a4:87:04:e5:2b:6e:b0:77:a4:0c:8e:7e:5d:45:55:0b:88:e1:
         3f:8e:2a:2e:f1:24:cb:f8:7d:9b:18:a6:26:a4:ae:d4:36:35:
         99:8d:6f:3d:65:4f:66:27:f3:ee:da:fe:3f:5f:53:07:92:57:
         46:ba:bd:de:fe:a3:83:fb:fa:21:b9:63:0d:1e:ca:29:44:28:
         0d:10:1a:25
-----BEGIN CERTIFICATE-----
MIIEGTCCAwGgAwIBAgIEEAAAqTANBgkqhkiG9w0BAQUFADBEMQswCQYDVQQGEwJE
RTEPMA0GA1UECAwGSGVzc2VuMRQwEgYDVQQKDAtwcml2YWN5aWRlYTEOMAwGA1UE
AwwFQ0EwMDEwHhcNMTUwNTIxMTM0MjAwWhcNMTYwNTIwMTM0MjAwWjBHMQswCQYD
VQQGEwJERTEPMA0GA1UECAwGSGVzc2VuMRQwEgYDVQQKDAtwcml2YWN5aWRlYTER
MA8GA1UEAwwIdXNlcmNlcnQwggEiMA0GCSqGSIb3DQEBAQUAA4IBDwAwggEKAoIB
AQDcL9FfKZfUfMNTyDC9S2dwLCRruF7rIXpIElZ8gVxIdbZo6/bymE5QUdF/bHPz
Cqeuvkhe5dbh2Sp8Mm5O/Qj2WlRJI3PDuQcY0e+zrPiK3JSWpJA6jnTf5g03G71b
tyUaVjnab5GqXhx08/l8FAGDEmV2x7v+NluV6XJlg+0+mDBx+ofdozZaMAMuJuBh
0b8CP7YGH0qJKBxcov9OvpTmjODagvGdKTJIMHO0BPZCHr734jIyJzydiS9wPoWa
b1zFCcCMMi9yIsnSlR+2rHJgcreCTWvOW+MA0NIvWMbgEOVRyk07LuZ+q4TWVvGT
NaCTZCaBdS+RtRYGOAvbzC0HAgMBAAGjggEOMIIBCjALBgNVHQ8EBAMCBaAwCQYD
VR0TBAIwADARBglghkgBhvhCAQEEBAMCBkAwMwYJYIZIAYb4QgENBCYWJE9wZW5T
U0wgR2VuZXJhdGVkIFNlcnZlciBDZXJ0aWZpY2F0ZTAdBgNVHQ4EFgQU/BTR8EuN
AJDy9bhxnk6Xw5JUrQswdAYDVR0jBG0wa4AU9KfAzJFGr2TzkfIn+Miyb4qHMnOh
SKRGMEQxCzAJBgNVBAYTAkRFMQ8wDQYDVQQIDAZIZXNzZW4xFDASBgNVBAoMC3By
aXZhY3lpZGVhMQ4wDAYDVQQDDAVDQTAwMYIJAPvI66yDzRIHMBMGA1UdJQQMMAoG
CCsGAQUFBwMBMA0GCSqGSIb3DQEBBQUAA4IBAQBVz6A94FtbfobxSXzCkwH1KqOO
lv6xWl+bBPt8YjY0K53AX8qqugqviL8qISkMuxCuM6ELBCRGPSPsd/yBL0Au+JgK
+SxeeYxuDIuIIKvLUpPdryRTcrr1+xtrymZDY7qHxsK0Uj1Ns0pA1iYiy/+irmzD
Zb5peyhfGNcABck0WYGK5v9MxbDu0awvlICfozNyE6WkyriDiYXjol4PznOXIhgl
kzxw6dmyEjm6eCwjhdsSHPOkhwTlK26wd6QMjn5dRVULiOE/jiou8STL+H2bGKYm
pK7UNjWZjW89ZU9mJ/Pu2v4/X1MHkldGur3e/qOD+/ohuWMNHsopRCgNEBol
-----END CERTIFICATE-----
