Certificate:
    Data:
        Version: 3 (0x2)
        Serial Number: 268435642 (0x100000ba)
    Signature Algorithm: sha1WithRSAEncryption
        Issuer: C=DE, ST=Hessen, O=privacyidea, CN=CA001
        Validity
            Not Before: May 21 14:34:34 2015 GMT
            Not After : May 20 14:34:34 2016 GMT
        Subject: CN=tom/emailAddress=meine
        Subject Public Key Info:
            Public Key Algorithm: rsaEncryption
                Public-Key: (2048 bit)
                Modulus:
                    00:c0:44:a6:2b:e1:10:cb:6f:cd:8b:7c:2a:52:c2:
                    71:73:5b:44:2a:05:e4:d8:ed:2e:39:d6:74:cf:f9:
                    7a:57:0d:70:e6:ca:73:3d:2c:64:d2:e0:56:1a:02:
                    2f:80:86:ab:92:44:89:4c:bb:f7:89:3f:c3:72:49:
                    85:65:00:09:40:7d:36:7d:e0:a8:e2:2a:00:d0:90:
                    d5:04:a8:29:d1:79:c5:4e:80:bb:be:f2:9c:33:47:
                    6f:b1:63:ec:bd:be:9d:1e:3e:3c:08:48:96:3a:ef:
                    84:82:5e:ce:f9:8f:0f:c0:35:aa:ec:7e:f6:24:2d:
                    81:09:be:fa:ec:46:ca:69:b0:ae:17:f1:90:ce:33:
                    3d:44:ec:27:e3:d0:ca:f8:9c:35:56:28:c6:d0:8b:
                    54:44:0a:11:b4:56:06:3f:3c:b5:78:d1:54:c2:85:
                    ad:df:c5:c6:5b:f7:91:2d:22:3d:8c:8e:4d:9c:5b:
                    66:db:62:1e:39:a8:26:ff:5e:db:55:9e:d5:83:17:
                    f4:df:16:12:3c:ae:74:92:9a:ed:d3:2f:e8:9d:cd:
                    4e:ca:9c:90:9f:d8:77:6f:d5:a5:63:77:d4:1b:4a:
                    fc:14:90:a4:51:42:55:18:6b:5e:03:c5:a3:93:41:
                    78:6c:3e:5a:77:75:28:fc:bf:aa:d0:b9:d9:c5:35:
                    64:5f
                Exponent: 65537 (0x10001)
        X509v3 extensions:
            X509v3 Key Usage: 
                Digital Signature, Key Encipherment
            X509v3 Basic Constraints: 
                CA:FALSE
            Netscape Cert Type: 
                SSL Server
            Netscape Comment: 
                OpenSSL Generated Server Certificate
            X509v3 Subject Key Identifier: 
                DD:B8:77:67:1B:20:B2:2B:4B:DA:DF:5E:44:13:08:F9:F8:8E:3F:D8
            X509v3 Authority Key Identifier: 
                keyid:F4:A7:C0:CC:91:46:AF:64:F3:91:F2:27:F8:C8:B2:6F:8A:87:32:73
                DirName:/C=DE/ST=Hessen/O=privacyidea/CN=CA001
                serial:FB:C8:EB:AC:83:CD:12:07

            X509v3 Extended Key Usage: 
                TLS Web Server Authentication
    Signature Algorithm: sha1WithRSAEncryption
         54:49:9c:39:bd:72:01:43:03:d9:71:2e:f9:00:c3:e1:65:b6:
         ee:48:34:70:6d:f1:e6:09:02:30:28:fd:f0:5c:4a:52:5a:ba:
         63:c3:34:18:a1:c4:3b:54:ac:93:ad:49:16:80:50:8f:10:4a:
         c6:11:47:ba:4b:45:03:51:e2:fd:56:40:31:20:86:62:4e:a0:
         3d:e6:98:8d:70:b3:0a:81:ae:0e:d7:0a:cf:73:e1:68:7b:f5:
         ac:15:02:61:ac:f9:a6:2a:4c:f4:d9:e9:f0:19:7c:b4:47:a7:
         65:26:a3:e4:ac:25:d7:73:4c:b7:92:ae:78:46:f6:75:f2:33:
         67:b3:1d:38:86:b8:0a:a6:40:aa:47:74:9e:bd:29:73:86:29:
         a1:a3:86:5f:e8:08:68:8c:b9:93:53:07:e1:d9:5b:95:4e:ef:
         9a:53:3b:8c:d5:da:60:42:d6:f4:d4:0d:9b:0a:c5:80:5f:02:
         13:7b:05:12:83:e0:dc:5d:56:3a:43:f8:43:66:87:36:f3:0c:
         c3:f7:9a:cd:7a:8d:11:9a:fe:e5:b2:6e:74:47:e5:f7:35:ce:
         79:6e:10:56:d1:36:0d:3b:ab:65:ef:b1:6d:4c:5a:44:6c:75:
         ed:3d:d5:ad:1d:65:47:47:70:a4:76:27:1d:bc:b5:84:5d:4e:
         7a:02:e4:26
-----BEGIN CERTIFICATE-----
MIID9jCCAt6gAwIBAgIEEAAAujANBgkqhkiG9w0BAQUFADBEMQswCQYDVQQGEwJE
RTEPMA0GA1UECAwGSGVzc2VuMRQwEgYDVQQKDAtwcml2YWN5aWRlYTEOMAwGA1UE
AwwFQ0EwMDEwHhcNMTUwNTIxMTQzNDM0WhcNMTYwNTIwMTQzNDM0WjAkMQwwCgYD
VQQDEwN0b20xFDASBgkqhkiG9w0BCQEWBW1laW5lMIIBIjANBgkqhkiG9w0BAQEF
AAOCAQ8AMIIBCgKCAQEAwESmK+EQy2/Ni3wqUsJxc1tEKgXk2O0uOdZ0z/l6Vw1w
5spzPSxk0uBWGgIvgIarkkSJTLv3iT/DckmFZQAJQH02feCo4ioA0JDVBKgp0XnF
ToC7vvKcM0dvsWPsvb6dHj48CEiWOu+Egl7O+Y8PwDWq7H72JC2BCb767EbKabCu
F/GQzjM9ROwn49DK+Jw1VijG0ItURAoRtFYGPzy1eNFUwoWt38XGW/eRLSI9jI5N
nFtm22IeOagm/17bVZ7Vgxf03xYSPK50kprt0y/onc1OypyQn9h3b9WlY3fUG0r8
FJCkUUJVGGteA8Wjk0F4bD5ad3Uo/L+q0LnZxTVkXwIDAQABo4IBDjCCAQowCwYD
VR0PBAQDAgWgMAkGA1UdEwQCMAAwEQYJYIZIAYb4QgEBBAQDAgZAMDMGCWCGSAGG
+EIBDQQmFiRPcGVuU1NMIEdlbmVyYXRlZCBTZXJ2ZXIgQ2VydGlmaWNhdGUwHQYD
VR0OBBYEFN24d2cbILIrS9rfXkQTCPn4jj/YMHQGA1UdIwRtMGuAFPSnwMyRRq9k
85HyJ/jIsm+KhzJzoUikRjBEMQswCQYDVQQGEwJERTEPMA0GA1UECAwGSGVzc2Vu
MRQwEgYDVQQKDAtwcml2YWN5aWRlYTEOMAwGA1UEAwwFQ0EwMDGCCQD7yOusg80S
BzATBgNVHSUEDDAKBggrBgEFBQcDATANBgkqhkiG9w0BAQUFAAOCAQEAVEmcOb1y
AUMD2XEu+QDD4WW27kg0cG3x5gkCMCj98FxKUlq6Y8M0GKHEO1Ssk61JFoBQjxBK
xhFHuktFA1Hi/VZAMSCGYk6gPeaYjXCzCoGuDtcKz3PhaHv1rBUCYaz5pipM9Nnp
8Bl8tEenZSaj5Kwl13NMt5KueEb2dfIzZ7MdOIa4CqZAqkd0nr0pc4YpoaOGX+gI
aIy5k1MH4dlblU7vmlM7jNXaYELW9NQNmwrFgF8CE3sFEoPg3F1WOkP4Q2aHNvMM
w/eazXqNEZr+5bJudEfl9zXOeW4QVtE2DTurZe+xbUxaRGx17T3VrR1lR0dwpHYn
Hby1hF1OegLkJg==
-----END CERTIFICATE-----
