Certificate:
    Data:
        Version: 3 (0x2)
        Serial Number: 268435603 (0x10000093)
    Signature Algorithm: sha1WithRSAEncryption
        Issuer: C=DE, ST=Hessen, O=privacyidea, CN=CA001
        Validity
            Not Before: May 21 13:30:13 2015 GMT
            Not After : May 20 13:30:13 2016 GMT
        Subject: CN=Steve Test/emailAddress=steve@openssl.org
        Subject Public Key Info:
            Public Key Algorithm: rsaEncryption
                Public-Key: (2048 bit)
                Modulus:
                    00:d2:81:89:20:51:48:0f:73:f4:11:32:24:d5:1f:
                    1c:fd:5c:f5:b6:e6:c5:f0:52:81:dc:d2:af:66:4a:
                    7c:93:31:61:5c:af:d1:6d:06:70:03:60:7c:72:0c:
                    88:dd:49:cd:9e:02:6c:d2:5a:d7:53:0f:f3:da:be:
                    69:64:b5:0f:0c:00:e3:b3:50:47:a3:b3:9b:ba:13:
                    50:d6:58:5a:4b:ab:39:e0:11:ca:0a:27:67:03:78:
                    22:66:6d:92:1e:1b:5c:49:ae:e6:6b:d1:8e:3b:9d:
                    06:d3:c6:ac:4d:53:43:10:ab:e8:96:c1:87:82:97:
                    99:8f:20:d3:99:12:37:31:84:e1:8a:ff:29:03:5f:
                    22:90:3e:7f:9b:e0:20:c1:ad:dc:ae:4c:39:1a:31:
                    96:17:02:8c:b2:d9:b4:0d:20:12:9b:7d:86:54:fd:
                    33:fd:c1:2a:62:46:f8:60:96:cf:6e:01:6f:22:df:
                    13:47:e7:97:ec:05:72:23:a3:62:f8:fa:ef:ac:9c:
                    72:f0:37:cb:2f:37:cf:90:a8:27:51:86:c6:d7:78:
                    08:8f:7e:25:a2:15:70:a2:fb:1c:b6:15:5e:a0:97:
                    8b:81:4c:09:28:8a:27:3b:94:bc:71:db:5b:71:37:
                    9a:2b:16:e0:6f:b5:c9:f5:4b:4f:20:ba:65:cf:af:
                    ad:ad
                Exponent: 65537 (0x10001)
        X509v3 extensions:
            X509v3 Key Usage: 
                Digital Signature, Key Encipherment
            X509v3 Basic Constraints: 
                CA:FALSE
            Netscape Cert Type: 
                SSL Server
            Netscape Comment: 
                OpenSSL Generated Server Certificate
            X509v3 Subject Key Identifier: 
                E5:25:6D:3E:AF:0D:DD:3F:4C:F2:45:19:39:D5:14:DB:7E:9C:C0:AD
            X509v3 Authority Key Identifier: 
                keyid:F4:A7:C0:CC:91:46:AF:64:F3:91:F2:27:F8:C8:B2:6F:8A:87:32:73
                DirName:/C=DE/ST=Hessen/O=privacyidea/CN=CA001
                serial:FB:C8:EB:AC:83:CD:12:07

            X509v3 Extended Key Usage: 
                TLS Web Server Authentication
    Signature Algorithm: sha1WithRSAEncryption
         72:dc:a0:05:f6:5e:ea:c7:f4:60:7b:6c:5b:80:74:31:c4:f4:
         ea:a4:c1:f7:0a:69:c6:97:ce:1e:f8:df:98:47:4b:cb:6d:aa:
         c4:78:10:d6:af:94:f2:93:2f:ca:e0:56:e0:92:46:41:8e:b4:
         b8:00:17:0d:0c:1c:8e:d2:71:a9:68:04:32:f2:89:39:85:ed:
         cc:f8:4d:6e:a8:7d:fd:51:b5:bf:05:40:f4:2f:72:7b:27:ae:
         9d:ff:68:49:07:68:e4:41:61:65:6b:55:ec:f3:0d:de:4d:ba:
         6e:bd:fe:47:58:ed:11:83:5e:0b:ee:d0:53:06:72:c0:50:03:
         d8:4a:17:5f:93:3a:0a:4a:a4:51:34:cb:aa:c6:a8:02:c9:d7:
         1c:28:fb:db:7c:13:a9:15:44:4f:2b:b7:8a:84:3e:d5:9c:d3:
         07:51:4d:90:39:6a:8c:ac:21:38:ee:fa:c4:fc:c7:3e:13:e5:
         8c:2c:ca:cb:07:bf:f8:90:98:c1:e3:83:ee:b8:27:53:f7:4b:
         7f:12:1b:a9:fc:17:ac:ed:5d:87:ba:f5:bd:99:5c:66:1f:bc:
         a9:4f:14:38:a6:e4:2d:2f:fa:68:b7:56:12:c5:15:ef:1d:76:
         58:03:a7:88:61:44:97:40:67:55:20:8d:fc:10:e0:bb:31:63:
         33:5b:f7:19
-----BEGIN CERTIFICATE-----
MIIECTCCAvGgAwIBAgIEEAAAkzANBgkqhkiG9w0BAQUFADBEMQswCQYDVQQGEwJE
RTEPMA0GA1UECAwGSGVzc2VuMRQwEgYDVQQKDAtwcml2YWN5aWRlYTEOMAwGA1UE
AwwFQ0EwMDEwHhcNMTUwNTIxMTMzMDEzWhcNMTYwNTIwMTMzMDEzWjA3MRMwEQYD
VQQDEwpTdGV2ZSBUZXN0MSAwHgYJKoZIhvcNAQkBFhFzdGV2ZUBvcGVuc3NsLm9y
ZzCCASIwDQYJKoZIhvcNAQEBBQADggEPADCCAQoCggEBANKBiSBRSA9z9BEyJNUf
HP1c9bbmxfBSgdzSr2ZKfJMxYVyv0W0GcANgfHIMiN1JzZ4CbNJa11MP89q+aWS1
DwwA47NQR6Ozm7oTUNZYWkurOeARygonZwN4ImZtkh4bXEmu5mvRjjudBtPGrE1T
QxCr6JbBh4KXmY8g05kSNzGE4Yr/KQNfIpA+f5vgIMGt3K5MORoxlhcCjLLZtA0g
Ept9hlT9M/3BKmJG+GCWz24BbyLfE0fnl+wFciOjYvj676yccvA3yy83z5CoJ1GG
xtd4CI9+JaIVcKL7HLYVXqCXi4FMCSiKJzuUvHHbW3E3misW4G+1yfVLTyC6Zc+v
ra0CAwEAAaOCAQ4wggEKMAsGA1UdDwQEAwIFoDAJBgNVHRMEAjAAMBEGCWCGSAGG
+EIBAQQEAwIGQDAzBglghkgBhvhCAQ0EJhYkT3BlblNTTCBHZW5lcmF0ZWQgU2Vy
dmVyIENlcnRpZmljYXRlMB0GA1UdDgQWBBTlJW0+rw3dP0zyRRk51RTbfpzArTB0
BgNVHSMEbTBrgBT0p8DMkUavZPOR8if4yLJviocyc6FIpEYwRDELMAkGA1UEBhMC
REUxDzANBgNVBAgMBkhlc3NlbjEUMBIGA1UECgwLcHJpdmFjeWlkZWExDjAMBgNV
BAMMBUNBMDAxggkA+8jrrIPNEgcwEwYDVR0lBAwwCgYIKwYBBQUHAwEwDQYJKoZI
hvcNAQEFBQADggEBAHLcoAX2XurH9GB7bFuAdDHE9OqkwfcKacaXzh7435hHS8tt
qsR4ENavlPKTL8rgVuCSRkGOtLgAFw0MHI7ScaloBDLyiTmF7cz4TW6off1Rtb8F
QPQvcnsnrp3/aEkHaORBYWVrVezzDd5Num69/kdY7RGDXgvu0FMGcsBQA9hKF1+T
OgpKpFE0y6rGqALJ1xwo+9t8E6kVRE8rt4qEPtWc0wdRTZA5aoysITju+sT8xz4T
5YwsyssHv/iQmMHjg+64J1P3S38SG6n8F6ztXYe69b2ZXGYfvKlPFDim5C0v+mi3
VhLFFe8ddlgDp4hhRJdAZ1UgjfwQ4LsxYzNb9xk=
-----END CERTIFICATE-----
