Certificate:
    Data:
        Version: 3 (0x2)
        Serial Number: 268435605 (0x10000095)
    Signature Algorithm: sha1WithRSAEncryption
        Issuer: C=DE, ST=Hessen, O=privacyidea, CN=CA001
        Validity
            Not Before: May 21 13:31:22 2015 GMT
            Not After : May 20 13:31:22 2016 GMT
        Subject: C=DE, ST=Hessen, O=privacyidea, CN=requester.localdomain
        Subject Public Key Info:
            Public Key Algorithm: rsaEncryption
                Public-Key: (2048 bit)
                Modulus:
                    00:cd:be:14:4f:fa:ce:01:3f:42:22:1b:1d:9c:af:
                    dd:92:d2:7f:db:6c:b7:3e:39:43:43:6b:13:03:f1:
                    05:f4:07:74:bc:76:69:28:0b:af:19:8e:d7:fc:e3:
                    cd:c6:58:f2:ca:7f:08:6d:53:fc:07:02:44:24:c6:
                    b4:34:4c:8c:04:fe:33:0e:40:e2:20:ba:02:73:5a:
                    f7:f5:4f:63:6e:cc:c6:b6:df:54:1d:37:39:7d:51:
                    36:26:5f:bd:dc:3f:a8:8b:6b:a2:ae:b6:9d:d6:21:
                    e7:df:41:b8:7a:28:2a:68:48:ca:a8:2d:ed:e1:e9:
                    46:5e:5a:72:6d:b4:84:38:87:91:fd:94:11:0b:28:
                    84:c6:c2:2f:2a:fb:01:f9:36:7a:09:75:d1:33:88:
                    3c:73:41:5b:c8:bf:94:89:70:a1:f0:c0:b9:2e:50:
                    53:1e:b1:17:64:69:f4:2d:81:e0:a9:0d:0e:32:e9:
                    ba:55:8a:85:f1:1b:6f:49:79:b4:7f:88:c3:0d:3e:
                    54:88:9b:3d:1f:38:8c:04:f3:ee:6a:63:2b:f5:c6:
                    db:b4:83:aa:c4:78:41:3a:7d:4b:e1:c8:3e:71:ca:
                    1b:61:59:ea:c6:c4:ca:32:5e:c9:e9:bf:12:29:e6:
                    c6:c3:63:fe:a0:55:da:7a:f1:60:98:4d:26:ed:fa:
                    70:2d
                Exponent: 65537 (0x10001)
        X509v3 extensions:
            X509v3 Key Usage: 
                Digital Signature, Key Encipherment
            X509v3 Basic Constraints: 
                CA:FALSE
            Netscape Cert Type: 
                SSL Server
            Netscape Comment: 
                OpenSSL Generated Server Certificate
            X509v3 Subject Key Identifier: 
                53:3F:ED:5D:09:07:B3:65:7B:AB:45:C9:24:5B:09:77:80:0A:96:ED
            X509v3 Authority Key Identifier: 
                keyid:F4:A7:C0:CC:91:46:AF:64:F3:91:F2:27:F8:C8:B2:6F:8A:87:32:73
                DirName:/C=DE/ST=Hessen/O=privacyidea/CN=CA001
                serial:FB:C8:EB:AC:83:CD:12:07

            X509v3 Extended Key Usage: 
                TLS Web Server Authentication
    Signature Algorithm: sha1WithRSAEncryption
         1a:53:e8:e0:2f:11:f5:94:50:4d:48:ad:de:f4:ab:ee:b2:12:
         48:7c:8f:f9:ea:b9:1e:34:72:55:30:ce:ed:70:11:e0:dc:18:
         4a:20:f6:5f:d1:e3:a4:bb:cd:cb:14:66:90:87:02:1a:65:32:
         2d:24:c3:15:af:a1:c5:3a:0c:99:04:bc:b6:41:03:2c:c7:2c:
         4c:5e:49:ea:21:23:74:07:97:54:32:f2:61:f7:cb:3b:9d:23:
         a6:63:cd:e3:9d:db:db:0d:8d:de:fe:5b:ce:39:4d:59:0e:cf:
         df:a4:3b:36:9e:c1:34:c4:db:91:77:af:e2:a5:24:e2:0c:ea:
         16:9c:0b:2d:07:7b:31:32:e0:d4:71:2c:5e:e3:a3:48:5f:87:
         c0:93:f5:e8:66:fe:c7:e4:e2:57:01:8e:4d:11:9f:fc:9d:7a:
         82:a6:7e:47:c8:c1:7d:4b:4c:a7:6b:3b:73:7c:23:ed:90:b8:
         ee:a8:47:ec:fe:ea:f0:db:75:7d:66:fb:1d:b2:05:4a:40:77:
         3d:b4:c2:0d:a9:da:63:44:58:c5:bb:92:16:b0:f2:cf:c6:19:
         28:e4:c4:3e:1e:c8:d0:aa:56:52:e0:be:d2:88:19:47:c3:93:
         53:95:01:20:ba:fe:9e:e1:36:7f:e4:0d:9b:5e:92:a7:5d:9f:
         ca:6d:7b:de
-----BEGIN CERTIFICATE-----
MIIEJjCCAw6gAwIBAgIEEAAAlTANBgkqhkiG9w0BAQUFADBEMQswCQYDVQQGEwJE
RTEPMA0GA1UECAwGSGVzc2VuMRQwEgYDVQQKDAtwcml2YWN5aWRlYTEOMAwGA1UE
AwwFQ0EwMDEwHhcNMTUwNTIxMTMzMTIyWhcNMTYwNTIwMTMzMTIyWjBUMQswCQYD
VQQGEwJERTEPMA0GA1UECAwGSGVzc2VuMRQwEgYDVQQKDAtwcml2YWN5aWRlYTEe
MBwGA1UEAwwVcmVxdWVzdGVyLmxvY2FsZG9tYWluMIIBIjANBgkqhkiG9w0BAQEF
AAOCAQ8AMIIBCgKCAQEAzb4UT/rOAT9CIhsdnK/dktJ/22y3PjlDQ2sTA/EF9Ad0
vHZpKAuvGY7X/OPNxljyyn8IbVP8BwJEJMa0NEyMBP4zDkDiILoCc1r39U9jbszG
tt9UHTc5fVE2Jl+93D+oi2uirrad1iHn30G4eigqaEjKqC3t4elGXlpybbSEOIeR
/ZQRCyiExsIvKvsB+TZ6CXXRM4g8c0FbyL+UiXCh8MC5LlBTHrEXZGn0LYHgqQ0O
Mum6VYqF8RtvSXm0f4jDDT5UiJs9HziMBPPuamMr9cbbtIOqxHhBOn1L4cg+ccob
YVnqxsTKMl7J6b8SKebGw2P+oFXaevFgmE0m7fpwLQIDAQABo4IBDjCCAQowCwYD
VR0PBAQDAgWgMAkGA1UdEwQCMAAwEQYJYIZIAYb4QgEBBAQDAgZAMDMGCWCGSAGG
+EIBDQQmFiRPcGVuU1NMIEdlbmVyYXRlZCBTZXJ2ZXIgQ2VydGlmaWNhdGUwHQYD
VR0OBBYEFFM/7V0JB7Nle6tFySRbCXeACpbtMHQGA1UdIwRtMGuAFPSnwMyRRq9k
85HyJ/jIsm+KhzJzoUikRjBEMQswCQYDVQQGEwJERTEPMA0GA1UECAwGSGVzc2Vu
MRQwEgYDVQQKDAtwcml2YWN5aWRlYTEOMAwGA1UEAwwFQ0EwMDGCCQD7yOusg80S
BzATBgNVHSUEDDAKBggrBgEFBQcDATANBgkqhkiG9w0BAQUFAAOCAQEAGlPo4C8R
9ZRQTUit3vSr7rISSHyP+eq5HjRyVTDO7XAR4NwYSiD2X9HjpLvNyxRmkIcCGmUy
LSTDFa+hxToMmQS8tkEDLMcsTF5J6iEjdAeXVDLyYffLO50jpmPN453b2w2N3v5b
zjlNWQ7P36Q7Np7BNMTbkXev4qUk4gzqFpwLLQd7MTLg1HEsXuOjSF+HwJP16Gb+
x+TiVwGOTRGf/J16gqZ+R8jBfUtMp2s7c3wj7ZC47qhH7P7q8Nt1fWb7HbIFSkB3
PbTCDanaY0RYxbuSFrDyz8YZKOTEPh7I0KpWUuC+0ogZR8OTU5UBILr+nuE2f+QN
m16Sp12fym173g==
-----END CERTIFICATE-----
