Certificate:
    Data:
        Version: 3 (0x2)
        Serial Number: 268435637 (0x100000b5)
    Signature Algorithm: sha1WithRSAEncryption
        Issuer: C=DE, ST=Hessen, O=privacyidea, CN=CA001
        Validity
            Not Before: May 21 14:27:22 2015 GMT
            Not After : May 20 14:27:22 2016 GMT
        Subject: CN=corny/emailAddress=meine
        Subject Public Key Info:
            Public Key Algorithm: rsaEncryption
                Public-Key: (2048 bit)
                Modulus:
                    00:c0:ed:95:34:2f:46:6b:9c:6e:19:a3:29:07:de:
                    38:4e:67:1f:7e:c9:12:22:29:e4:ac:6f:db:20:52:
                    df:e5:46:03:a5:48:71:5d:c8:51:74:cc:80:9b:3b:
                    b4:78:4a:5b:66:c6:b7:24:68:40:67:3a:88:e6:45:
                    2a:d9:0d:15:df:f9:77:7b:c1:21:4b:0b:52:19:6b:
                    62:e1:27:a5:b8:cc:8b:d2:fd:cf:68:33:e7:8c:85:
                    5d:a1:c2:b7:39:75:f4:79:0f:5a:bb:0d:d0:b5:5c:
                    a4:40:a2:08:97:fe:46:e7:2a:9e:cc:50:0e:b1:45:
                    a4:7b:07:88:b0:97:27:a4:bb:71:9e:05:5a:86:8a:
                    57:37:1d:19:e8:c0:f3:02:23:9e:29:52:8f:a0:e6:
                    11:65:bb:89:7e:7d:87:1c:55:8f:5a:e2:82:1f:f4:
                    42:c7:39:d8:67:21:19:b4:57:32:6c:b0:86:48:b0:
                    c0:f0:b5:29:3b:0a:04:f8:29:67:83:54:e0:cd:fd:
                    9b:a4:2d:70:bd:0c:e3:ba:54:27:1e:e4:32:27:7f:
                    79:34:ef:bc:15:21:bf:2f:48:70:b1:7d:53:5a:71:
                    1d:0a:e6:4a:3c:3e:19:5b:6c:21:f2:f4:8e:b7:27:
                    ed:0b:48:80:4f:90:76:40:03:49:9a:18:4e:0c:cc:
                    42:93
                Exponent: 65537 (0x10001)
        X509v3 extensions:
            X509v3 Key Usage: 
                Digital Signature, Key Encipherment
            X509v3 Basic Constraints: 
                CA:FALSE
            Netscape Cert Type: 
                SSL Server
            Netscape Comment: 
                OpenSSL Generated Server Certificate
            X509v3 Subject Key Identifier: 
                60:DA:D5:75:A4:DA:A3:1F:00:07:23:60:4D:D7:4F:31:0F:96:11:66
            X509v3 Authority Key Identifier: 
                keyid:F4:A7:C0:CC:91:46:AF:64:F3:91:F2:27:F8:C8:B2:6F:8A:87:32:73
                DirName:/C=DE/ST=Hessen/O=privacyidea/CN=CA001
                serial:FB:C8:EB:AC:83:CD:12:07

            X509v3 Extended Key Usage: 
                TLS Web Server Authentication
    Signature Algorithm: sha1WithRSAEncryption
         55:77:a5:79:5a:99:5e:10:0e:87:83:e3:0e:e1:06:fc:68:8b:
         74:64:9f:d6:25:b9:63:6d:bd:33:e0:79:16:8b:c8:67:4d:1d:
         45:88:80:76:ac:f2:c9:5f:c9:cd:dd:29:ae:eb:54:ec:5d:b1:
         39:53:26:84:33:b4:ed:14:ba:88:ce:78:31:0c:ee:a0:67:9d:
         66:37:88:94:76:d4:55:d7:4d:6d:af:ba:54:bd:95:92:66:b8:
         03:c1:f1:99:1a:45:81:85:93:a4:b5:82:b7:16:36:f8:92:66:
         cb:61:1d:51:6b:56:23:da:d8:92:8d:7a:cf:af:20:fc:84:63:
         ee:0a:c0:0a:54:3b:c2:74:33:31:ee:27:3a:51:8e:31:d8:59:
         19:17:32:05:f7:d3:6d:09:48:7b:15:6a:4d:cf:ba:38:f8:90:
         47:74:4f:fa:26:12:40:1f:5d:af:90:73:92:93:6b:76:d1:2e:
         fe:7e:bc:bf:f6:60:e9:05:79:a7:6f:74:1a:c8:85:ed:3d:c6:
         6b:7f:20:5f:1e:be:0e:f7:d4:b2:34:6d:b2:a9:60:b6:4e:ef:
         83:e3:eb:82:c2:f3:e9:01:5a:49:80:66:c8:19:02:37:83:c1:
         d1:0e:cd:f1:44:d7:99:d5:76:c2:69:45:d8:87:1d:d5:33:88:
         fa:95:d3:2b
-----BEGIN CERTIFICATE-----
MIID+DCCAuCgAwIBAgIEEAAAtTANBgkqhkiG9w0BAQUFADBEMQswCQYDVQQGEwJE
RTEPMA0GA1UECAwGSGVzc2VuMRQwEgYDVQQKDAtwcml2YWN5aWRlYTEOMAwGA1UE
AwwFQ0EwMDEwHhcNMTUwNTIxMTQyNzIyWhcNMTYwNTIwMTQyNzIyWjAmMQ4wDAYD
VQQDEwVjb3JueTEUMBIGCSqGSIb3DQEJARYFbWVpbmUwggEiMA0GCSqGSIb3DQEB
AQUAA4IBDwAwggEKAoIBAQDA7ZU0L0ZrnG4ZoykH3jhOZx9+yRIiKeSsb9sgUt/l
RgOlSHFdyFF0zICbO7R4SltmxrckaEBnOojmRSrZDRXf+Xd7wSFLC1IZa2LhJ6W4
zIvS/c9oM+eMhV2hwrc5dfR5D1q7DdC1XKRAogiX/kbnKp7MUA6xRaR7B4iwlyek
u3GeBVqGilc3HRnowPMCI54pUo+g5hFlu4l+fYccVY9a4oIf9ELHOdhnIRm0VzJs
sIZIsMDwtSk7CgT4KWeDVODN/ZukLXC9DOO6VCce5DInf3k077wVIb8vSHCxfVNa
cR0K5ko8PhlbbCHy9I63J+0LSIBPkHZAA0maGE4MzEKTAgMBAAGjggEOMIIBCjAL
BgNVHQ8EBAMCBaAwCQYDVR0TBAIwADARBglghkgBhvhCAQEEBAMCBkAwMwYJYIZI
AYb4QgENBCYWJE9wZW5TU0wgR2VuZXJhdGVkIFNlcnZlciBDZXJ0aWZpY2F0ZTAd
BgNVHQ4EFgQUYNrVdaTaox8AByNgTddPMQ+WEWYwdAYDVR0jBG0wa4AU9KfAzJFG
r2TzkfIn+Miyb4qHMnOhSKRGMEQxCzAJBgNVBAYTAkRFMQ8wDQYDVQQIDAZIZXNz
ZW4xFDASBgNVBAoMC3ByaXZhY3lpZGVhMQ4wDAYDVQQDDAVDQTAwMYIJAPvI66yD
zRIHMBMGA1UdJQQMMAoGCCsGAQUFBwMBMA0GCSqGSIb3DQEBBQUAA4IBAQBVd6V5
WpleEA6Hg+MO4Qb8aIt0ZJ/WJbljbb0z4HkWi8hnTR1FiIB2rPLJX8nN3Smu61Ts
XbE5UyaEM7TtFLqIzngxDO6gZ51mN4iUdtRV101tr7pUvZWSZrgDwfGZGkWBhZOk
tYK3Fjb4kmbLYR1Ra1Yj2tiSjXrPryD8hGPuCsAKVDvCdDMx7ic6UY4x2FkZFzIF
99NtCUh7FWpNz7o4+JBHdE/6JhJAH12vkHOSk2t20S7+fry/9mDpBXmnb3QayIXt
PcZrfyBfHr4O99SyNG2yqWC2Tu+D4+uCwvPpAVpJgGbIGQI3g8HRDs3xRNeZ1XbC
aUXYhx3VM4j6ldMr
-----END CERTIFICATE-----
