Certificate:
    Data:
        Version: 3 (0x2)
        Serial Number: 268435632 (0x100000b0)
    Signature Algorithm: sha1WithRSAEncryption
        Issuer: C=DE, ST=Hessen, O=privacyidea, CN=CA001
        Validity
            Not Before: May 21 14:06:50 2015 GMT
            Not After : May 20 14:06:50 2016 GMT
        Subject: CN=cornelius2/emailAddress=meine
        Subject Public Key Info:
            Public Key Algorithm: rsaEncryption
                Public-Key: (2048 bit)
                Modulus:
                    00:aa:84:04:73:e1:b5:76:37:0d:2d:12:20:ad:7f:
                    26:9a:36:fb:31:ef:19:f2:b1:3a:4d:00:8b:d2:d8:
                    12:84:45:03:ad:2e:35:36:78:89:56:20:f9:12:3b:
                    7b:3e:78:f4:f6:fa:50:9a:90:ec:07:7d:9e:7c:15:
                    88:5a:7a:ef:0f:22:d2:4d:03:eb:ad:d8:24:da:b7:
                    22:66:e8:23:9e:4d:4f:a5:cf:8f:4b:ca:56:52:ef:
                    7e:c1:38:61:a5:e7:f0:26:20:3d:4e:52:0c:e8:e2:
                    b1:d7:e9:93:aa:4b:25:17:2e:37:a3:7e:d5:eb:3b:
                    94:11:f1:72:0d:25:74:5f:cf:8c:14:75:16:22:ab:
                    61:d5:2f:0f:3f:04:57:d9:10:c9:97:5a:2f:07:05:
                    12:cc:d6:66:34:3c:49:a1:17:bf:90:df:6d:c1:63:
                    71:6b:e0:2a:f9:8b:98:ad:a1:07:0e:3d:78:e8:94:
                    7c:98:06:94:cb:7d:72:9a:cb:0d:d3:1f:6b:44:b1:
                    e5:d5:48:29:b6:bb:e4:7e:ae:47:e6:9f:21:aa:a2:
                    34:4f:3c:10:75:72:b9:22:66:46:80:a3:be:c0:c8:
                    c4:d3:fe:e4:e9:05:dd:0a:a4:52:c1:86:f6:95:2b:
                    ab:35:5e:31:42:2d:bc:0f:ab:b5:75:52:9a:60:ff:
                    6e:65
                Exponent: 65537 (0x10001)
        X509v3 extensions:
            X509v3 Key Usage: 
                Digital Signature, Key Encipherment
            X509v3 Basic Constraints: 
                CA:FALSE
            Netscape Cert Type: 
                SSL Server
            Netscape Comment: 
                OpenSSL Generated Server Certificate
            X509v3 Subject Key Identifier: 
                CB:E0:5B:2B:BC:2D:0C:B1:AD:8D:9D:22:87:49:B3:44:B6:F1:C5:10
            X509v3 Authority Key Identifier: 
                keyid:F4:A7:C0:CC:91:46:AF:64:F3:91:F2:27:F8:C8:B2:6F:8A:87:32:73
                DirName:/C=DE/ST=Hessen/O=privacyidea/CN=CA001
                serial:FB:C8:EB:AC:83:CD:12:07

            X509v3 Extended Key Usage: 
                TLS Web Server Authentication
    Signature Algorithm: sha1WithRSAEncryption
         74:b6:2e:89:9c:09:57:2a:b5:e7:8a:6c:9b:f6:6e:8e:7d:a2:
         3a:9e:01:16:b8:4a:87:93:a3:01:69:1f:70:4f:af:aa:da:05:
         cb:38:3b:5e:bf:3c:eb:43:95:81:14:8d:ec:17:80:19:25:d9:
         2c:f9:48:26:be:7f:d3:57:10:c3:17:4a:a2:7f:ba:70:0f:19:
         7a:d2:86:5f:5d:e0:48:58:ad:0f:97:c3:07:f7:f4:13:53:9e:
         3d:84:79:a0:bf:62:73:67:c0:78:95:9e:50:9b:ac:4d:ad:cb:
         0e:94:54:c9:d5:67:7f:96:c0:f7:c1:68:ce:87:96:73:68:5c:
         2a:a4:ba:70:83:d3:1c:15:3e:15:72:6a:9e:72:fb:2a:60:b3:
         70:05:31:b6:07:a0:79:3b:50:5a:cf:46:5d:ed:9a:be:39:83:
         40:fd:70:fa:f9:60:1d:2a:03:62:d1:5c:da:28:a4:09:70:83:
         4e:7c:aa:78:14:e1:3c:fe:2e:5c:b2:60:15:98:cf:0a:f9:01:
         71:ea:9d:f5:19:56:12:f2:72:22:e9:f1:79:25:8a:ac:19:d8:
         c6:d0:07:67:e0:ca:60:91:15:90:b3:b5:0f:fb:cf:46:5d:31:
         a1:2d:e0:82:fc:5a:83:ba:cc:db:ee:66:43:6d:79:e0:66:b1:
         76:0e:3c:75
-----BEGIN CERTIFICATE-----
MIID/TCCAuWgAwIBAgIEEAAAsDANBgkqhkiG9w0BAQUFADBEMQswCQYDVQQGEwJE
RTEPMA0GA1UECAwGSGVzc2VuMRQwEgYDVQQKDAtwcml2YWN5aWRlYTEOMAwGA1UE
AwwFQ0EwMDEwHhcNMTUwNTIxMTQwNjUwWhcNMTYwNTIwMTQwNjUwWjArMRMwEQYD
VQQDEwpjb3JuZWxpdXMyMRQwEgYJKoZIhvcNAQkBFgVtZWluZTCCASIwDQYJKoZI
hvcNAQEBBQADggEPADCCAQoCggEBAKqEBHPhtXY3DS0SIK1/Jpo2+zHvGfKxOk0A
i9LYEoRFA60uNTZ4iVYg+RI7ez549Pb6UJqQ7Ad9nnwViFp67w8i0k0D663YJNq3
ImboI55NT6XPj0vKVlLvfsE4YaXn8CYgPU5SDOjisdfpk6pLJRcuN6N+1es7lBHx
cg0ldF/PjBR1FiKrYdUvDz8EV9kQyZdaLwcFEszWZjQ8SaEXv5DfbcFjcWvgKvmL
mK2hBw49eOiUfJgGlMt9cprLDdMfa0Sx5dVIKba75H6uR+afIaqiNE88EHVyuSJm
RoCjvsDIxNP+5OkF3QqkUsGG9pUrqzVeMUItvA+rtXVSmmD/bmUCAwEAAaOCAQ4w
ggEKMAsGA1UdDwQEAwIFoDAJBgNVHRMEAjAAMBEGCWCGSAGG+EIBAQQEAwIGQDAz
BglghkgBhvhCAQ0EJhYkT3BlblNTTCBHZW5lcmF0ZWQgU2VydmVyIENlcnRpZmlj
YXRlMB0GA1UdDgQWBBTL4FsrvC0Msa2NnSKHSbNEtvHFEDB0BgNVHSMEbTBrgBT0
p8DMkUavZPOR8if4yLJviocyc6FIpEYwRDELMAkGA1UEBhMCREUxDzANBgNVBAgM
Bkhlc3NlbjEUMBIGA1UECgwLcHJpdmFjeWlkZWExDjAMBgNVBAMMBUNBMDAxggkA
+8jrrIPNEgcwEwYDVR0lBAwwCgYIKwYBBQUHAwEwDQYJKoZIhvcNAQEFBQADggEB
AHS2LomcCVcqteeKbJv2bo59ojqeARa4SoeTowFpH3BPr6raBcs4O16/POtDlYEU
jewXgBkl2Sz5SCa+f9NXEMMXSqJ/unAPGXrShl9d4EhYrQ+Xwwf39BNTnj2EeaC/
YnNnwHiVnlCbrE2tyw6UVMnVZ3+WwPfBaM6HlnNoXCqkunCD0xwVPhVyap5y+ypg
s3AFMbYHoHk7UFrPRl3tmr45g0D9cPr5YB0qA2LRXNoopAlwg058qngU4Tz+Llyy
YBWYzwr5AXHqnfUZVhLyciLp8XkliqwZ2MbQB2fgymCRFZCztQ/7z0ZdMaEt4IL8
WoO6zNvuZkNteeBmsXYOPHU=
-----END CERTIFICATE-----
