Certificate:
    Data:
        Version: 3 (0x2)
        Serial Number: 268435648 (0x100000c0)
    Signature Algorithm: sha1WithRSAEncryption
        Issuer: C=DE, ST=Hessen, O=privacyidea, CN=CA001
        Validity
            Not Before: May 21 20:16:25 2015 GMT
            Not After : May 20 20:16:25 2016 GMT
        Subject: CN=admin,CN=admin,O=/emailAddress=meine
        Subject Public Key Info:
            Public Key Algorithm: rsaEncryption
                Public-Key: (2048 bit)
                Modulus:
                    00:ca:ab:3b:9f:7e:7c:87:ed:e3:11:58:a2:4f:79:
                    f4:c9:74:dc:13:03:a3:17:00:ac:6b:1a:81:8a:cd:
                    78:96:09:5e:ed:9b:83:74:aa:ae:8c:89:dd:02:d7:
                    36:8b:f7:24:93:38:7b:90:59:43:9d:27:18:f5:96:
                    c5:b1:1c:81:2f:d5:7c:d0:17:5c:d2:9a:0c:5a:ff:
                    73:2e:46:eb:9d:fe:26:e2:a3:b6:ca:30:16:58:ab:
                    02:16:c5:cc:1f:50:8b:2b:ce:b3:1a:57:4a:74:28:
                    0b:20:63:4b:c1:e7:db:ae:00:12:b9:e5:03:43:fa:
                    29:75:f6:9a:8e:82:25:cf:c1:d0:39:54:b5:b8:a7:
                    b2:7d:b5:39:37:0d:f1:c1:0e:8d:e3:f9:61:88:94:
                    80:a6:16:ab:2f:b0:fd:0f:c6:a0:b2:85:46:79:05:
                    f6:7c:59:0e:1c:b2:d4:ef:dc:45:58:4f:d3:8c:8c:
                    c7:09:48:75:51:6d:ea:c1:57:92:5d:3b:a8:2a:17:
                    ab:14:af:a8:04:68:f1:d8:87:7c:7e:98:87:a6:e8:
                    00:87:7f:ab:4d:46:5f:46:47:86:a7:e3:38:1e:78:
                    47:16:63:9e:a0:46:c9:6b:39:0d:ad:9a:1d:6a:a8:
                    d5:5d:c5:e6:9c:a4:89:f6:56:7a:10:4d:b0:a7:61:
                    7f:5b
                Exponent: 65537 (0x10001)
        X509v3 extensions:
            X509v3 Key Usage: 
                Digital Signature, Key Encipherment
            X509v3 Basic Constraints: 
                CA:FALSE
            Netscape Cert Type: 
                SSL Server
            Netscape Comment: 
                OpenSSL Generated Server Certificate
            X509v3 Subject Key Identifier: 
                75:5B:7A:48:AD:47:5B:76:62:21:F1:73:C5:AB:C2:C6:F9:0A:AF:C8
            X509v3 Authority Key Identifier: 
                keyid:F4:A7:C0:CC:91:46:AF:64:F3:91:F2:27:F8:C8:B2:6F:8A:87:32:73
                DirName:/C=DE/ST=Hessen/O=privacyidea/CN=CA001
                serial:FB:C8:EB:AC:83:CD:12:07

            X509v3 Extended Key Usage: 
                TLS Web Server Authentication
    Signature Algorithm: sha1WithRSAEncryption
         47:40:1c:03:1e:03:55:92:d4:1d:2f:e5:4a:f5:a0:35:f8:1c:
         ae:1b:cb:a2:a0:53:76:1e:bc:c3:bf:a3:19:96:ca:52:16:20:
         95:d3:91:6a:cb:6d:15:a1:7d:9b:6e:04:8f:cf:09:7d:e4:a0:
         e3:7f:17:5c:6e:0f:e2:a2:61:9e:47:8f:69:d4:3b:89:c7:f6:
         47:90:75:37:bd:4d:f1:4a:7e:46:de:0c:52:30:4b:cc:3e:1b:
         ec:e2:52:26:a7:8b:57:e0:0f:53:bc:d8:2e:56:17:a2:59:2f:
         9a:62:57:39:86:c6:ea:13:2c:5e:d4:5b:66:92:1b:c3:58:e8:
         10:be:10:bd:81:69:8e:c4:96:68:5d:4b:66:e2:d9:2d:1b:f8:
         81:0a:65:7c:32:e5:24:e6:99:38:bf:4c:4a:1b:ec:7b:b1:e7:
         08:58:72:8a:e7:1c:4f:e9:d1:8f:68:aa:6d:2d:82:9d:7d:24:
         40:57:b6:49:0c:03:75:06:1e:79:05:4d:2d:0f:46:20:d3:d9:
         03:c9:eb:74:bd:93:18:72:17:56:5a:bb:09:21:64:c9:2c:9f:
         cf:64:27:40:b2:01:94:ec:ac:2d:9a:2b:3b:61:38:b4:86:b1:
         21:19:df:0d:e0:d9:a5:17:61:55:46:b4:06:df:41:72:72:59:
         a7:10:8f:d0
-----BEGIN CERTIFICATE-----
MIIEBDCCAuygAwIBAgIEEAAAwDANBgkqhkiG9w0BAQUFADBEMQswCQYDVQQGEwJE
RTEPMA0GA1UECAwGSGVzc2VuMRQwEgYDVQQKDAtwcml2YWN5aWRlYTEOMAwGA1UE
AwwFQ0EwMDEwHhcNMTUwNTIxMjAxNjI1WhcNMTYwNTIwMjAxNjI1WjAyMRowGAYD
VQQDExFhZG1pbixDTj1hZG1pbixPPTEUMBIGCSqGSIb3DQEJARYFbWVpbmUwggEi
MA0GCSqGSIb3DQEBAQUAA4IBDwAwggEKAoIBAQDKqzuffnyH7eMRWKJPefTJdNwT
A6MXAKxrGoGKzXiWCV7tm4N0qq6Mid0C1zaL9ySTOHuQWUOdJxj1lsWxHIEv1XzQ
F1zSmgxa/3MuRuud/ibio7bKMBZYqwIWxcwfUIsrzrMaV0p0KAsgY0vB59uuABK5
5QND+il19pqOgiXPwdA5VLW4p7J9tTk3DfHBDo3j+WGIlICmFqsvsP0PxqCyhUZ5
BfZ8WQ4cstTv3EVYT9OMjMcJSHVRberBV5JdO6gqF6sUr6gEaPHYh3x+mIem6ACH
f6tNRl9GR4an4zgeeEcWY56gRslrOQ2tmh1qqNVdxeacpIn2VnoQTbCnYX9bAgMB
AAGjggEOMIIBCjALBgNVHQ8EBAMCBaAwCQYDVR0TBAIwADARBglghkgBhvhCAQEE
BAMCBkAwMwYJYIZIAYb4QgENBCYWJE9wZW5TU0wgR2VuZXJhdGVkIFNlcnZlciBD
ZXJ0aWZpY2F0ZTAdBgNVHQ4EFgQUdVt6SK1HW3ZiIfFzxavCxvkKr8gwdAYDVR0j
BG0wa4AU9KfAzJFGr2TzkfIn+Miyb4qHMnOhSKRGMEQxCzAJBgNVBAYTAkRFMQ8w
DQYDVQQIDAZIZXNzZW4xFDASBgNVBAoMC3ByaXZhY3lpZGVhMQ4wDAYDVQQDDAVD
QTAwMYIJAPvI66yDzRIHMBMGA1UdJQQMMAoGCCsGAQUFBwMBMA0GCSqGSIb3DQEB
BQUAA4IBAQBHQBwDHgNVktQdL+VK9aA1+ByuG8uioFN2HrzDv6MZlspSFiCV05Fq
y20VoX2bbgSPzwl95KDjfxdcbg/iomGeR49p1DuJx/ZHkHU3vU3xSn5G3gxSMEvM
Phvs4lImp4tX4A9TvNguVheiWS+aYlc5hsbqEyxe1FtmkhvDWOgQvhC9gWmOxJZo
XUtm4tktG/iBCmV8MuUk5pk4v0xKG+x7secIWHKK5xxP6dGPaKptLYKdfSRAV7ZJ
DAN1Bh55BU0tD0Yg09kDyet0vZMYchdWWrsJIWTJLJ/PZCdAsgGU7Kwtmis7YTi0
hrEhGd8N4NmlF2FVRrQG30FyclmnEI/Q
-----END CERTIFICATE-----
