Certificate:
    Data:
        Version: 3 (0x2)
        Serial Number: 268435600 (0x10000090)
    Signature Algorithm: sha1WithRSAEncryption
        Issuer: C=DE, ST=Hessen, O=privacyidea, CN=CA001
        Validity
            Not Before: May 21 13:26:44 2015 GMT
            Not After : May 20 13:26:44 2016 GMT
        Subject: C=DE, ST=Hessen, O=privacyidea, CN=usercert
        Subject Public Key Info:
            Public Key Algorithm: rsaEncryption
                Public-Key: (2048 bit)
                Modulus:
                    00:dc:2f:d1:5f:29:97:d4:7c:c3:53:c8:30:bd:4b:
                    67:70:2c:24:6b:b8:5e:eb:21:7a:48:12:56:7c:81:
                    5c:48:75:b6:68:eb:f6:f2:98:4e:50:51:d1:7f:6c:
                    73:f3:0a:a7:ae:be:48:5e:e5:d6:e1:d9:2a:7c:32:
                    6e:4e:fd:08:f6:5a:54:49:23:73:c3:b9:07:18:d1:
                    ef:b3:ac:f8:8a:dc:94:96:a4:90:3a:8e:74:df:e6:
                    0d:37:1b:bd:5b:b7:25:1a:56:39:da:6f:91:aa:5e:
                    1c:74:f3:f9:7c:14:01:83:12:65:76:c7:bb:fe:36:
                    5b:95:e9:72:65:83:ed:3e:98:30:71:fa:87:dd:a3:
                    36:5a:30:03:2e:26:e0:61:d1:bf:02:3f:b6:06:1f:
                    4a:89:28:1c:5c:a2:ff:4e:be:94:e6:8c:e0:da:82:
                    f1:9d:29:32:48:30:73:b4:04:f6:42:1e:be:f7:e2:
                    32:32:27:3c:9d:89:2f:70:3e:85:9a:6f:5c:c5:09:
                    c0:8c:32:2f:72:22:c9:d2:95:1f:b6:ac:72:60:72:
                    b7:82:4d:6b:ce:5b:e3:00:d0:d2:2f:58:c6:e0:10:
                    e5:51:ca:4d:3b:2e:e6:7e:ab:84:d6:56:f1:93:35:
                    a0:93:64:26:81:75:2f:91:b5:16:06:38:0b:db:cc:
                    2d:07
                Exponent: 65537 (0x10001)
        X509v3 extensions:
            X509v3 Key Usage: 
                Digital Signature, Key Encipherment
            X509v3 Basic Constraints: 
                CA:FALSE
            Netscape Cert Type: 
                SSL Server
            Netscape Comment: 
                OpenSSL Generated Server Certificate
            X509v3 Subject Key Identifier: 
                FC:14:D1:F0:4B:8D:00:90:F2:F5:B8:71:9E:4E:97:C3:92:54:AD:0B
            X509v3 Authority Key Identifier: 
                keyid:F4:A7:C0:CC:91:46:AF:64:F3:91:F2:27:F8:C8:B2:6F:8A:87:32:73
                DirName:/C=DE/ST=Hessen/O=privacyidea/CN=CA001
                serial:FB:C8:EB:AC:83:CD:12:07

            X509v3 Extended Key Usage: 
                TLS Web Server Authentication
    Signature Algorithm: sha1WithRSAEncryption
         63:4a:fe:31:20:b0:ff:47:e0:2e:a8:64:81:d8:47:63:06:fb:
         41:91:c8:7b:80:b4:cb:7d:4b:0f:51:87:31:64:e5:fb:ef:1d:
         d7:99:48:19:84:74:22:ee:85:2e:78:53:0e:10:48:05:8d:f3:
         84:40:11:c1:43:ef:5a:bf:36:02:8e:68:ec:30:7e:a8:8d:9b:
         a1:42:da:8b:21:ad:d3:91:f9:27:cd:56:4d:7b:93:fd:85:49:
         ff:a6:d9:42:82:43:64:63:a8:29:06:42:3b:db:c5:71:bd:93:
         ff:a1:95:8c:a7:44:05:77:d5:3c:15:99:b2:f0:ed:36:dd:03:
         08:ed:82:d0:ff:3f:49:1b:db:fc:e2:b8:cf:67:29:3e:7b:a6:
         8b:37:71:f1:e6:c8:61:85:10:9d:7c:3d:af:01:89:72:31:d4:
         47:74:8c:a7:77:2e:c2:e0:3d:af:7b:bc:33:8a:30:c2:45:89:
         67:0c:7f:96:9c:63:ee:7e:62:e1:c3:12:8b:ff:2e:6e:6b:5e:
         6a:13:22:92:6f:9f:59:50:84:f1:ce:5d:40:c2:c6:11:f7:ac:
         e3:aa:c0:c2:36:d2:fc:7a:1e:5e:28:84:11:d1:cd:fa:cf:b7:
         74:c0:6a:82:ab:18:02:97:90:e4:16:3b:46:ea:43:6d:21:e3:
         b0:29:35:7a
-----BEGIN CERTIFICATE-----
MIIEGTCCAwGgAwIBAgIEEAAAkDANBgkqhkiG9w0BAQUFADBEMQswCQYDVQQGEwJE
RTEPMA0GA1UECAwGSGVzc2VuMRQwEgYDVQQKDAtwcml2YWN5aWRlYTEOMAwGA1UE
AwwFQ0EwMDEwHhcNMTUwNTIxMTMyNjQ0WhcNMTYwNTIwMTMyNjQ0WjBHMQswCQYD
VQQGEwJERTEPMA0GA1UECAwGSGVzc2VuMRQwEgYDVQQKDAtwcml2YWN5aWRlYTER
MA8GA1UEAwwIdXNlcmNlcnQwggEiMA0GCSqGSIb3DQEBAQUAA4IBDwAwggEKAoIB
AQDcL9FfKZfUfMNTyDC9S2dwLCRruF7rIXpIElZ8gVxIdbZo6/bymE5QUdF/bHPz
Cqeuvkhe5dbh2Sp8Mm5O/Qj2WlRJI3PDuQcY0e+zrPiK3JSWpJA6jnTf5g03G71b
tyUaVjnab5GqXhx08/l8FAGDEmV2x7v+NluV6XJlg+0+mDBx+ofdozZaMAMuJuBh
0b8CP7YGH0qJKBxcov9OvpTmjODagvGdKTJIMHO0BPZCHr734jIyJzydiS9wPoWa
b1zFCcCMMi9yIsnSlR+2rHJgcreCTWvOW+MA0NIvWMbgEOVRyk07LuZ+q4TWVvGT
NaCTZCaBdS+RtRYGOAvbzC0HAgMBAAGjggEOMIIBCjALBgNVHQ8EBAMCBaAwCQYD
VR0TBAIwADARBglghkgBhvhCAQEEBAMCBkAwMwYJYIZIAYb4QgENBCYWJE9wZW5T
U0wgR2VuZXJhdGVkIFNlcnZlciBDZXJ0aWZpY2F0ZTAdBgNVHQ4EFgQU/BTR8EuN
AJDy9bhxnk6Xw5JUrQswdAYDVR0jBG0wa4AU9KfAzJFGr2TzkfIn+Miyb4qHMnOh
SKRGMEQxCzAJBgNVBAYTAkRFMQ8wDQYDVQQIDAZIZXNzZW4xFDASBgNVBAoMC3By
aXZhY3lpZGVhMQ4wDAYDVQQDDAVDQTAwMYIJAPvI66yDzRIHMBMGA1UdJQQMMAoG
CCsGAQUFBwMBMA0GCSqGSIb3DQEBBQUAA4IBAQBjSv4xILD/R+AuqGSB2EdjBvtB
kch7gLTLfUsPUYcxZOX77x3XmUgZhHQi7oUueFMOEEgFjfOEQBHBQ+9avzYCjmjs
MH6ojZuhQtqLIa3TkfknzVZNe5P9hUn/ptlCgkNkY6gpBkI728VxvZP/oZWMp0QF
d9U8FZmy8O023QMI7YLQ/z9JG9v84rjPZyk+e6aLN3Hx5shhhRCdfD2vAYlyMdRH
dIyndy7C4D2ve7wzijDCRYlnDH+WnGPufmLhwxKL/y5ua15qEyKSb59ZUITxzl1A
wsYR96zjqsDCNtL8eh5eKIQR0c36z7d0wGqCqxgCl5DkFjtG6kNtIeOwKTV6
-----END CERTIFICATE-----
