Certificate:
    Data:
        Version: 3 (0x2)
        Serial Number: 268435591 (0x10000087)
    Signature Algorithm: sha1WithRSAEncryption
        Issuer: C=DE, ST=Hessen, O=privacyidea, CN=CA001
        Validity
            Not Before: May 22 13:05:28 2015 GMT
            Not After : May 21 13:05:28 2016 GMT
        Subject: CN=admin,CN=admin,O=/emailAddress=meine
        Subject Public Key Info:
            Public Key Algorithm: rsaEncryption
                Public-Key: (2048 bit)
                Modulus:
                    00:d9:09:9f:16:09:be:e1:b7:86:d6:6e:a8:14:6d:
                    56:c1:ca:67:77:ca:ab:24:ae:97:f0:f7:70:5c:cd:
                    5d:87:34:32:91:3f:8a:b8:96:62:9b:7e:4c:b3:07:
                    df:df:46:43:72:d1:d8:e2:6f:bc:88:5a:97:0e:09:
                    70:c4:f1:9b:6d:c5:98:8f:ab:43:e6:8e:00:0c:06:
                    00:3e:ca:4e:26:69:04:bd:16:04:14:80:d7:4c:ed:
                    7d:a5:ca:97:5f:7b:7b:97:23:9f:9d:92:25:49:77:
                    24:75:6f:16:63:99:a0:d0:ca:3f:75:f2:9f:d5:bb:
                    ff:98:e5:eb:c4:5e:88:47:5a:df:6b:7a:c7:57:61:
                    e7:ea:ab:9b:ce:20:94:0f:0c:62:f7:2a:ec:10:dd:
                    94:24:19:89:f8:0d:c5:b5:ca:b2:d9:26:0f:0a:df:
                    21:6f:62:b8:48:9e:60:b1:fe:9b:30:79:87:69:8a:
                    d4:03:97:2d:90:cb:22:f5:de:26:6d:1f:76:e2:fb:
                    de:2d:2c:7a:88:02:96:90:6b:33:20:5b:32:e4:08:
                    ba:b0:fa:1f:d7:ed:5e:fa:d9:6c:69:43:a9:81:25:
                    87:96:dc:da:4c:c1:93:c0:b9:50:ea:55:1e:0f:ef:
                    81:00:6b:25:01:4d:ab:9b:21:26:c1:4f:10:55:cc:
                    76:07
                Exponent: 65537 (0x10001)
        X509v3 extensions:
            X509v3 Key Usage: 
                Digital Signature, Key Encipherment
            X509v3 Basic Constraints: 
                CA:FALSE
            Netscape Cert Type: 
                SSL Server
            Netscape Comment: 
                OpenSSL Generated Server Certificate
            X509v3 Subject Key Identifier: 
                D3:FE:3D:FD:49:36:C8:1F:C2:95:6B:38:9E:B3:07:F0:0B:8C:7B:A3
            X509v3 Authority Key Identifier: 
                keyid:F4:A7:C0:CC:91:46:AF:64:F3:91:F2:27:F8:C8:B2:6F:8A:87:32:73
                DirName:/C=DE/ST=Hessen/O=privacyidea/CN=CA001
                serial:FB:C8:EB:AC:83:CD:12:07

            X509v3 Extended Key Usage: 
                TLS Web Server Authentication
    Signature Algorithm: sha1WithRSAEncryption
         5a:5e:dc:bb:da:41:7e:65:fb:03:f4:3f:bd:e3:ba:d7:3d:3f:
         47:49:7e:91:be:84:e3:57:f0:70:2a:15:23:8c:00:90:0e:30:
         e6:26:7f:db:69:05:3d:31:b1:95:d5:65:a4:3f:bf:55:b2:a5:
         4f:13:6c:ea:ba:09:c4:c0:b9:12:3a:f6:28:63:c2:01:b9:c6:
         94:9a:1b:14:e6:3a:43:29:8a:02:c6:6f:f7:bf:f4:12:c4:6c:
         1a:e7:26:f9:64:c4:54:85:cd:df:d9:1a:1b:cc:6b:6b:0a:24:
         ab:96:20:6f:98:26:52:ec:58:59:97:5c:10:95:4d:cd:56:99:
         15:73:a1:cf:6c:e8:3b:7c:41:b8:c7:8c:c7:5f:65:22:a3:cb:
         4f:d6:45:51:bf:91:b7:61:ad:cc:26:29:00:49:0b:e9:05:31:
         27:40:2f:bc:43:15:23:d7:37:ba:de:7b:88:11:63:ec:10:f9:
         ba:a5:9b:17:eb:9e:23:7a:96:4e:f2:ac:c3:6c:11:c8:23:e3:
         a5:41:2c:d4:bf:53:42:34:24:2b:f3:7a:ac:7f:16:24:a8:20:
         8a:55:3a:8e:a8:7c:2f:e9:c0:42:5a:29:63:c5:dc:5e:e4:d2:
         01:7a:de:bf:0f:1d:e2:58:3c:78:07:b7:a8:22:3f:6d:bd:df:
         66:4f:07:ed
-----BEGIN CERTIFICATE-----
MIIEBDCCAuygAwIBAgIEEAAAhzANBgkqhkiG9w0BAQUFADBEMQswCQYDVQQGEwJE
RTEPMA0GA1UECAwGSGVzc2VuMRQwEgYDVQQKDAtwcml2YWN5aWRlYTEOMAwGA1UE
AwwFQ0EwMDEwHhcNMTUwNTIyMTMwNTI4WhcNMTYwNTIxMTMwNTI4WjAyMRowGAYD
VQQDExFhZG1pbixDTj1hZG1pbixPPTEUMBIGCSqGSIb3DQEJARYFbWVpbmUwggEi
MA0GCSqGSIb3DQEBAQUAA4IBDwAwggEKAoIBAQDZCZ8WCb7ht4bWbqgUbVbBymd3
yqskrpfw93BczV2HNDKRP4q4lmKbfkyzB9/fRkNy0djib7yIWpcOCXDE8ZttxZiP
q0PmjgAMBgA+yk4maQS9FgQUgNdM7X2lypdfe3uXI5+dkiVJdyR1bxZjmaDQyj91
8p/Vu/+Y5evEXohHWt9resdXYefqq5vOIJQPDGL3KuwQ3ZQkGYn4DcW1yrLZJg8K
3yFvYrhInmCx/psweYdpitQDly2QyyL13iZtH3bi+94tLHqIApaQazMgWzLkCLqw
+h/X7V762WxpQ6mBJYeW3NpMwZPAuVDqVR4P74EAayUBTaubISbBTxBVzHYHAgMB
AAGjggEOMIIBCjALBgNVHQ8EBAMCBaAwCQYDVR0TBAIwADARBglghkgBhvhCAQEE
BAMCBkAwMwYJYIZIAYb4QgENBCYWJE9wZW5TU0wgR2VuZXJhdGVkIFNlcnZlciBD
ZXJ0aWZpY2F0ZTAdBgNVHQ4EFgQU0/49/Uk2yB/ClWs4nrMH8AuMe6MwdAYDVR0j
BG0wa4AU9KfAzJFGr2TzkfIn+Miyb4qHMnOhSKRGMEQxCzAJBgNVBAYTAkRFMQ8w
DQYDVQQIDAZIZXNzZW4xFDASBgNVBAoMC3ByaXZhY3lpZGVhMQ4wDAYDVQQDDAVD
QTAwMYIJAPvI66yDzRIHMBMGA1UdJQQMMAoGCCsGAQUFBwMBMA0GCSqGSIb3DQEB
BQUAA4IBAQBaXty72kF+ZfsD9D+947rXPT9HSX6RvoTjV/BwKhUjjACQDjDmJn/b
aQU9MbGV1WWkP79VsqVPE2zqugnEwLkSOvYoY8IBucaUmhsU5jpDKYoCxm/3v/QS
xGwa5yb5ZMRUhc3f2RobzGtrCiSrliBvmCZS7FhZl1wQlU3NVpkVc6HPbOg7fEG4
x4zHX2Uio8tP1kVRv5G3Ya3MJikASQvpBTEnQC+8QxUj1ze63nuIEWPsEPm6pZsX
654jepZO8qzDbBHII+OlQSzUv1NCNCQr83qsfxYkqCCKVTqOqHwv6cBCWiljxdxe
5NIBet6/Dx3iWDx4B7eoIj9tvd9mTwft
-----END CERTIFICATE-----
