Certificate:
    Data:
        Version: 3 (0x2)
        Serial Number: 268435647 (0x100000bf)
    Signature Algorithm: sha1WithRSAEncryption
        Issuer: C=DE, ST=Hessen, O=privacyidea, CN=CA001
        Validity
            Not Before: May 21 19:34:56 2015 GMT
            Not After : May 20 19:34:56 2016 GMT
        Subject: CN=None/emailAddress=meine
        Subject Public Key Info:
            Public Key Algorithm: rsaEncryption
                Public-Key: (2048 bit)
                Modulus:
                    00:ef:d9:ad:1a:63:bc:8e:be:4c:17:00:ac:6d:f9:
                    e5:34:7f:26:ed:a9:32:f4:67:11:eb:b1:5c:23:88:
                    0c:74:d6:fe:a0:38:ee:85:59:c9:40:1a:93:62:f2:
                    1e:4e:ba:ba:e1:45:e3:bd:6a:7f:4a:33:4b:f2:9e:
                    16:06:87:88:ca:f4:31:3e:ee:2a:71:5b:76:b9:28:
                    1b:bf:ca:95:37:2e:01:fd:20:0d:53:b3:f6:c6:51:
                    2a:02:77:23:a8:f0:29:d7:48:1c:2b:a6:7e:35:ab:
                    bd:96:e1:8c:4e:45:46:e6:65:dd:bf:09:ca:99:aa:
                    1f:24:c5:92:36:c5:3f:ce:d1:c3:6e:8f:a4:81:12:
                    9a:57:00:1e:b1:6c:7a:53:f6:7c:a5:d6:a9:b2:30:
                    68:f6:7d:df:66:4c:56:01:40:95:13:62:29:75:d6:
                    cf:5e:27:f5:23:87:17:dc:a5:5e:75:70:96:61:c6:
                    3d:67:1b:f1:c3:fb:d7:9c:58:8e:7c:9e:b2:21:fc:
                    98:bb:b6:b9:4d:5b:03:fa:a3:8f:a4:93:90:8c:83:
                    34:96:83:70:75:a3:8f:2d:6a:59:0d:6d:a3:db:8e:
                    85:84:b3:56:c9:46:b1:b5:eb:71:1f:63:52:69:dc:
                    c0:5e:f0:da:2c:fa:5b:ca:e8:d2:a5:91:c7:20:6e:
                    95:eb
                Exponent: 65537 (0x10001)
        X509v3 extensions:
            X509v3 Key Usage: 
                Digital Signature, Key Encipherment
            X509v3 Basic Constraints: 
                CA:FALSE
            Netscape Cert Type: 
                SSL Server
            Netscape Comment: 
                OpenSSL Generated Server Certificate
            X509v3 Subject Key Identifier: 
                C4:DF:5E:3F:A8:86:B1:B6:50:C9:F0:D0:29:20:D3:F9:89:56:61:3F
            X509v3 Authority Key Identifier: 
                keyid:F4:A7:C0:CC:91:46:AF:64:F3:91:F2:27:F8:C8:B2:6F:8A:87:32:73
                DirName:/C=DE/ST=Hessen/O=privacyidea/CN=CA001
                serial:FB:C8:EB:AC:83:CD:12:07

            X509v3 Extended Key Usage: 
                TLS Web Server Authentication
    Signature Algorithm: sha1WithRSAEncryption
         85:a7:fc:af:36:42:74:82:ac:76:70:56:c7:8f:d0:8f:cd:34:
         1e:2b:1e:3a:28:71:b4:4e:de:1e:95:07:38:bb:1d:15:fb:0d:
         09:f1:f9:ca:9e:d6:a3:e2:0a:39:59:3c:80:7a:61:c5:32:65:
         c2:57:f5:28:6a:72:42:1a:28:8f:fa:32:db:6e:80:cc:7a:9a:
         2d:d5:68:bd:df:f4:9e:87:d3:c8:e8:2f:b6:41:1c:97:e5:ba:
         03:bc:b5:12:a7:c0:eb:80:5d:74:bb:eb:68:53:3e:dc:8b:f0:
         a1:b8:23:f5:6d:f4:12:ce:cc:a9:67:42:fc:2a:3f:f1:c3:5c:
         a9:ba:7f:c6:18:88:f4:a7:6d:15:ce:81:47:e6:d8:33:07:28:
         8e:4c:40:a1:01:82:80:90:6d:3a:78:4c:95:b6:ef:d0:de:ee:
         2f:6d:53:5d:8d:f6:d7:58:5b:1e:b5:4c:02:9a:5e:73:fe:f7:
         05:69:4f:b8:b2:8f:9b:67:10:33:44:d9:31:57:22:b5:ef:19:
         1e:67:f3:76:cf:98:63:16:3a:00:c8:a8:e9:29:f9:96:a4:fe:
         5b:71:be:d7:50:da:1d:f5:49:4f:55:fc:38:40:33:86:f6:ef:
         90:5d:a1:09:e4:23:6f:13:85:9a:dd:1a:38:c0:79:20:04:e9:
         c5:33:2a:94
-----BEGIN CERTIFICATE-----
MIID9zCCAt+gAwIBAgIEEAAAvzANBgkqhkiG9w0BAQUFADBEMQswCQYDVQQGEwJE
RTEPMA0GA1UECAwGSGVzc2VuMRQwEgYDVQQKDAtwcml2YWN5aWRlYTEOMAwGA1UE
AwwFQ0EwMDEwHhcNMTUwNTIxMTkzNDU2WhcNMTYwNTIwMTkzNDU2WjAlMQ0wCwYD
VQQDEwROb25lMRQwEgYJKoZIhvcNAQkBFgVtZWluZTCCASIwDQYJKoZIhvcNAQEB
BQADggEPADCCAQoCggEBAO/ZrRpjvI6+TBcArG355TR/Ju2pMvRnEeuxXCOIDHTW
/qA47oVZyUAak2LyHk66uuFF471qf0ozS/KeFgaHiMr0MT7uKnFbdrkoG7/KlTcu
Af0gDVOz9sZRKgJ3I6jwKddIHCumfjWrvZbhjE5FRuZl3b8JypmqHyTFkjbFP87R
w26PpIESmlcAHrFselP2fKXWqbIwaPZ932ZMVgFAlRNiKXXWz14n9SOHF9ylXnVw
lmHGPWcb8cP715xYjnyesiH8mLu2uU1bA/qjj6STkIyDNJaDcHWjjy1qWQ1to9uO
hYSzVslGsbXrcR9jUmncwF7w2iz6W8ro0qWRxyBulesCAwEAAaOCAQ4wggEKMAsG
A1UdDwQEAwIFoDAJBgNVHRMEAjAAMBEGCWCGSAGG+EIBAQQEAwIGQDAzBglghkgB
hvhCAQ0EJhYkT3BlblNTTCBHZW5lcmF0ZWQgU2VydmVyIENlcnRpZmljYXRlMB0G
A1UdDgQWBBTE314/qIaxtlDJ8NApINP5iVZhPzB0BgNVHSMEbTBrgBT0p8DMkUav
ZPOR8if4yLJviocyc6FIpEYwRDELMAkGA1UEBhMCREUxDzANBgNVBAgMBkhlc3Nl
bjEUMBIGA1UECgwLcHJpdmFjeWlkZWExDjAMBgNVBAMMBUNBMDAxggkA+8jrrIPN
EgcwEwYDVR0lBAwwCgYIKwYBBQUHAwEwDQYJKoZIhvcNAQEFBQADggEBAIWn/K82
QnSCrHZwVseP0I/NNB4rHjoocbRO3h6VBzi7HRX7DQnx+cqe1qPiCjlZPIB6YcUy
ZcJX9ShqckIaKI/6MttugMx6mi3VaL3f9J6H08joL7ZBHJflugO8tRKnwOuAXXS7
62hTPtyL8KG4I/Vt9BLOzKlnQvwqP/HDXKm6f8YYiPSnbRXOgUfm2DMHKI5MQKEB
goCQbTp4TJW279De7i9tU12N9tdYWx61TAKaXnP+9wVpT7iyj5tnEDNE2TFXIrXv
GR5n83bPmGMWOgDIqOkp+Zak/ltxvtdQ2h31SU9V/DhAM4b275BdoQnkI28ThZrd
GjjAeSAE6cUzKpQ=
-----END CERTIFICATE-----
