Certificate:
    Data:
        Version: 3 (0x2)
        Serial Number: 268435610 (0x1000009a)
    Signature Algorithm: sha1WithRSAEncryption
        Issuer: C=DE, ST=Hessen, O=privacyidea, CN=CA001
        Validity
            Not Before: May 21 13:34:21 2015 GMT
            Not After : May 20 13:34:21 2016 GMT
        Subject: CN=Steve Test/emailAddress=steve@openssl.org
        Subject Public Key Info:
            Public Key Algorithm: rsaEncryption
                Public-Key: (2048 bit)
                Modulus:
                    00:d2:81:89:20:51:48:0f:73:f4:11:32:24:d5:1f:
                    1c:fd:5c:f5:b6:e6:c5:f0:52:81:dc:d2:af:66:4a:
                    7c:93:31:61:5c:af:d1:6d:06:70:03:60:7c:72:0c:
                    88:dd:49:cd:9e:02:6c:d2:5a:d7:53:0f:f3:da:be:
                    69:64:b5:0f:0c:00:e3:b3:50:47:a3:b3:9b:ba:13:
                    50:d6:58:5a:4b:ab:39:e0:11:ca:0a:27:67:03:78:
                    22:66:6d:92:1e:1b:5c:49:ae:e6:6b:d1:8e:3b:9d:
                    06:d3:c6:ac:4d:53:43:10:ab:e8:96:c1:87:82:97:
                    99:8f:20:d3:99:12:37:31:84:e1:8a:ff:29:03:5f:
                    22:90:3e:7f:9b:e0:20:c1:ad:dc:ae:4c:39:1a:31:
                    96:17:02:8c:b2:d9:b4:0d:20:12:9b:7d:86:54:fd:
                    33:fd:c1:2a:62:46:f8:60:96:cf:6e:01:6f:22:df:
                    13:47:e7:97:ec:05:72:23:a3:62:f8:fa:ef:ac:9c:
                    72:f0:37:cb:2f:37:cf:90:a8:27:51:86:c6:d7:78:
                    08:8f:7e:25:a2:15:70:a2:fb:1c:b6:15:5e:a0:97:
                    8b:81:4c:09:28:8a:27:3b:94:bc:71:db:5b:71:37:
                    9a:2b:16:e0:6f:b5:c9:f5:4b:4f:20:ba:65:cf:af:
                    ad:ad
                Exponent: 65537 (0x10001)
        X509v3 extensions:
            X509v3 Key Usage: 
                Digital Signature, Key Encipherment
            X509v3 Basic Constraints: 
                CA:FALSE
            Netscape Cert Type: 
                SSL Server
            Netscape Comment: 
                OpenSSL Generated Server Certificate
            X509v3 Subject Key Identifier: 
                E5:25:6D:3E:AF:0D:DD:3F:4C:F2:45:19:39:D5:14:DB:7E:9C:C0:AD
            X509v3 Authority Key Identifier: 
                keyid:F4:A7:C0:CC:91:46:AF:64:F3:91:F2:27:F8:C8:B2:6F:8A:87:32:73
                DirName:/C=DE/ST=Hessen/O=privacyidea/CN=CA001
                serial:FB:C8:EB:AC:83:CD:12:07

            X509v3 Extended Key Usage: 
                TLS Web Server Authentication
    Signature Algorithm: sha1WithRSAEncryption
         5d:c2:59:a1:c7:20:6b:95:f3:7d:31:c7:e5:4b:40:7f:52:ff:
         b3:91:82:0d:83:20:d7:c7:20:b1:19:0b:a1:8f:b7:4b:36:c4:
         ba:22:e1:b3:7a:a0:4a:5c:96:a1:68:89:63:59:1d:2d:ca:cb:
         3f:76:a7:28:e7:44:12:44:57:cf:62:7e:b2:6d:c7:47:cf:57:
         d7:7d:02:88:ee:61:b7:c5:7a:c3:2c:73:9f:4c:c8:40:a8:09:
         bc:c4:35:4c:7c:42:9b:0f:fb:8e:ce:70:ef:05:bc:31:67:47:
         c1:b9:2d:23:02:b9:91:59:7d:31:97:15:a0:98:64:92:1f:03:
         c7:42:8f:a9:2d:5c:6d:eb:12:d8:4f:b3:ab:70:7e:09:b1:93:
         8f:27:e9:07:97:21:54:d8:1b:c2:ac:b4:b0:e4:bc:de:48:25:
         d3:c0:c4:09:a7:85:6c:ea:4c:15:4f:e5:75:d2:34:fb:14:30:
         d4:27:50:5f:9f:47:d6:1c:46:ce:9f:92:87:e9:a3:93:97:6a:
         d3:b3:c3:64:77:48:cf:b5:81:e1:c0:1a:81:a6:cf:8d:f2:1a:
         6d:c5:dc:4c:fc:bb:08:c5:ce:05:89:83:0a:e3:3b:2f:22:ab:
         79:ec:76:45:56:b7:3e:6a:47:93:98:34:7d:75:60:9c:03:31:
         9a:ec:77:2b
-----BEGIN CERTIFICATE-----
MIIECTCCAvGgAwIBAgIEEAAAmjANBgkqhkiG9w0BAQUFADBEMQswCQYDVQQGEwJE
RTEPMA0GA1UECAwGSGVzc2VuMRQwEgYDVQQKDAtwcml2YWN5aWRlYTEOMAwGA1UE
AwwFQ0EwMDEwHhcNMTUwNTIxMTMzNDIxWhcNMTYwNTIwMTMzNDIxWjA3MRMwEQYD
VQQDEwpTdGV2ZSBUZXN0MSAwHgYJKoZIhvcNAQkBFhFzdGV2ZUBvcGVuc3NsLm9y
ZzCCASIwDQYJKoZIhvcNAQEBBQADggEPADCCAQoCggEBANKBiSBRSA9z9BEyJNUf
HP1c9bbmxfBSgdzSr2ZKfJMxYVyv0W0GcANgfHIMiN1JzZ4CbNJa11MP89q+aWS1
DwwA47NQR6Ozm7oTUNZYWkurOeARygonZwN4ImZtkh4bXEmu5mvRjjudBtPGrE1T
QxCr6JbBh4KXmY8g05kSNzGE4Yr/KQNfIpA+f5vgIMGt3K5MORoxlhcCjLLZtA0g
Ept9hlT9M/3BKmJG+GCWz24BbyLfE0fnl+wFciOjYvj676yccvA3yy83z5CoJ1GG
xtd4CI9+JaIVcKL7HLYVXqCXi4FMCSiKJzuUvHHbW3E3misW4G+1yfVLTyC6Zc+v
ra0CAwEAAaOCAQ4wggEKMAsGA1UdDwQEAwIFoDAJBgNVHRMEAjAAMBEGCWCGSAGG
+EIBAQQEAwIGQDAzBglghkgBhvhCAQ0EJhYkT3BlblNTTCBHZW5lcmF0ZWQgU2Vy
dmVyIENlcnRpZmljYXRlMB0GA1UdDgQWBBTlJW0+rw3dP0zyRRk51RTbfpzArTB0
BgNVHSMEbTBrgBT0p8DMkUavZPOR8if4yLJviocyc6FIpEYwRDELMAkGA1UEBhMC
REUxDzANBgNVBAgMBkhlc3NlbjEUMBIGA1UECgwLcHJpdmFjeWlkZWExDjAMBgNV
BAMMBUNBMDAxggkA+8jrrIPNEgcwEwYDVR0lBAwwCgYIKwYBBQUHAwEwDQYJKoZI
hvcNAQEFBQADggEBAF3CWaHHIGuV830xx+VLQH9S/7ORgg2DINfHILEZC6GPt0s2
xLoi4bN6oEpclqFoiWNZHS3Kyz92pyjnRBJEV89ifrJtx0fPV9d9AojuYbfFesMs
c59MyECoCbzENUx8QpsP+47OcO8FvDFnR8G5LSMCuZFZfTGXFaCYZJIfA8dCj6kt
XG3rEthPs6twfgmxk48n6QeXIVTYG8KstLDkvN5IJdPAxAmnhWzqTBVP5XXSNPsU
MNQnUF+fR9YcRs6fkofpo5OXatOzw2R3SM+1geHAGoGmz43yGm3F3Ez8uwjFzgWJ
gwrjOy8iq3nsdkVWtz5qR5OYNH11YJwDMZrsdys=
-----END CERTIFICATE-----
