Certificate:
    Data:
        Version: 3 (0x2)
        Serial Number: 268435644 (0x100000bc)
    Signature Algorithm: sha1WithRSAEncryption
        Issuer: C=DE, ST=Hessen, O=privacyidea, CN=CA001
        Validity
            Not Before: May 21 15:50:07 2015 GMT
            Not After : May 20 15:50:07 2016 GMT
        Subject: CN=asdf/emailAddress=meine
        Subject Public Key Info:
            Public Key Algorithm: rsaEncryption
                Public-Key: (2048 bit)
                Modulus:
                    00:ed:61:51:14:ee:2f:0f:2f:25:b5:91:6c:1a:62:
                    50:35:4f:f8:e1:52:ae:fa:31:be:98:80:8c:3d:64:
                    01:ff:96:5c:1f:c1:cb:62:09:3c:ea:38:80:c6:7d:
                    d3:bd:f5:03:b7:f0:f8:20:f9:0a:ec:f7:e9:65:8e:
                    64:c4:1d:09:97:b3:51:e4:e8:66:dd:a8:48:f9:6b:
                    97:88:e7:f3:3f:b7:75:da:ce:28:93:d6:99:ea:11:
                    a7:41:ab:5a:60:51:07:e8:9b:81:28:bd:e7:de:0d:
                    1c:99:ca:8b:f5:09:a0:73:28:39:e3:9c:99:66:4d:
                    09:bd:8a:00:66:87:31:0b:b3:03:ea:a8:b5:6f:08:
                    c5:fe:7f:05:72:cb:61:73:fc:b4:c8:21:1e:1a:c7:
                    d6:68:33:86:0a:16:52:14:e2:22:37:d9:bb:77:c3:
                    6f:a8:2d:e3:49:db:cf:d8:66:23:c6:0a:a9:36:f6:
                    ce:5f:16:fe:14:86:d1:4a:17:8e:bb:de:52:cf:d9:
                    19:f7:1a:fc:33:62:e0:61:17:8a:96:68:4f:91:c5:
                    b4:19:13:8b:ef:96:d1:bf:8d:e9:46:8c:2b:5f:9f:
                    a7:63:3d:d7:d1:41:f9:b6:a9:39:c3:e2:00:b3:61:
                    7f:21:81:f0:ca:03:d9:3f:db:e5:3d:39:a8:d8:10:
                    ab:e3
                Exponent: 65537 (0x10001)
        X509v3 extensions:
            X509v3 Key Usage: 
                Digital Signature, Key Encipherment
            X509v3 Basic Constraints: 
                CA:FALSE
            Netscape Cert Type: 
                SSL Server
            Netscape Comment: 
                OpenSSL Generated Server Certificate
            X509v3 Subject Key Identifier: 
                91:F9:00:30:64:3A:10:BB:50:5A:C5:D1:FA:EE:0A:93:0F:60:98:77
            X509v3 Authority Key Identifier: 
                keyid:F4:A7:C0:CC:91:46:AF:64:F3:91:F2:27:F8:C8:B2:6F:8A:87:32:73
                DirName:/C=DE/ST=Hessen/O=privacyidea/CN=CA001
                serial:FB:C8:EB:AC:83:CD:12:07

            X509v3 Extended Key Usage: 
                TLS Web Server Authentication
    Signature Algorithm: sha1WithRSAEncryption
         27:5c:9c:55:92:58:fb:14:dc:9e:fe:5d:e6:a5:68:18:22:89:
         af:c6:c9:c0:06:ed:cf:92:ce:60:34:76:7d:a7:5a:a2:b6:0a:
         b9:93:42:c7:49:de:c8:6f:4f:64:f0:27:e7:4b:9c:3c:c7:a6:
         06:e2:5b:a6:89:7c:4b:ea:4d:46:f8:68:5a:cc:b1:15:91:e9:
         c2:e4:24:37:cc:4a:17:8f:c0:fc:32:ae:3a:f0:35:b4:ea:84:
         a8:1d:2d:33:49:31:fe:bd:b7:d2:1d:44:a3:a1:37:06:f6:c0:
         08:cf:f0:e0:87:67:a3:5a:5f:6e:58:09:58:c2:d5:d9:e2:2c:
         59:d0:a7:c7:17:a5:af:e4:8f:88:05:98:54:36:a2:fc:4a:b8:
         f8:2e:d9:29:00:df:33:b6:24:88:af:ab:c5:e3:cc:13:93:46:
         b4:a0:80:a0:ba:dd:46:db:73:26:ce:81:4b:af:99:ea:ef:d6:
         cf:64:4a:f3:a2:8b:da:e4:89:62:d2:6d:99:19:f7:c9:6d:f8:
         2a:19:1d:7e:fb:ab:4a:27:c4:75:b5:28:15:48:5f:3b:bc:b1:
         39:7e:77:01:6f:71:ea:27:01:58:73:67:35:9f:a6:6a:7d:28:
         de:b8:9d:ac:90:14:6d:b9:27:59:28:74:a9:2c:fb:5f:3c:1d:
         60:08:4d:b9
-----BEGIN CERTIFICATE-----
MIID9zCCAt+gAwIBAgIEEAAAvDANBgkqhkiG9w0BAQUFADBEMQswCQYDVQQGEwJE
RTEPMA0GA1UECAwGSGVzc2VuMRQwEgYDVQQKDAtwcml2YWN5aWRlYTEOMAwGA1UE
AwwFQ0EwMDEwHhcNMTUwNTIxMTU1MDA3WhcNMTYwNTIwMTU1MDA3WjAlMQ0wCwYD
VQQDEwRhc2RmMRQwEgYJKoZIhvcNAQkBFgVtZWluZTCCASIwDQYJKoZIhvcNAQEB
BQADggEPADCCAQoCggEBAO1hURTuLw8vJbWRbBpiUDVP+OFSrvoxvpiAjD1kAf+W
XB/By2IJPOo4gMZ90731A7fw+CD5Cuz36WWOZMQdCZezUeToZt2oSPlrl4jn8z+3
ddrOKJPWmeoRp0GrWmBRB+ibgSi9594NHJnKi/UJoHMoOeOcmWZNCb2KAGaHMQuz
A+qotW8Ixf5/BXLLYXP8tMghHhrH1mgzhgoWUhTiIjfZu3fDb6gt40nbz9hmI8YK
qTb2zl8W/hSG0UoXjrveUs/ZGfca/DNi4GEXipZoT5HFtBkTi++W0b+N6UaMK1+f
p2M919FB+bapOcPiALNhfyGB8MoD2T/b5T05qNgQq+MCAwEAAaOCAQ4wggEKMAsG
A1UdDwQEAwIFoDAJBgNVHRMEAjAAMBEGCWCGSAGG+EIBAQQEAwIGQDAzBglghkgB
hvhCAQ0EJhYkT3BlblNTTCBHZW5lcmF0ZWQgU2VydmVyIENlcnRpZmljYXRlMB0G
A1UdDgQWBBSR+QAwZDoQu1BaxdH67gqTD2CYdzB0BgNVHSMEbTBrgBT0p8DMkUav
ZPOR8if4yLJviocyc6FIpEYwRDELMAkGA1UEBhMCREUxDzANBgNVBAgMBkhlc3Nl
bjEUMBIGA1UECgwLcHJpdmFjeWlkZWExDjAMBgNVBAMMBUNBMDAxggkA+8jrrIPN
EgcwEwYDVR0lBAwwCgYIKwYBBQUHAwEwDQYJKoZIhvcNAQEFBQADggEBACdcnFWS
WPsU3J7+XealaBgiia/GycAG7c+SzmA0dn2nWqK2CrmTQsdJ3shvT2TwJ+dLnDzH
pgbiW6aJfEvqTUb4aFrMsRWR6cLkJDfMShePwPwyrjrwNbTqhKgdLTNJMf69t9Id
RKOhNwb2wAjP8OCHZ6NaX25YCVjC1dniLFnQp8cXpa/kj4gFmFQ2ovxKuPgu2SkA
3zO2JIivq8XjzBOTRrSggKC63UbbcybOgUuvmerv1s9kSvOii9rkiWLSbZkZ98lt
+CoZHX77q0onxHW1KBVIXzu8sTl+dwFvceonAVhzZzWfpmp9KN64nayQFG25J1ko
dKks+188HWAITbk=
-----END CERTIFICATE-----
