Certificate:
    Data:
        Version: 3 (0x2)
        Serial Number: 268435592 (0x10000088)
    Signature Algorithm: sha1WithRSAEncryption
        Issuer: C=DE, ST=Hessen, O=privacyidea, CN=CA001
        Validity
            Not Before: May 22 07:55:07 2015 GMT
            Not After : May 21 07:55:07 2016 GMT
        Subject: CN=selfservice,CN=user,O=realm1/emailAddress=meine
        Subject Public Key Info:
            Public Key Algorithm: rsaEncryption
                Public-Key: (2048 bit)
                Modulus:
                    00:cf:3c:d4:33:0e:12:c4:e6:da:cd:b6:56:a1:1c:
                    26:bb:26:1c:8a:4a:73:a8:58:8a:b6:1e:b3:8b:99:
                    d2:1d:07:c2:92:89:79:c0:69:d8:c8:df:28:61:98:
                    1e:b3:fe:ae:2b:bd:78:a9:f7:6e:47:dc:a3:a0:16:
                    8c:85:02:c1:4e:92:fd:72:6e:f0:c8:03:29:9b:b8:
                    00:6e:c0:83:95:c8:34:20:36:9c:b3:e5:e4:e6:76:
                    73:a3:1a:ad:40:96:e0:53:54:00:ec:76:79:9a:c6:
                    0d:7e:b6:bd:29:ec:83:f3:cb:89:a4:cb:6c:00:ba:
                    0c:c5:78:0f:ff:69:b8:94:f4:04:70:43:3f:d8:9e:
                    d7:a7:fb:5d:ce:75:8e:da:e7:c4:07:b1:9d:de:6f:
                    88:4b:b6:4d:9a:cf:f9:bc:fa:9f:cd:32:6d:f6:3a:
                    0b:0d:23:42:78:ec:97:42:bf:0e:4d:60:56:e1:d3:
                    02:f2:19:cb:84:57:90:e5:70:a1:a2:83:35:86:e2:
                    da:86:9f:f9:8a:c4:79:b3:52:28:da:cb:bb:34:ca:
                    d3:da:91:4a:cf:8d:76:a2:b2:6b:9b:f9:96:fd:09:
                    2a:da:11:23:4d:f0:cb:d6:b2:b1:0e:12:6c:9a:19:
                    65:98:87:ca:e4:ee:24:ce:44:ac:90:8f:9d:1b:c5:
                    2a:9d
                Exponent: 65537 (0x10001)
        X509v3 extensions:
            X509v3 Key Usage: 
                Digital Signature, Key Encipherment
            X509v3 Basic Constraints: 
                CA:FALSE
            Netscape Cert Type: 
                SSL Server
            Netscape Comment: 
                OpenSSL Generated Server Certificate
            X509v3 Subject Key Identifier: 
                4D:07:90:AD:FF:1D:0D:E7:1A:DD:D6:2E:FA:BA:34:CB:AA:1F:24:C6
            X509v3 Authority Key Identifier: 
                keyid:F4:A7:C0:CC:91:46:AF:64:F3:91:F2:27:F8:C8:B2:6F:8A:87:32:73
                DirName:/C=DE/ST=Hessen/O=privacyidea/CN=CA001
                serial:FB:C8:EB:AC:83:CD:12:07

            X509v3 Extended Key Usage: 
                TLS Web Server Authentication
    Signature Algorithm: sha1WithRSAEncryption
         35:f8:65:a1:8c:b1:ad:88:4a:68:8b:f1:bd:3a:18:45:33:d3:
         fd:49:46:64:5e:2c:26:95:5d:2a:82:42:cd:84:e7:38:83:ac:
         1b:18:01:42:f5:9c:9b:5a:f8:3d:cd:f6:0d:6e:f0:8b:d0:d2:
         51:2c:b6:41:3c:50:8e:72:71:12:7b:dd:9b:e9:84:c6:a6:2f:
         c8:b8:e1:ba:cd:b0:ab:cc:cb:b7:de:75:95:c3:26:1d:7d:20:
         98:51:a8:d7:68:74:d4:5a:e5:e6:5b:65:48:25:96:70:8d:27:
         26:6b:97:40:77:42:46:cb:7a:c2:d3:0c:df:cd:2e:ea:38:f0:
         59:59:62:15:f2:99:50:19:c4:43:d9:de:b1:de:41:20:a9:69:
         44:c8:58:3c:44:41:6e:53:1e:81:b5:1e:3a:05:75:1a:b4:a1:
         87:00:47:25:ff:c9:f3:30:58:d5:4b:0a:e6:5d:53:35:d8:8b:
         f0:0f:01:ad:41:94:31:cd:6b:a9:36:97:f2:87:2c:77:41:40:
         e3:31:78:f8:c6:ed:8f:68:e9:6d:5e:15:b2:b2:bd:78:92:d0:
         51:98:b6:65:39:90:06:6a:28:c3:41:48:da:7c:f2:d7:c6:6c:
         21:6a:71:12:f5:be:a2:49:87:a8:02:91:37:35:8a:17:c9:f8:
         b3:38:43:60
-----BEGIN CERTIFICATE-----
MIIEDzCCAvegAwIBAgIEEAAAiDANBgkqhkiG9w0BAQUFADBEMQswCQYDVQQGEwJE
RTEPMA0GA1UECAwGSGVzc2VuMRQwEgYDVQQKDAtwcml2YWN5aWRlYTEOMAwGA1UE
AwwFQ0EwMDEwHhcNMTUwNTIyMDc1NTA3WhcNMTYwNTIxMDc1NTA3WjA9MSUwIwYD
VQQDExxzZWxmc2VydmljZSxDTj11c2VyLE89cmVhbG0xMRQwEgYJKoZIhvcNAQkB
FgVtZWluZTCCASIwDQYJKoZIhvcNAQEBBQADggEPADCCAQoCggEBAM881DMOEsTm
2s22VqEcJrsmHIpKc6hYirYes4uZ0h0HwpKJecBp2MjfKGGYHrP+riu9eKn3bkfc
o6AWjIUCwU6S/XJu8MgDKZu4AG7Ag5XINCA2nLPl5OZ2c6MarUCW4FNUAOx2eZrG
DX62vSnsg/PLiaTLbAC6DMV4D/9puJT0BHBDP9ie16f7Xc51jtrnxAexnd5viEu2
TZrP+bz6n80ybfY6Cw0jQnjsl0K/Dk1gVuHTAvIZy4RXkOVwoaKDNYbi2oaf+YrE
ebNSKNrLuzTK09qRSs+NdqKya5v5lv0JKtoRI03wy9aysQ4SbJoZZZiHyuTuJM5E
rJCPnRvFKp0CAwEAAaOCAQ4wggEKMAsGA1UdDwQEAwIFoDAJBgNVHRMEAjAAMBEG
CWCGSAGG+EIBAQQEAwIGQDAzBglghkgBhvhCAQ0EJhYkT3BlblNTTCBHZW5lcmF0
ZWQgU2VydmVyIENlcnRpZmljYXRlMB0GA1UdDgQWBBRNB5Ct/x0N5xrd1i76ujTL
qh8kxjB0BgNVHSMEbTBrgBT0p8DMkUavZPOR8if4yLJviocyc6FIpEYwRDELMAkG
A1UEBhMCREUxDzANBgNVBAgMBkhlc3NlbjEUMBIGA1UECgwLcHJpdmFjeWlkZWEx
DjAMBgNVBAMMBUNBMDAxggkA+8jrrIPNEgcwEwYDVR0lBAwwCgYIKwYBBQUHAwEw
DQYJKoZIhvcNAQEFBQADggEBADX4ZaGMsa2ISmiL8b06GEUz0/1JRmReLCaVXSqC
Qs2E5ziDrBsYAUL1nJta+D3N9g1u8IvQ0lEstkE8UI5ycRJ73ZvphMamL8i44brN
sKvMy7fedZXDJh19IJhRqNdodNRa5eZbZUgllnCNJyZrl0B3QkbLesLTDN/NLuo4
8FlZYhXymVAZxEPZ3rHeQSCpaUTIWDxEQW5THoG1HjoFdRq0oYcARyX/yfMwWNVL
CuZdUzXYi/APAa1BlDHNa6k2l/KHLHdBQOMxePjG7Y9o6W1eFbKyvXiS0FGYtmU5
kAZqKMNBSNp88tfGbCFqcRL1vqJJh6gCkTc1ihfJ+LM4Q2A=
-----END CERTIFICATE-----
