Certificate:
    Data:
        Version: 3 (0x2)
        Serial Number: 268435649 (0x100000c1)
    Signature Algorithm: sha1WithRSAEncryption
        Issuer: C=DE, ST=Hessen, O=privacyidea, CN=CA001
        Validity
            Not Before: May 21 20:17:26 2015 GMT
            Not After : May 20 20:17:26 2016 GMT
        Subject: CN=admin,CN=admin,O=/emailAddress=meine
        Subject Public Key Info:
            Public Key Algorithm: rsaEncryption
                Public-Key: (2048 bit)
                Modulus:
                    00:de:e0:cd:6f:0c:96:05:41:7d:0e:9b:74:a0:6c:
                    d9:33:fe:58:e7:55:05:d9:bc:7b:74:c1:71:2d:73:
                    01:23:67:6c:4e:e2:1a:90:01:58:8f:28:7a:31:66:
                    80:20:1e:bc:75:95:5d:31:4a:1a:45:59:72:c5:73:
                    07:e2:90:a5:d3:7a:78:b1:a6:2e:67:bb:ed:9c:63:
                    9e:51:30:b5:b7:de:1a:fa:3d:73:35:06:3b:52:11:
                    ed:72:58:dd:31:56:a4:1f:63:7b:b4:5c:1b:fe:7a:
                    f0:8b:dc:c8:a6:78:d2:7f:bb:cf:6b:f1:c9:77:78:
                    39:ae:bf:d4:ab:7d:c9:f4:2e:6b:f7:d3:6a:ad:7c:
                    d8:8f:1d:48:56:4a:af:1b:ed:59:d2:33:dd:29:cc:
                    23:2f:10:6d:86:24:49:58:2c:c6:13:4c:a2:97:18:
                    f0:87:35:87:21:8c:c2:f1:8b:6b:f1:d0:0a:85:d4:
                    fb:35:fb:73:bd:44:19:c7:aa:6d:8b:cd:12:3d:31:
                    08:dc:68:a0:27:b1:7f:3f:a9:4c:09:0f:b9:b1:97:
                    48:0c:76:26:3a:5b:9e:8b:6f:10:78:bc:36:d8:b1:
                    1e:4c:ca:7b:8f:0a:1f:d0:5a:33:cf:1b:fb:f7:75:
                    ca:59:57:3a:42:9b:29:f0:8b:70:a8:86:64:bc:2e:
                    1b:57
                Exponent: 65537 (0x10001)
        X509v3 extensions:
            X509v3 Key Usage: 
                Digital Signature, Key Encipherment
            X509v3 Basic Constraints: 
                CA:FALSE
            Netscape Cert Type: 
                SSL Server
            Netscape Comment: 
                OpenSSL Generated Server Certificate
            X509v3 Subject Key Identifier: 
                39:3B:9C:EA:FB:44:4D:8C:47:AB:2B:3A:BB:78:01:71:FC:19:9A:B4
            X509v3 Authority Key Identifier: 
                keyid:F4:A7:C0:CC:91:46:AF:64:F3:91:F2:27:F8:C8:B2:6F:8A:87:32:73
                DirName:/C=DE/ST=Hessen/O=privacyidea/CN=CA001
                serial:FB:C8:EB:AC:83:CD:12:07

            X509v3 Extended Key Usage: 
                TLS Web Server Authentication
    Signature Algorithm: sha1WithRSAEncryption
         bd:74:bc:85:29:20:bd:c7:40:49:43:ca:20:6b:65:45:66:96:
         f2:38:36:7f:d7:37:95:61:05:9e:ef:d9:e8:21:2f:82:20:59:
         b8:31:b4:c0:d3:3e:d5:3f:94:fa:87:77:4a:d9:7b:45:b0:31:
         5b:5d:6f:4a:d4:d4:a4:45:d0:71:3c:b8:ae:19:c5:dd:d4:95:
         16:fb:86:e3:94:17:1b:e4:a2:64:54:a4:d4:ec:0b:d5:46:37:
         f4:11:d4:39:66:4a:6b:b2:99:df:f0:dd:e3:d9:74:5d:79:d1:
         19:9d:41:7f:67:9a:c2:a4:7c:09:90:e2:b9:3e:fa:fb:87:43:
         40:1f:db:8b:2b:af:fd:d0:ed:7e:84:e5:c5:fb:39:fe:15:7e:
         eb:31:25:9f:7d:f6:e1:9c:cd:03:c4:7d:53:de:bb:99:e3:04:
         0d:e1:f6:3e:ab:a0:a1:bc:bc:b2:07:11:82:ae:37:a4:69:bd:
         92:84:a9:4c:9d:6b:cc:38:92:3c:b5:62:fb:a1:aa:a2:ad:12:
         55:61:0f:0e:33:eb:c0:73:46:0e:fa:b3:e8:72:59:1c:7f:74:
         f7:57:10:2c:6e:bc:f9:38:ac:71:cd:1f:f5:a1:34:f4:ff:2f:
         01:e0:83:de:db:7f:0a:20:dc:59:29:27:a2:3e:2f:20:1f:5c:
         55:08:9f:40
-----BEGIN CERTIFICATE-----
MIIEBDCCAuygAwIBAgIEEAAAwTANBgkqhkiG9w0BAQUFADBEMQswCQYDVQQGEwJE
RTEPMA0GA1UECAwGSGVzc2VuMRQwEgYDVQQKDAtwcml2YWN5aWRlYTEOMAwGA1UE
AwwFQ0EwMDEwHhcNMTUwNTIxMjAxNzI2WhcNMTYwNTIwMjAxNzI2WjAyMRowGAYD
VQQDExFhZG1pbixDTj1hZG1pbixPPTEUMBIGCSqGSIb3DQEJARYFbWVpbmUwggEi
MA0GCSqGSIb3DQEBAQUAA4IBDwAwggEKAoIBAQDe4M1vDJYFQX0Om3SgbNkz/ljn
VQXZvHt0wXEtcwEjZ2xO4hqQAViPKHoxZoAgHrx1lV0xShpFWXLFcwfikKXTenix
pi5nu+2cY55RMLW33hr6PXM1BjtSEe1yWN0xVqQfY3u0XBv+evCL3MimeNJ/u89r
8cl3eDmuv9Srfcn0Lmv302qtfNiPHUhWSq8b7VnSM90pzCMvEG2GJElYLMYTTKKX
GPCHNYchjMLxi2vx0AqF1Ps1+3O9RBnHqm2LzRI9MQjcaKAnsX8/qUwJD7mxl0gM
diY6W56LbxB4vDbYsR5MynuPCh/QWjPPG/v3dcpZVzpCmynwi3CohmS8LhtXAgMB
AAGjggEOMIIBCjALBgNVHQ8EBAMCBaAwCQYDVR0TBAIwADARBglghkgBhvhCAQEE
BAMCBkAwMwYJYIZIAYb4QgENBCYWJE9wZW5TU0wgR2VuZXJhdGVkIFNlcnZlciBD
ZXJ0aWZpY2F0ZTAdBgNVHQ4EFgQUOTuc6vtETYxHqys6u3gBcfwZmrQwdAYDVR0j
BG0wa4AU9KfAzJFGr2TzkfIn+Miyb4qHMnOhSKRGMEQxCzAJBgNVBAYTAkRFMQ8w
DQYDVQQIDAZIZXNzZW4xFDASBgNVBAoMC3ByaXZhY3lpZGVhMQ4wDAYDVQQDDAVD
QTAwMYIJAPvI66yDzRIHMBMGA1UdJQQMMAoGCCsGAQUFBwMBMA0GCSqGSIb3DQEB
BQUAA4IBAQC9dLyFKSC9x0BJQ8oga2VFZpbyODZ/1zeVYQWe79noIS+CIFm4MbTA
0z7VP5T6h3dK2XtFsDFbXW9K1NSkRdBxPLiuGcXd1JUW+4bjlBcb5KJkVKTU7AvV
Rjf0EdQ5Zkprspnf8N3j2XRdedEZnUF/Z5rCpHwJkOK5Pvr7h0NAH9uLK6/90O1+
hOXF+zn+FX7rMSWfffbhnM0DxH1T3ruZ4wQN4fY+q6ChvLyyBxGCrjekab2ShKlM
nWvMOJI8tWL7oaqirRJVYQ8OM+vAc0YO+rPoclkcf3T3VxAsbrz5OKxxzR/1oTT0
/y8B4IPe238KINxZKSeiPi8gH1xVCJ9A
-----END CERTIFICATE-----
