Certificate:
    Data:
        Version: 3 (0x2)
        Serial Number: 268435612 (0x1000009c)
    Signature Algorithm: sha1WithRSAEncryption
        Issuer: C=DE, ST=Hessen, O=privacyidea, CN=CA001
        Validity
            Not Before: May 21 13:35:35 2015 GMT
            Not After : May 20 13:35:35 2016 GMT
        Subject: C=DE, ST=Hessen, O=privacyidea, CN=requester.localdomain
        Subject Public Key Info:
            Public Key Algorithm: rsaEncryption
                Public-Key: (2048 bit)
                Modulus:
                    00:cd:be:14:4f:fa:ce:01:3f:42:22:1b:1d:9c:af:
                    dd:92:d2:7f:db:6c:b7:3e:39:43:43:6b:13:03:f1:
                    05:f4:07:74:bc:76:69:28:0b:af:19:8e:d7:fc:e3:
                    cd:c6:58:f2:ca:7f:08:6d:53:fc:07:02:44:24:c6:
                    b4:34:4c:8c:04:fe:33:0e:40:e2:20:ba:02:73:5a:
                    f7:f5:4f:63:6e:cc:c6:b6:df:54:1d:37:39:7d:51:
                    36:26:5f:bd:dc:3f:a8:8b:6b:a2:ae:b6:9d:d6:21:
                    e7:df:41:b8:7a:28:2a:68:48:ca:a8:2d:ed:e1:e9:
                    46:5e:5a:72:6d:b4:84:38:87:91:fd:94:11:0b:28:
                    84:c6:c2:2f:2a:fb:01:f9:36:7a:09:75:d1:33:88:
                    3c:73:41:5b:c8:bf:94:89:70:a1:f0:c0:b9:2e:50:
                    53:1e:b1:17:64:69:f4:2d:81:e0:a9:0d:0e:32:e9:
                    ba:55:8a:85:f1:1b:6f:49:79:b4:7f:88:c3:0d:3e:
                    54:88:9b:3d:1f:38:8c:04:f3:ee:6a:63:2b:f5:c6:
                    db:b4:83:aa:c4:78:41:3a:7d:4b:e1:c8:3e:71:ca:
                    1b:61:59:ea:c6:c4:ca:32:5e:c9:e9:bf:12:29:e6:
                    c6:c3:63:fe:a0:55:da:7a:f1:60:98:4d:26:ed:fa:
                    70:2d
                Exponent: 65537 (0x10001)
        X509v3 extensions:
            X509v3 Key Usage: 
                Digital Signature, Key Encipherment
            X509v3 Basic Constraints: 
                CA:FALSE
            Netscape Cert Type: 
                SSL Server
            Netscape Comment: 
                OpenSSL Generated Server Certificate
            X509v3 Subject Key Identifier: 
                53:3F:ED:5D:09:07:B3:65:7B:AB:45:C9:24:5B:09:77:80:0A:96:ED
            X509v3 Authority Key Identifier: 
                keyid:F4:A7:C0:CC:91:46:AF:64:F3:91:F2:27:F8:C8:B2:6F:8A:87:32:73
                DirName:/C=DE/ST=Hessen/O=privacyidea/CN=CA001
                serial:FB:C8:EB:AC:83:CD:12:07

            X509v3 Extended Key Usage: 
                TLS Web Server Authentication
    Signature Algorithm: sha1WithRSAEncryption
         71:06:fe:52:52:e4:7a:f2:b0:78:91:38:fc:58:b9:2e:c6:37:
         04:8a:43:c1:77:a9:ba:e5:a2:a8:15:a7:85:fc:c7:6f:0a:17:
         9c:09:c8:97:31:c0:2a:2f:0b:70:cd:5e:71:ac:0b:06:d0:1d:
         4a:77:bc:50:8b:62:ae:87:c6:9e:ef:f5:80:f5:77:10:74:85:
         6b:77:1e:38:c9:a7:a8:45:25:88:b1:4a:8b:45:19:36:fe:46:
         dc:38:65:bb:81:07:62:01:e7:37:9f:d9:bf:d9:ee:95:30:58:
         79:6e:b2:84:73:5b:32:81:ba:f9:31:d0:75:07:e4:3d:a7:60:
         b4:53:d5:76:63:c8:b8:a8:95:5a:5f:de:ae:2a:91:64:a0:5f:
         82:76:4a:5c:c6:06:40:eb:eb:a8:6d:3b:dc:72:64:2f:d1:e6:
         b1:c2:8a:92:8c:27:1f:d8:5e:96:a0:12:55:d9:84:66:5c:5c:
         2c:ab:e1:a5:80:1d:f1:7e:2d:be:5d:90:52:58:02:8f:50:93:
         5b:e0:04:fc:96:f8:de:1f:a8:e1:f2:2d:69:94:62:af:41:72:
         99:e8:01:e0:04:72:66:67:ed:f6:9a:e3:bd:eb:a9:b4:53:68:
         7d:6e:44:8a:bf:ad:a4:35:02:f3:29:3b:7b:8e:bf:ac:b8:5f:
         3e:ec:93:da
-----BEGIN CERTIFICATE-----
MIIEJjCCAw6gAwIBAgIEEAAAnDANBgkqhkiG9w0BAQUFADBEMQswCQYDVQQGEwJE
RTEPMA0GA1UECAwGSGVzc2VuMRQwEgYDVQQKDAtwcml2YWN5aWRlYTEOMAwGA1UE
AwwFQ0EwMDEwHhcNMTUwNTIxMTMzNTM1WhcNMTYwNTIwMTMzNTM1WjBUMQswCQYD
VQQGEwJERTEPMA0GA1UECAwGSGVzc2VuMRQwEgYDVQQKDAtwcml2YWN5aWRlYTEe
MBwGA1UEAwwVcmVxdWVzdGVyLmxvY2FsZG9tYWluMIIBIjANBgkqhkiG9w0BAQEF
AAOCAQ8AMIIBCgKCAQEAzb4UT/rOAT9CIhsdnK/dktJ/22y3PjlDQ2sTA/EF9Ad0
vHZpKAuvGY7X/OPNxljyyn8IbVP8BwJEJMa0NEyMBP4zDkDiILoCc1r39U9jbszG
tt9UHTc5fVE2Jl+93D+oi2uirrad1iHn30G4eigqaEjKqC3t4elGXlpybbSEOIeR
/ZQRCyiExsIvKvsB+TZ6CXXRM4g8c0FbyL+UiXCh8MC5LlBTHrEXZGn0LYHgqQ0O
Mum6VYqF8RtvSXm0f4jDDT5UiJs9HziMBPPuamMr9cbbtIOqxHhBOn1L4cg+ccob
YVnqxsTKMl7J6b8SKebGw2P+oFXaevFgmE0m7fpwLQIDAQABo4IBDjCCAQowCwYD
VR0PBAQDAgWgMAkGA1UdEwQCMAAwEQYJYIZIAYb4QgEBBAQDAgZAMDMGCWCGSAGG
+EIBDQQmFiRPcGVuU1NMIEdlbmVyYXRlZCBTZXJ2ZXIgQ2VydGlmaWNhdGUwHQYD
VR0OBBYEFFM/7V0JB7Nle6tFySRbCXeACpbtMHQGA1UdIwRtMGuAFPSnwMyRRq9k
85HyJ/jIsm+KhzJzoUikRjBEMQswCQYDVQQGEwJERTEPMA0GA1UECAwGSGVzc2Vu
MRQwEgYDVQQKDAtwcml2YWN5aWRlYTEOMAwGA1UEAwwFQ0EwMDGCCQD7yOusg80S
BzATBgNVHSUEDDAKBggrBgEFBQcDATANBgkqhkiG9w0BAQUFAAOCAQEAcQb+UlLk
evKweJE4/Fi5LsY3BIpDwXepuuWiqBWnhfzHbwoXnAnIlzHAKi8LcM1ecawLBtAd
Sne8UItirofGnu/1gPV3EHSFa3ceOMmnqEUliLFKi0UZNv5G3Dhlu4EHYgHnN5/Z
v9nulTBYeW6yhHNbMoG6+THQdQfkPadgtFPVdmPIuKiVWl/eriqRZKBfgnZKXMYG
QOvrqG073HJkL9HmscKKkownH9helqASVdmEZlxcLKvhpYAd8X4tvl2QUlgCj1CT
W+AE/Jb43h+o4fItaZRir0FymegB4ARyZmft9prjveuptFNofW5Eir+tpDUC8yk7
e46/rLhfPuyT2g==
-----END CERTIFICATE-----
