Certificate:
    Data:
        Version: 3 (0x2)
        Serial Number: 268435638 (0x100000b6)
    Signature Algorithm: sha1WithRSAEncryption
        Issuer: C=DE, ST=Hessen, O=privacyidea, CN=CA001
        Validity
            Not Before: May 21 14:28:00 2015 GMT
            Not After : May 20 14:28:00 2016 GMT
        Subject: CN=corny/emailAddress=meine
        Subject Public Key Info:
            Public Key Algorithm: rsaEncryption
                Public-Key: (2048 bit)
                Modulus:
                    00:c0:ed:95:34:2f:46:6b:9c:6e:19:a3:29:07:de:
                    38:4e:67:1f:7e:c9:12:22:29:e4:ac:6f:db:20:52:
                    df:e5:46:03:a5:48:71:5d:c8:51:74:cc:80:9b:3b:
                    b4:78:4a:5b:66:c6:b7:24:68:40:67:3a:88:e6:45:
                    2a:d9:0d:15:df:f9:77:7b:c1:21:4b:0b:52:19:6b:
                    62:e1:27:a5:b8:cc:8b:d2:fd:cf:68:33:e7:8c:85:
                    5d:a1:c2:b7:39:75:f4:79:0f:5a:bb:0d:d0:b5:5c:
                    a4:40:a2:08:97:fe:46:e7:2a:9e:cc:50:0e:b1:45:
                    a4:7b:07:88:b0:97:27:a4:bb:71:9e:05:5a:86:8a:
                    57:37:1d:19:e8:c0:f3:02:23:9e:29:52:8f:a0:e6:
                    11:65:bb:89:7e:7d:87:1c:55:8f:5a:e2:82:1f:f4:
                    42:c7:39:d8:67:21:19:b4:57:32:6c:b0:86:48:b0:
                    c0:f0:b5:29:3b:0a:04:f8:29:67:83:54:e0:cd:fd:
                    9b:a4:2d:70:bd:0c:e3:ba:54:27:1e:e4:32:27:7f:
                    79:34:ef:bc:15:21:bf:2f:48:70:b1:7d:53:5a:71:
                    1d:0a:e6:4a:3c:3e:19:5b:6c:21:f2:f4:8e:b7:27:
                    ed:0b:48:80:4f:90:76:40:03:49:9a:18:4e:0c:cc:
                    42:93
                Exponent: 65537 (0x10001)
        X509v3 extensions:
            X509v3 Key Usage: 
                Digital Signature, Key Encipherment
            X509v3 Basic Constraints: 
                CA:FALSE
            Netscape Cert Type: 
                SSL Server
            Netscape Comment: 
                OpenSSL Generated Server Certificate
            X509v3 Subject Key Identifier: 
                60:DA:D5:75:A4:DA:A3:1F:00:07:23:60:4D:D7:4F:31:0F:96:11:66
            X509v3 Authority Key Identifier: 
                keyid:F4:A7:C0:CC:91:46:AF:64:F3:91:F2:27:F8:C8:B2:6F:8A:87:32:73
                DirName:/C=DE/ST=Hessen/O=privacyidea/CN=CA001
                serial:FB:C8:EB:AC:83:CD:12:07

            X509v3 Extended Key Usage: 
                TLS Web Server Authentication
    Signature Algorithm: sha1WithRSAEncryption
         80:1e:e6:dc:3e:35:9c:64:9f:fe:69:a3:a4:04:02:47:80:eb:
         b9:1d:60:e9:4b:f6:e8:05:cb:3b:64:de:7d:00:c6:90:b3:6e:
         f1:cc:97:77:36:c6:b5:13:71:a0:3d:f1:ad:36:15:cc:16:90:
         31:c2:20:51:12:ae:f3:52:bc:1a:65:3e:fd:ea:91:8c:a9:96:
         75:be:03:95:65:2b:d9:4c:be:f9:ed:1a:66:0e:72:94:39:67:
         f6:5e:90:c8:a0:0f:dd:8f:c6:7f:39:a9:ac:57:93:31:18:22:
         cd:95:77:be:38:60:02:6b:81:eb:5a:79:e4:39:6c:84:3a:02:
         c7:a3:36:21:05:2e:f6:91:2c:62:91:73:b6:68:c9:b5:01:e3:
         5f:00:2f:d3:0a:9a:5f:4b:ff:7b:c4:cd:80:b9:50:fa:c5:4f:
         c0:a0:a5:43:50:49:a1:a3:b1:61:bf:8d:fa:d1:81:27:a2:62:
         59:c4:de:f3:6a:d5:24:57:c9:bc:5c:17:09:e1:54:74:97:fe:
         0d:62:a6:d1:40:72:80:3b:db:e2:e6:ce:bb:2d:cc:80:fd:0a:
         8e:5b:60:2c:76:0b:9e:4b:08:e8:b5:e6:f2:0c:07:d1:8f:bf:
         1f:32:8f:0e:fe:a3:5a:18:4a:1c:c5:df:61:4a:c1:02:ba:2c:
         cd:a2:ec:1d
-----BEGIN CERTIFICATE-----
MIID+DCCAuCgAwIBAgIEEAAAtjANBgkqhkiG9w0BAQUFADBEMQswCQYDVQQGEwJE
RTEPMA0GA1UECAwGSGVzc2VuMRQwEgYDVQQKDAtwcml2YWN5aWRlYTEOMAwGA1UE
AwwFQ0EwMDEwHhcNMTUwNTIxMTQyODAwWhcNMTYwNTIwMTQyODAwWjAmMQ4wDAYD
VQQDEwVjb3JueTEUMBIGCSqGSIb3DQEJARYFbWVpbmUwggEiMA0GCSqGSIb3DQEB
AQUAA4IBDwAwggEKAoIBAQDA7ZU0L0ZrnG4ZoykH3jhOZx9+yRIiKeSsb9sgUt/l
RgOlSHFdyFF0zICbO7R4SltmxrckaEBnOojmRSrZDRXf+Xd7wSFLC1IZa2LhJ6W4
zIvS/c9oM+eMhV2hwrc5dfR5D1q7DdC1XKRAogiX/kbnKp7MUA6xRaR7B4iwlyek
u3GeBVqGilc3HRnowPMCI54pUo+g5hFlu4l+fYccVY9a4oIf9ELHOdhnIRm0VzJs
sIZIsMDwtSk7CgT4KWeDVODN/ZukLXC9DOO6VCce5DInf3k077wVIb8vSHCxfVNa
cR0K5ko8PhlbbCHy9I63J+0LSIBPkHZAA0maGE4MzEKTAgMBAAGjggEOMIIBCjAL
BgNVHQ8EBAMCBaAwCQYDVR0TBAIwADARBglghkgBhvhCAQEEBAMCBkAwMwYJYIZI
AYb4QgENBCYWJE9wZW5TU0wgR2VuZXJhdGVkIFNlcnZlciBDZXJ0aWZpY2F0ZTAd
BgNVHQ4EFgQUYNrVdaTaox8AByNgTddPMQ+WEWYwdAYDVR0jBG0wa4AU9KfAzJFG
r2TzkfIn+Miyb4qHMnOhSKRGMEQxCzAJBgNVBAYTAkRFMQ8wDQYDVQQIDAZIZXNz
ZW4xFDASBgNVBAoMC3ByaXZhY3lpZGVhMQ4wDAYDVQQDDAVDQTAwMYIJAPvI66yD
zRIHMBMGA1UdJQQMMAoGCCsGAQUFBwMBMA0GCSqGSIb3DQEBBQUAA4IBAQCAHubc
PjWcZJ/+aaOkBAJHgOu5HWDpS/boBcs7ZN59AMaQs27xzJd3Nsa1E3GgPfGtNhXM
FpAxwiBREq7zUrwaZT796pGMqZZ1vgOVZSvZTL757RpmDnKUOWf2XpDIoA/dj8Z/
OamsV5MxGCLNlXe+OGACa4HrWnnkOWyEOgLHozYhBS72kSxikXO2aMm1AeNfAC/T
CppfS/97xM2AuVD6xU/AoKVDUEmho7Fhv4360YEnomJZxN7zatUkV8m8XBcJ4VR0
l/4NYqbRQHKAO9vi5s67LcyA/QqOW2AsdgueSwjotebyDAfRj78fMo8O/qNaGEoc
xd9hSsECuizNouwd
-----END CERTIFICATE-----
