Certificate:
    Data:
        Version: 3 (0x2)
        Serial Number: 268435614 (0x1000009e)
    Signature Algorithm: sha1WithRSAEncryption
        Issuer: C=DE, ST=Hessen, O=privacyidea, CN=CA001
        Validity
            Not Before: May 21 13:36:07 2015 GMT
            Not After : May 20 13:36:07 2016 GMT
        Subject: CN=Steve Test/emailAddress=steve@openssl.org
        Subject Public Key Info:
            Public Key Algorithm: rsaEncryption
                Public-Key: (2048 bit)
                Modulus:
                    00:d2:81:89:20:51:48:0f:73:f4:11:32:24:d5:1f:
                    1c:fd:5c:f5:b6:e6:c5:f0:52:81:dc:d2:af:66:4a:
                    7c:93:31:61:5c:af:d1:6d:06:70:03:60:7c:72:0c:
                    88:dd:49:cd:9e:02:6c:d2:5a:d7:53:0f:f3:da:be:
                    69:64:b5:0f:0c:00:e3:b3:50:47:a3:b3:9b:ba:13:
                    50:d6:58:5a:4b:ab:39:e0:11:ca:0a:27:67:03:78:
                    22:66:6d:92:1e:1b:5c:49:ae:e6:6b:d1:8e:3b:9d:
                    06:d3:c6:ac:4d:53:43:10:ab:e8:96:c1:87:82:97:
                    99:8f:20:d3:99:12:37:31:84:e1:8a:ff:29:03:5f:
                    22:90:3e:7f:9b:e0:20:c1:ad:dc:ae:4c:39:1a:31:
                    96:17:02:8c:b2:d9:b4:0d:20:12:9b:7d:86:54:fd:
                    33:fd:c1:2a:62:46:f8:60:96:cf:6e:01:6f:22:df:
                    13:47:e7:97:ec:05:72:23:a3:62:f8:fa:ef:ac:9c:
                    72:f0:37:cb:2f:37:cf:90:a8:27:51:86:c6:d7:78:
                    08:8f:7e:25:a2:15:70:a2:fb:1c:b6:15:5e:a0:97:
                    8b:81:4c:09:28:8a:27:3b:94:bc:71:db:5b:71:37:
                    9a:2b:16:e0:6f:b5:c9:f5:4b:4f:20:ba:65:cf:af:
                    ad:ad
                Exponent: 65537 (0x10001)
        X509v3 extensions:
            X509v3 Key Usage: 
                Digital Signature, Key Encipherment
            X509v3 Basic Constraints: 
                CA:FALSE
            Netscape Cert Type: 
                SSL Server
            Netscape Comment: 
                OpenSSL Generated Server Certificate
            X509v3 Subject Key Identifier: 
                E5:25:6D:3E:AF:0D:DD:3F:4C:F2:45:19:39:D5:14:DB:7E:9C:C0:AD
            X509v3 Authority Key Identifier: 
                keyid:F4:A7:C0:CC:91:46:AF:64:F3:91:F2:27:F8:C8:B2:6F:8A:87:32:73
                DirName:/C=DE/ST=Hessen/O=privacyidea/CN=CA001
                serial:FB:C8:EB:AC:83:CD:12:07

            X509v3 Extended Key Usage: 
                TLS Web Server Authentication
    Signature Algorithm: sha1WithRSAEncryption
         41:e0:b1:d0:35:be:28:57:9f:7c:f9:79:ad:5c:19:db:63:95:
         af:dc:96:b5:05:9e:ee:80:01:c9:0f:75:1f:4b:dd:5d:e4:c8:
         f0:79:52:35:20:6d:c5:60:d8:d5:05:ad:3e:6d:c1:11:c7:60:
         b3:9f:91:93:f7:a3:e5:e5:c4:4a:dd:f7:97:8f:c9:54:51:28:
         eb:02:dc:56:b4:21:98:67:1c:d4:f8:6d:88:a0:8b:f9:62:9e:
         b2:b3:67:95:73:90:ec:8a:40:02:52:8d:3f:90:f5:81:e9:2e:
         fd:8e:46:a3:58:3c:8e:f2:d6:98:a0:91:62:32:e7:48:81:d4:
         97:79:ff:e4:26:65:78:81:47:38:69:4a:08:80:91:12:6c:e4:
         17:37:6c:33:ab:54:c3:d1:7f:ad:bd:63:72:81:1d:11:aa:29:
         05:6d:19:33:d8:22:bb:7c:07:a7:19:c5:31:e2:94:43:1a:fa:
         7d:c3:04:47:88:ba:ed:93:bc:4f:3d:ed:35:52:0f:58:3e:66:
         cf:3e:49:8c:82:a3:e4:b2:62:83:55:c0:de:68:25:e2:e9:a2:
         60:b3:f4:73:41:ba:2a:a2:1a:ed:38:9d:06:91:fa:50:42:40:
         72:e2:6c:ae:45:96:a0:26:a5:f5:68:33:12:45:0a:fa:18:2b:
         a9:3b:80:24
-----BEGIN CERTIFICATE-----
MIIECTCCAvGgAwIBAgIEEAAAnjANBgkqhkiG9w0BAQUFADBEMQswCQYDVQQGEwJE
RTEPMA0GA1UECAwGSGVzc2VuMRQwEgYDVQQKDAtwcml2YWN5aWRlYTEOMAwGA1UE
AwwFQ0EwMDEwHhcNMTUwNTIxMTMzNjA3WhcNMTYwNTIwMTMzNjA3WjA3MRMwEQYD
VQQDEwpTdGV2ZSBUZXN0MSAwHgYJKoZIhvcNAQkBFhFzdGV2ZUBvcGVuc3NsLm9y
ZzCCASIwDQYJKoZIhvcNAQEBBQADggEPADCCAQoCggEBANKBiSBRSA9z9BEyJNUf
HP1c9bbmxfBSgdzSr2ZKfJMxYVyv0W0GcANgfHIMiN1JzZ4CbNJa11MP89q+aWS1
DwwA47NQR6Ozm7oTUNZYWkurOeARygonZwN4ImZtkh4bXEmu5mvRjjudBtPGrE1T
QxCr6JbBh4KXmY8g05kSNzGE4Yr/KQNfIpA+f5vgIMGt3K5MORoxlhcCjLLZtA0g
Ept9hlT9M/3BKmJG+GCWz24BbyLfE0fnl+wFciOjYvj676yccvA3yy83z5CoJ1GG
xtd4CI9+JaIVcKL7HLYVXqCXi4FMCSiKJzuUvHHbW3E3misW4G+1yfVLTyC6Zc+v
ra0CAwEAAaOCAQ4wggEKMAsGA1UdDwQEAwIFoDAJBgNVHRMEAjAAMBEGCWCGSAGG
+EIBAQQEAwIGQDAzBglghkgBhvhCAQ0EJhYkT3BlblNTTCBHZW5lcmF0ZWQgU2Vy
dmVyIENlcnRpZmljYXRlMB0GA1UdDgQWBBTlJW0+rw3dP0zyRRk51RTbfpzArTB0
BgNVHSMEbTBrgBT0p8DMkUavZPOR8if4yLJviocyc6FIpEYwRDELMAkGA1UEBhMC
REUxDzANBgNVBAgMBkhlc3NlbjEUMBIGA1UECgwLcHJpdmFjeWlkZWExDjAMBgNV
BAMMBUNBMDAxggkA+8jrrIPNEgcwEwYDVR0lBAwwCgYIKwYBBQUHAwEwDQYJKoZI
hvcNAQEFBQADggEBAEHgsdA1vihXn3z5ea1cGdtjla/clrUFnu6AAckPdR9L3V3k
yPB5UjUgbcVg2NUFrT5twRHHYLOfkZP3o+XlxErd95ePyVRRKOsC3Fa0IZhnHNT4
bYigi/linrKzZ5VzkOyKQAJSjT+Q9YHpLv2ORqNYPI7y1pigkWIy50iB1Jd5/+Qm
ZXiBRzhpSgiAkRJs5Bc3bDOrVMPRf629Y3KBHRGqKQVtGTPYIrt8B6cZxTHilEMa
+n3DBEeIuu2TvE897TVSD1g+Zs8+SYyCo+SyYoNVwN5oJeLpomCz9HNBuiqiGu04
nQaR+lBCQHLibK5FlqAmpfVoMxJFCvoYK6k7gCQ=
-----END CERTIFICATE-----
