Certificate:
    Data:
        Version: 3 (0x2)
        Serial Number: 268435620 (0x100000a4)
    Signature Algorithm: sha1WithRSAEncryption
        Issuer: C=DE, ST=Hessen, O=privacyidea, CN=CA001
        Validity
            Not Before: May 21 13:39:31 2015 GMT
            Not After : May 20 13:39:31 2016 GMT
        Subject: CN=Steve Test/emailAddress=steve@openssl.org
        Subject Public Key Info:
            Public Key Algorithm: rsaEncryption
                Public-Key: (2048 bit)
                Modulus:
                    00:d2:81:89:20:51:48:0f:73:f4:11:32:24:d5:1f:
                    1c:fd:5c:f5:b6:e6:c5:f0:52:81:dc:d2:af:66:4a:
                    7c:93:31:61:5c:af:d1:6d:06:70:03:60:7c:72:0c:
                    88:dd:49:cd:9e:02:6c:d2:5a:d7:53:0f:f3:da:be:
                    69:64:b5:0f:0c:00:e3:b3:50:47:a3:b3:9b:ba:13:
                    50:d6:58:5a:4b:ab:39:e0:11:ca:0a:27:67:03:78:
                    22:66:6d:92:1e:1b:5c:49:ae:e6:6b:d1:8e:3b:9d:
                    06:d3:c6:ac:4d:53:43:10:ab:e8:96:c1:87:82:97:
                    99:8f:20:d3:99:12:37:31:84:e1:8a:ff:29:03:5f:
                    22:90:3e:7f:9b:e0:20:c1:ad:dc:ae:4c:39:1a:31:
                    96:17:02:8c:b2:d9:b4:0d:20:12:9b:7d:86:54:fd:
                    33:fd:c1:2a:62:46:f8:60:96:cf:6e:01:6f:22:df:
                    13:47:e7:97:ec:05:72:23:a3:62:f8:fa:ef:ac:9c:
                    72:f0:37:cb:2f:37:cf:90:a8:27:51:86:c6:d7:78:
                    08:8f:7e:25:a2:15:70:a2:fb:1c:b6:15:5e:a0:97:
                    8b:81:4c:09:28:8a:27:3b:94:bc:71:db:5b:71:37:
                    9a:2b:16:e0:6f:b5:c9:f5:4b:4f:20:ba:65:cf:af:
                    ad:ad
                Exponent: 65537 (0x10001)
        X509v3 extensions:
            X509v3 Key Usage: 
                Digital Signature, Key Encipherment
            X509v3 Basic Constraints: 
                CA:FALSE
            Netscape Cert Type: 
                SSL Server
            Netscape Comment: 
                OpenSSL Generated Server Certificate
            X509v3 Subject Key Identifier: 
                E5:25:6D:3E:AF:0D:DD:3F:4C:F2:45:19:39:D5:14:DB:7E:9C:C0:AD
            X509v3 Authority Key Identifier: 
                keyid:F4:A7:C0:CC:91:46:AF:64:F3:91:F2:27:F8:C8:B2:6F:8A:87:32:73
                DirName:/C=DE/ST=Hessen/O=privacyidea/CN=CA001
                serial:FB:C8:EB:AC:83:CD:12:07

            X509v3 Extended Key Usage: 
                TLS Web Server Authentication
    Signature Algorithm: sha1WithRSAEncryption
         ab:4e:a5:d8:60:96:6f:74:51:33:bd:2a:c9:8a:ad:55:8d:d7:
         53:f3:f4:88:36:de:87:94:c0:9e:5f:78:d7:f9:2b:a8:85:28:
         47:fb:54:16:53:80:d3:6d:54:c2:49:a7:f7:2d:36:83:83:a6:
         40:35:12:d4:5d:bd:cf:8e:2f:70:94:bf:2b:ce:53:d5:28:74:
         c2:9b:1f:d8:f7:1f:55:0c:d9:dd:44:8f:07:a7:36:1f:37:b9:
         f8:9d:d6:f4:55:a4:3b:11:61:22:7b:36:f3:16:db:de:27:ed:
         8d:e9:70:e0:51:74:7a:d3:33:e6:18:aa:1f:ad:d7:94:0e:27:
         9d:0a:46:e7:3c:1c:58:76:32:55:18:00:55:a7:ed:aa:c9:b8:
         28:bf:dc:3d:bf:9f:ee:03:a3:6d:e4:39:75:66:ba:fd:96:3f:
         e8:89:8b:f8:ba:ae:c9:69:05:b1:7a:0f:04:0d:15:66:de:1f:
         3f:e0:11:d2:70:6c:1d:56:e1:a4:36:21:d2:8e:a8:5b:39:ff:
         03:87:02:b8:fc:28:fb:f6:21:87:fb:92:97:33:05:14:7c:6c:
         63:21:fc:68:60:0d:e6:2c:06:91:cf:92:91:16:49:9c:e7:16:
         8f:59:57:d9:cc:c1:62:b9:9e:f3:d3:b8:b9:86:b5:57:5a:a3:
         b3:9d:15:6b
-----BEGIN CERTIFICATE-----
MIIECTCCAvGgAwIBAgIEEAAApDANBgkqhkiG9w0BAQUFADBEMQswCQYDVQQGEwJE
RTEPMA0GA1UECAwGSGVzc2VuMRQwEgYDVQQKDAtwcml2YWN5aWRlYTEOMAwGA1UE
AwwFQ0EwMDEwHhcNMTUwNTIxMTMzOTMxWhcNMTYwNTIwMTMzOTMxWjA3MRMwEQYD
VQQDEwpTdGV2ZSBUZXN0MSAwHgYJKoZIhvcNAQkBFhFzdGV2ZUBvcGVuc3NsLm9y
ZzCCASIwDQYJKoZIhvcNAQEBBQADggEPADCCAQoCggEBANKBiSBRSA9z9BEyJNUf
HP1c9bbmxfBSgdzSr2ZKfJMxYVyv0W0GcANgfHIMiN1JzZ4CbNJa11MP89q+aWS1
DwwA47NQR6Ozm7oTUNZYWkurOeARygonZwN4ImZtkh4bXEmu5mvRjjudBtPGrE1T
QxCr6JbBh4KXmY8g05kSNzGE4Yr/KQNfIpA+f5vgIMGt3K5MORoxlhcCjLLZtA0g
Ept9hlT9M/3BKmJG+GCWz24BbyLfE0fnl+wFciOjYvj676yccvA3yy83z5CoJ1GG
xtd4CI9+JaIVcKL7HLYVXqCXi4FMCSiKJzuUvHHbW3E3misW4G+1yfVLTyC6Zc+v
ra0CAwEAAaOCAQ4wggEKMAsGA1UdDwQEAwIFoDAJBgNVHRMEAjAAMBEGCWCGSAGG
+EIBAQQEAwIGQDAzBglghkgBhvhCAQ0EJhYkT3BlblNTTCBHZW5lcmF0ZWQgU2Vy
dmVyIENlcnRpZmljYXRlMB0GA1UdDgQWBBTlJW0+rw3dP0zyRRk51RTbfpzArTB0
BgNVHSMEbTBrgBT0p8DMkUavZPOR8if4yLJviocyc6FIpEYwRDELMAkGA1UEBhMC
REUxDzANBgNVBAgMBkhlc3NlbjEUMBIGA1UECgwLcHJpdmFjeWlkZWExDjAMBgNV
BAMMBUNBMDAxggkA+8jrrIPNEgcwEwYDVR0lBAwwCgYIKwYBBQUHAwEwDQYJKoZI
hvcNAQEFBQADggEBAKtOpdhglm90UTO9KsmKrVWN11Pz9Ig23oeUwJ5feNf5K6iF
KEf7VBZTgNNtVMJJp/ctNoODpkA1EtRdvc+OL3CUvyvOU9UodMKbH9j3H1UM2d1E
jwenNh83ufid1vRVpDsRYSJ7NvMW294n7Y3pcOBRdHrTM+YYqh+t15QOJ50KRuc8
HFh2MlUYAFWn7arJuCi/3D2/n+4Do23kOXVmuv2WP+iJi/i6rslpBbF6DwQNFWbe
Hz/gEdJwbB1W4aQ2IdKOqFs5/wOHArj8KPv2IYf7kpczBRR8bGMh/GhgDeYsBpHP
kpEWSZznFo9ZV9nMwWK5nvPTuLmGtVdao7OdFWs=
-----END CERTIFICATE-----
