Certificate:
    Data:
        Version: 3 (0x2)
        Serial Number: 268435634 (0x100000b2)
    Signature Algorithm: sha1WithRSAEncryption
        Issuer: C=DE, ST=Hessen, O=privacyidea, CN=CA001
        Validity
            Not Before: May 21 14:19:05 2015 GMT
            Not After : May 20 14:19:05 2016 GMT
        Subject: CN=asdf/emailAddress=meine
        Subject Public Key Info:
            Public Key Algorithm: rsaEncryption
                Public-Key: (2048 bit)
                Modulus:
                    00:9d:43:28:ad:07:5b:ef:67:2f:b2:ce:db:7f:d5:
                    85:1c:0c:5f:ab:56:dc:ec:50:7e:cc:02:17:6e:f3:
                    f4:fc:66:e4:20:36:60:45:f5:ec:df:56:12:1f:04:
                    bb:40:5e:99:55:0e:96:f0:94:03:2f:f7:da:06:e0:
                    12:e5:ba:90:4e:55:ab:8b:b5:97:f2:1b:7c:70:5f:
                    ef:ee:eb:57:59:a2:e5:da:d0:1a:3f:e7:cd:f0:62:
                    a9:46:f0:4e:84:4a:1d:46:4d:0e:3a:9c:85:51:ae:
                    52:75:eb:15:05:fb:84:e3:94:33:7f:4d:0b:70:83:
                    3b:b3:2c:95:7a:72:58:fd:d2:10:4c:f0:fa:f7:56:
                    c5:7a:bf:3d:1b:3b:e2:65:31:9d:d5:33:8c:b2:dc:
                    e0:49:3f:a0:69:e2:e9:1a:de:bb:0e:e8:49:7d:66:
                    ad:ab:47:89:45:35:4c:84:d9:81:b7:bd:bb:16:ce:
                    c5:a6:57:60:62:ed:3b:af:fb:f5:76:95:4d:12:fe:
                    4a:6f:3b:b9:cc:89:c0:c9:f9:bb:2b:e6:e9:ed:da:
                    96:96:57:7a:95:4a:ed:36:42:2d:73:85:f2:da:97:
                    1c:f8:8b:f1:1b:bc:6b:11:f3:64:d0:21:3c:7c:c6:
                    0b:9b:03:9e:5b:83:c1:c5:47:61:1c:2b:fa:58:e3:
                    bf:cb
                Exponent: 65537 (0x10001)
        X509v3 extensions:
            X509v3 Key Usage: 
                Digital Signature, Key Encipherment
            X509v3 Basic Constraints: 
                CA:FALSE
            Netscape Cert Type: 
                SSL Server
            Netscape Comment: 
                OpenSSL Generated Server Certificate
            X509v3 Subject Key Identifier: 
                93:2F:B7:F2:A2:29:58:9F:FB:C0:9E:B1:11:D4:23:1F:B1:F4:7F:8C
            X509v3 Authority Key Identifier: 
                keyid:F4:A7:C0:CC:91:46:AF:64:F3:91:F2:27:F8:C8:B2:6F:8A:87:32:73
                DirName:/C=DE/ST=Hessen/O=privacyidea/CN=CA001
                serial:FB:C8:EB:AC:83:CD:12:07

            X509v3 Extended Key Usage: 
                TLS Web Server Authentication
    Signature Algorithm: sha1WithRSAEncryption
         6e:7a:66:e1:75:5b:0c:b7:0d:7b:3a:c0:b7:95:66:f6:41:5f:
         16:fc:69:ab:72:36:e7:ee:05:a4:59:49:3b:1a:7e:6d:12:da:
         bd:83:e1:d2:fd:0a:ad:dd:eb:d5:6c:35:d0:b9:f8:91:9e:88:
         88:22:70:74:01:0d:b6:75:cc:2d:22:26:fc:8e:f4:4d:27:f7:
         a1:b1:78:b5:58:ea:28:d5:c6:ae:c8:b5:ce:42:96:f3:f0:54:
         4e:f8:3d:00:23:1d:8f:cd:b7:11:c5:e7:88:ad:a1:d7:98:ce:
         cd:7d:c0:75:eb:32:57:f2:12:39:66:c9:01:6d:25:33:f3:60:
         e5:61:90:12:62:ab:43:62:00:7e:8d:f2:54:de:b3:db:8c:4c:
         b3:bd:92:59:71:e9:51:44:79:9d:01:0e:5d:48:38:c0:8f:e2:
         6c:17:4e:e2:9b:55:d9:1f:ce:cc:06:90:ac:d6:75:3e:0d:fd:
         8d:1c:0e:c5:8b:97:fc:10:09:76:92:3d:e6:45:29:74:c6:a7:
         c8:41:a7:fc:4a:39:ae:78:8d:83:35:5a:2e:e5:a2:39:e6:4f:
         61:c9:9d:45:03:3a:65:c3:0c:87:1e:4c:61:11:f7:65:71:82:
         1d:76:d1:d4:48:75:9e:9d:63:91:d4:d4:63:bc:45:f9:1c:f3:
         d9:eb:e4:f7
-----BEGIN CERTIFICATE-----
MIID9zCCAt+gAwIBAgIEEAAAsjANBgkqhkiG9w0BAQUFADBEMQswCQYDVQQGEwJE
RTEPMA0GA1UECAwGSGVzc2VuMRQwEgYDVQQKDAtwcml2YWN5aWRlYTEOMAwGA1UE
AwwFQ0EwMDEwHhcNMTUwNTIxMTQxOTA1WhcNMTYwNTIwMTQxOTA1WjAlMQ0wCwYD
VQQDEwRhc2RmMRQwEgYJKoZIhvcNAQkBFgVtZWluZTCCASIwDQYJKoZIhvcNAQEB
BQADggEPADCCAQoCggEBAJ1DKK0HW+9nL7LO23/VhRwMX6tW3OxQfswCF27z9Pxm
5CA2YEX17N9WEh8Eu0BemVUOlvCUAy/32gbgEuW6kE5Vq4u1l/IbfHBf7+7rV1mi
5drQGj/nzfBiqUbwToRKHUZNDjqchVGuUnXrFQX7hOOUM39NC3CDO7MslXpyWP3S
EEzw+vdWxXq/PRs74mUxndUzjLLc4Ek/oGni6Rreuw7oSX1mratHiUU1TITZgbe9
uxbOxaZXYGLtO6/79XaVTRL+Sm87ucyJwMn5uyvm6e3alpZXepVK7TZCLXOF8tqX
HPiL8Ru8axHzZNAhPHzGC5sDnluDwcVHYRwr+ljjv8sCAwEAAaOCAQ4wggEKMAsG
A1UdDwQEAwIFoDAJBgNVHRMEAjAAMBEGCWCGSAGG+EIBAQQEAwIGQDAzBglghkgB
hvhCAQ0EJhYkT3BlblNTTCBHZW5lcmF0ZWQgU2VydmVyIENlcnRpZmljYXRlMB0G
A1UdDgQWBBSTL7fyoilYn/vAnrER1CMfsfR/jDB0BgNVHSMEbTBrgBT0p8DMkUav
ZPOR8if4yLJviocyc6FIpEYwRDELMAkGA1UEBhMCREUxDzANBgNVBAgMBkhlc3Nl
bjEUMBIGA1UECgwLcHJpdmFjeWlkZWExDjAMBgNVBAMMBUNBMDAxggkA+8jrrIPN
EgcwEwYDVR0lBAwwCgYIKwYBBQUHAwEwDQYJKoZIhvcNAQEFBQADggEBAG56ZuF1
Wwy3DXs6wLeVZvZBXxb8aatyNufuBaRZSTsafm0S2r2D4dL9Cq3d69VsNdC5+JGe
iIgicHQBDbZ1zC0iJvyO9E0n96GxeLVY6ijVxq7Itc5ClvPwVE74PQAjHY/NtxHF
54itodeYzs19wHXrMlfyEjlmyQFtJTPzYOVhkBJiq0NiAH6N8lTes9uMTLO9kllx
6VFEeZ0BDl1IOMCP4mwXTuKbVdkfzswGkKzWdT4N/Y0cDsWLl/wQCXaSPeZFKXTG
p8hBp/xKOa54jYM1Wi7lojnmT2HJnUUDOmXDDIceTGER92Vxgh120dRIdZ6dY5HU
1GO8Rfkc89nr5Pc=
-----END CERTIFICATE-----
