Certificate:
    Data:
        Version: 3 (0x2)
        Serial Number: 268435633 (0x100000b1)
    Signature Algorithm: sha1WithRSAEncryption
        Issuer: C=DE, ST=Hessen, O=privacyidea, CN=CA001
        Validity
            Not Before: May 21 14:18:34 2015 GMT
            Not After : May 20 14:18:34 2016 GMT
        Subject: CN=asdf/emailAddress=meine
        Subject Public Key Info:
            Public Key Algorithm: rsaEncryption
                Public-Key: (2048 bit)
                Modulus:
                    00:b9:af:37:fb:12:d1:1c:36:51:70:76:18:94:aa:
                    62:c1:c4:7b:5f:5e:75:5c:10:d0:95:6c:25:d2:f1:
                    c7:dd:0b:f6:19:c3:d5:46:01:4a:a4:49:c7:34:f1:
                    1c:95:48:dd:bc:81:81:0c:9e:f9:51:67:93:0d:bf:
                    93:d7:73:89:5d:a4:0e:69:e9:80:c4:1c:d3:d3:d2:
                    80:01:55:f2:22:3b:3f:4c:cd:ec:5f:7f:56:1e:40:
                    ec:27:b0:e5:89:ec:1d:00:34:18:06:3c:21:e3:31:
                    d1:4d:38:f4:34:7f:39:4a:9b:b8:d5:5b:71:8c:35:
                    83:ff:ad:ea:c9:8a:fd:95:5b:01:8c:f6:5c:bd:61:
                    c1:99:0a:92:19:ab:37:a9:8b:47:40:8c:99:3b:31:
                    be:cd:9c:4c:15:93:40:a7:13:53:e8:0e:f7:7e:db:
                    8d:50:e6:50:36:0d:fc:c3:85:1f:0f:71:94:dc:50:
                    0d:a2:d8:70:b4:dd:dd:bb:5a:cb:b4:97:5e:8a:52:
                    2d:6f:9d:c6:4c:4b:7e:b6:86:b6:80:b8:ae:c0:00:
                    5d:d6:55:89:9c:4a:a7:d3:dd:cc:ea:10:29:89:bc:
                    e3:0b:a5:83:24:fa:9b:c8:84:32:27:c9:a7:5f:5d:
                    59:16:40:78:66:66:97:58:cc:25:68:96:87:62:83:
                    be:45
                Exponent: 65537 (0x10001)
        X509v3 extensions:
            X509v3 Key Usage: 
                Digital Signature, Key Encipherment
            X509v3 Basic Constraints: 
                CA:FALSE
            Netscape Cert Type: 
                SSL Server
            Netscape Comment: 
                OpenSSL Generated Server Certificate
            X509v3 Subject Key Identifier: 
                F2:EA:6E:A6:C6:35:E6:1F:92:2F:DF:DE:A2:05:22:DB:78:7E:54:11
            X509v3 Authority Key Identifier: 
                keyid:F4:A7:C0:CC:91:46:AF:64:F3:91:F2:27:F8:C8:B2:6F:8A:87:32:73
                DirName:/C=DE/ST=Hessen/O=privacyidea/CN=CA001
                serial:FB:C8:EB:AC:83:CD:12:07

            X509v3 Extended Key Usage: 
                TLS Web Server Authentication
    Signature Algorithm: sha1WithRSAEncryption
         1b:a6:6b:a4:57:1e:12:d8:74:66:e9:7a:9c:5c:11:23:8f:82:
         f0:c2:08:2d:24:06:a0:27:dc:2f:06:f1:31:78:26:21:28:e9:
         58:8b:26:8c:11:9a:ca:4a:d8:b6:1e:65:e5:75:9c:5a:c1:49:
         04:6e:6e:fa:b2:94:7c:e2:24:7e:8f:ff:e7:aa:da:95:96:12:
         f5:2f:ea:72:65:50:14:e0:f4:94:68:5a:bf:c8:9d:c6:df:5a:
         d7:6e:10:95:4f:61:2a:76:c9:40:6f:fb:de:88:08:cf:b3:a1:
         d7:32:d3:1f:25:e7:20:07:56:99:51:30:ba:ca:bd:39:1d:8a:
         69:cd:38:70:9e:3b:0f:f7:98:a4:74:97:e4:80:37:69:a1:7d:
         af:2a:3d:35:4a:fd:bd:d5:f8:a1:02:04:19:f7:7a:72:84:a5:
         f9:31:ef:a1:95:dc:b2:64:34:50:01:88:07:27:70:fc:0a:b8:
         39:10:7c:6c:3a:b6:63:e3:d5:7b:d0:0f:2e:e9:00:69:d5:6d:
         0e:ec:27:18:25:8e:4f:bd:a1:48:5c:b0:c8:ce:a7:0d:d9:41:
         25:ae:ab:69:13:14:20:fe:b3:66:e0:7d:35:b1:fe:e0:b5:2f:
         c5:9c:07:49:66:20:17:d5:2d:f1:d1:f6:8f:f0:1a:5e:50:8c:
         56:95:12:70
-----BEGIN CERTIFICATE-----
MIID9zCCAt+gAwIBAgIEEAAAsTANBgkqhkiG9w0BAQUFADBEMQswCQYDVQQGEwJE
RTEPMA0GA1UECAwGSGVzc2VuMRQwEgYDVQQKDAtwcml2YWN5aWRlYTEOMAwGA1UE
AwwFQ0EwMDEwHhcNMTUwNTIxMTQxODM0WhcNMTYwNTIwMTQxODM0WjAlMQ0wCwYD
VQQDEwRhc2RmMRQwEgYJKoZIhvcNAQkBFgVtZWluZTCCASIwDQYJKoZIhvcNAQEB
BQADggEPADCCAQoCggEBALmvN/sS0Rw2UXB2GJSqYsHEe19edVwQ0JVsJdLxx90L
9hnD1UYBSqRJxzTxHJVI3byBgQye+VFnkw2/k9dziV2kDmnpgMQc09PSgAFV8iI7
P0zN7F9/Vh5A7Cew5YnsHQA0GAY8IeMx0U049DR/OUqbuNVbcYw1g/+t6smK/ZVb
AYz2XL1hwZkKkhmrN6mLR0CMmTsxvs2cTBWTQKcTU+gO937bjVDmUDYN/MOFHw9x
lNxQDaLYcLTd3btay7SXXopSLW+dxkxLfraGtoC4rsAAXdZViZxKp9PdzOoQKYm8
4wulgyT6m8iEMifJp19dWRZAeGZml1jMJWiWh2KDvkUCAwEAAaOCAQ4wggEKMAsG
A1UdDwQEAwIFoDAJBgNVHRMEAjAAMBEGCWCGSAGG+EIBAQQEAwIGQDAzBglghkgB
hvhCAQ0EJhYkT3BlblNTTCBHZW5lcmF0ZWQgU2VydmVyIENlcnRpZmljYXRlMB0G
A1UdDgQWBBTy6m6mxjXmH5Iv396iBSLbeH5UETB0BgNVHSMEbTBrgBT0p8DMkUav
ZPOR8if4yLJviocyc6FIpEYwRDELMAkGA1UEBhMCREUxDzANBgNVBAgMBkhlc3Nl
bjEUMBIGA1UECgwLcHJpdmFjeWlkZWExDjAMBgNVBAMMBUNBMDAxggkA+8jrrIPN
EgcwEwYDVR0lBAwwCgYIKwYBBQUHAwEwDQYJKoZIhvcNAQEFBQADggEBABuma6RX
HhLYdGbpepxcESOPgvDCCC0kBqAn3C8G8TF4JiEo6ViLJowRmspK2LYeZeV1nFrB
SQRubvqylHziJH6P/+eq2pWWEvUv6nJlUBTg9JRoWr/IncbfWtduEJVPYSp2yUBv
+96ICM+zodcy0x8l5yAHVplRMLrKvTkdimnNOHCeOw/3mKR0l+SAN2mhfa8qPTVK
/b3V+KECBBn3enKEpfkx76GV3LJkNFABiAcncPwKuDkQfGw6tmPj1XvQDy7pAGnV
bQ7sJxgljk+9oUhcsMjOpw3ZQSWuq2kTFCD+s2bgfTWx/uC1L8WcB0lmIBfVLfHR
9o/wGl5QjFaVEnA=
-----END CERTIFICATE-----
