Certificate:
    Data:
        Version: 3 (0x2)
        Serial Number: 268435602 (0x10000092)
    Signature Algorithm: sha1WithRSAEncryption
        Issuer: C=DE, ST=Hessen, O=privacyidea, CN=CA001
        Validity
            Not Before: May 21 13:28:00 2015 GMT
            Not After : May 20 13:28:00 2016 GMT
        Subject: C=DE, ST=Hessen, O=privacyidea, CN=usercert
        Subject Public Key Info:
            Public Key Algorithm: rsaEncryption
                Public-Key: (2048 bit)
                Modulus:
                    00:dc:2f:d1:5f:29:97:d4:7c:c3:53:c8:30:bd:4b:
                    67:70:2c:24:6b:b8:5e:eb:21:7a:48:12:56:7c:81:
                    5c:48:75:b6:68:eb:f6:f2:98:4e:50:51:d1:7f:6c:
                    73:f3:0a:a7:ae:be:48:5e:e5:d6:e1:d9:2a:7c:32:
                    6e:4e:fd:08:f6:5a:54:49:23:73:c3:b9:07:18:d1:
                    ef:b3:ac:f8:8a:dc:94:96:a4:90:3a:8e:74:df:e6:
                    0d:37:1b:bd:5b:b7:25:1a:56:39:da:6f:91:aa:5e:
                    1c:74:f3:f9:7c:14:01:83:12:65:76:c7:bb:fe:36:
                    5b:95:e9:72:65:83:ed:3e:98:30:71:fa:87:dd:a3:
                    36:5a:30:03:2e:26:e0:61:d1:bf:02:3f:b6:06:1f:
                    4a:89:28:1c:5c:a2:ff:4e:be:94:e6:8c:e0:da:82:
                    f1:9d:29:32:48:30:73:b4:04:f6:42:1e:be:f7:e2:
                    32:32:27:3c:9d:89:2f:70:3e:85:9a:6f:5c:c5:09:
                    c0:8c:32:2f:72:22:c9:d2:95:1f:b6:ac:72:60:72:
                    b7:82:4d:6b:ce:5b:e3:00:d0:d2:2f:58:c6:e0:10:
                    e5:51:ca:4d:3b:2e:e6:7e:ab:84:d6:56:f1:93:35:
                    a0:93:64:26:81:75:2f:91:b5:16:06:38:0b:db:cc:
                    2d:07
                Exponent: 65537 (0x10001)
        X509v3 extensions:
            X509v3 Key Usage: 
                Digital Signature, Key Encipherment
            X509v3 Basic Constraints: 
                CA:FALSE
            Netscape Cert Type: 
                SSL Server
            Netscape Comment: 
                OpenSSL Generated Server Certificate
            X509v3 Subject Key Identifier: 
                FC:14:D1:F0:4B:8D:00:90:F2:F5:B8:71:9E:4E:97:C3:92:54:AD:0B
            X509v3 Authority Key Identifier: 
                keyid:F4:A7:C0:CC:91:46:AF:64:F3:91:F2:27:F8:C8:B2:6F:8A:87:32:73
                DirName:/C=DE/ST=Hessen/O=privacyidea/CN=CA001
                serial:FB:C8:EB:AC:83:CD:12:07

            X509v3 Extended Key Usage: 
                TLS Web Server Authentication
    Signature Algorithm: sha1WithRSAEncryption
         40:6a:a7:4a:83:88:4f:cf:a2:ac:4a:c3:90:0a:fb:e6:ee:a1:
         79:cf:b8:c7:6e:7e:1f:30:a9:24:c5:40:8e:08:a1:ba:c3:72:
         c6:ae:d2:c3:4a:75:e7:12:96:f2:28:4d:a6:9b:cf:d6:fd:a2:
         80:bd:81:1e:3b:e3:b5:48:0a:ab:81:4c:37:cd:4e:7c:16:30:
         7a:2d:13:8e:57:8f:a1:e8:b9:89:6e:f6:f0:c9:b6:42:52:2f:
         99:bb:d7:33:5a:eb:e7:3f:fb:14:42:6a:eb:29:b6:87:68:4b:
         55:a8:33:b5:7e:26:91:6b:b5:30:8f:54:cc:19:93:b0:01:9d:
         2a:2b:44:58:b3:c8:df:83:9f:17:0c:ae:b9:4c:6c:87:b8:5d:
         51:42:5c:2a:9b:12:ea:0c:47:50:ed:a2:87:28:3d:dc:a8:fb:
         af:2d:bb:c5:23:6f:9f:22:26:e4:a5:19:90:69:6d:6c:6e:47:
         27:63:5e:10:3e:54:68:c9:57:22:ce:77:05:5f:69:a7:2a:3b:
         05:a4:7f:c4:2e:48:38:46:f8:ba:b3:b5:df:27:d9:73:a6:20:
         65:46:a3:24:71:12:ab:86:2a:22:cd:d6:c5:e4:ae:98:5c:1e:
         67:1d:98:1b:4d:2b:36:4c:af:1d:70:57:c6:76:7b:79:48:8a:
         0a:2c:13:95
-----BEGIN CERTIFICATE-----
MIIEGTCCAwGgAwIBAgIEEAAAkjANBgkqhkiG9w0BAQUFADBEMQswCQYDVQQGEwJE
RTEPMA0GA1UECAwGSGVzc2VuMRQwEgYDVQQKDAtwcml2YWN5aWRlYTEOMAwGA1UE
AwwFQ0EwMDEwHhcNMTUwNTIxMTMyODAwWhcNMTYwNTIwMTMyODAwWjBHMQswCQYD
VQQGEwJERTEPMA0GA1UECAwGSGVzc2VuMRQwEgYDVQQKDAtwcml2YWN5aWRlYTER
MA8GA1UEAwwIdXNlcmNlcnQwggEiMA0GCSqGSIb3DQEBAQUAA4IBDwAwggEKAoIB
AQDcL9FfKZfUfMNTyDC9S2dwLCRruF7rIXpIElZ8gVxIdbZo6/bymE5QUdF/bHPz
Cqeuvkhe5dbh2Sp8Mm5O/Qj2WlRJI3PDuQcY0e+zrPiK3JSWpJA6jnTf5g03G71b
tyUaVjnab5GqXhx08/l8FAGDEmV2x7v+NluV6XJlg+0+mDBx+ofdozZaMAMuJuBh
0b8CP7YGH0qJKBxcov9OvpTmjODagvGdKTJIMHO0BPZCHr734jIyJzydiS9wPoWa
b1zFCcCMMi9yIsnSlR+2rHJgcreCTWvOW+MA0NIvWMbgEOVRyk07LuZ+q4TWVvGT
NaCTZCaBdS+RtRYGOAvbzC0HAgMBAAGjggEOMIIBCjALBgNVHQ8EBAMCBaAwCQYD
VR0TBAIwADARBglghkgBhvhCAQEEBAMCBkAwMwYJYIZIAYb4QgENBCYWJE9wZW5T
U0wgR2VuZXJhdGVkIFNlcnZlciBDZXJ0aWZpY2F0ZTAdBgNVHQ4EFgQU/BTR8EuN
AJDy9bhxnk6Xw5JUrQswdAYDVR0jBG0wa4AU9KfAzJFGr2TzkfIn+Miyb4qHMnOh
SKRGMEQxCzAJBgNVBAYTAkRFMQ8wDQYDVQQIDAZIZXNzZW4xFDASBgNVBAoMC3By
aXZhY3lpZGVhMQ4wDAYDVQQDDAVDQTAwMYIJAPvI66yDzRIHMBMGA1UdJQQMMAoG
CCsGAQUFBwMBMA0GCSqGSIb3DQEBBQUAA4IBAQBAaqdKg4hPz6KsSsOQCvvm7qF5
z7jHbn4fMKkkxUCOCKG6w3LGrtLDSnXnEpbyKE2mm8/W/aKAvYEeO+O1SAqrgUw3
zU58FjB6LROOV4+h6LmJbvbwybZCUi+Zu9czWuvnP/sUQmrrKbaHaEtVqDO1fiaR
a7Uwj1TMGZOwAZ0qK0RYs8jfg58XDK65TGyHuF1RQlwqmxLqDEdQ7aKHKD3cqPuv
LbvFI2+fIibkpRmQaW1sbkcnY14QPlRoyVcizncFX2mnKjsFpH/ELkg4Rvi6s7Xf
J9lzpiBlRqMkcRKrhioizdbF5K6YXB5nHZgbTSs2TK8dcFfGdnt5SIoKLBOV
-----END CERTIFICATE-----
