Certificate:
    Data:
        Version: 3 (0x2)
        Serial Number: 268435645 (0x100000bd)
    Signature Algorithm: sha1WithRSAEncryption
        Issuer: C=DE, ST=Hessen, O=privacyidea, CN=CA001
        Validity
            Not Before: May 21 15:53:47 2015 GMT
            Not After : May 20 15:53:47 2016 GMT
        Subject: CN=hius/emailAddress=meine
        Subject Public Key Info:
            Public Key Algorithm: rsaEncryption
                Public-Key: (2048 bit)
                Modulus:
                    00:e5:81:f2:b7:e4:0c:25:bc:5e:5c:d5:61:06:a5:
                    ee:34:2c:1d:0c:88:44:fc:ee:71:d3:19:a2:8a:ae:
                    19:c1:d2:ed:55:88:10:1b:ac:78:db:17:5a:f3:1a:
                    8b:6a:bb:cf:40:5d:3d:60:7d:bd:83:21:03:5e:b5:
                    ce:32:16:f1:41:d8:06:7c:b9:c0:f1:d0:c8:6d:ec:
                    a3:29:8d:3f:41:44:1a:9c:ab:b8:ee:9b:20:21:ca:
                    01:95:d1:f7:e7:2e:ac:7c:1e:3a:97:12:1e:aa:5d:
                    18:67:7c:3f:4b:91:4b:29:a1:6f:e9:7a:da:12:fd:
                    5a:3a:a2:05:63:16:fb:7c:54:ab:c5:c1:38:b6:37:
                    d9:0a:db:40:14:2d:fb:b9:34:f7:ec:24:0a:3a:94:
                    f2:7f:77:a2:8e:32:01:ad:d1:19:0b:2a:26:9b:8f:
                    9f:2c:88:9c:63:6e:c7:c3:55:ad:9e:4b:52:45:1f:
                    3b:0d:4f:3d:f4:2c:56:d4:ea:9e:82:b3:2f:9a:76:
                    47:a6:29:13:b9:1c:df:af:86:0f:28:e3:19:82:15:
                    e8:cc:55:88:a8:9f:17:e8:51:91:72:47:02:0c:6c:
                    06:1a:78:10:9f:07:64:82:4a:4b:b0:80:10:f0:90:
                    86:01:6f:0e:41:b8:4f:8c:84:50:6f:f3:65:63:d0:
                    4c:05
                Exponent: 65537 (0x10001)
        X509v3 extensions:
            X509v3 Key Usage: 
                Digital Signature, Key Encipherment
            X509v3 Basic Constraints: 
                CA:FALSE
            Netscape Cert Type: 
                SSL Server
            Netscape Comment: 
                OpenSSL Generated Server Certificate
            X509v3 Subject Key Identifier: 
                6D:E1:22:77:6B:BA:E7:E9:86:60:3B:8A:26:08:C7:C0:63:50:EB:D7
            X509v3 Authority Key Identifier: 
                keyid:F4:A7:C0:CC:91:46:AF:64:F3:91:F2:27:F8:C8:B2:6F:8A:87:32:73
                DirName:/C=DE/ST=Hessen/O=privacyidea/CN=CA001
                serial:FB:C8:EB:AC:83:CD:12:07

            X509v3 Extended Key Usage: 
                TLS Web Server Authentication
    Signature Algorithm: sha1WithRSAEncryption
         53:34:f0:f3:40:ad:39:27:9c:00:cc:ec:c0:c5:a7:f7:04:f6:
         e3:2e:48:69:06:39:d4:48:29:2f:90:e0:46:2c:07:0e:c4:ce:
         f8:ba:43:db:e3:62:a3:0c:37:55:70:db:44:7a:e5:5a:c5:d1:
         e1:78:56:aa:a9:c0:f5:4d:7c:35:3b:53:a5:01:3c:b7:12:2a:
         cb:03:88:ac:4c:17:f6:2b:f5:36:23:42:b0:ae:a9:dc:df:c4:
         b9:8f:3c:62:0b:7c:75:7f:e4:33:36:41:ec:2b:95:74:fe:85:
         2c:ed:cc:48:38:cb:30:14:c2:6e:af:df:65:16:d0:2f:94:67:
         ce:ad:23:ba:1a:d6:67:17:57:ef:c1:c0:46:87:2c:99:72:40:
         3d:11:9b:9c:4f:a3:3f:0d:87:4a:b7:56:04:c6:94:fe:ee:7d:
         30:3e:a0:f9:c2:5d:2d:93:dc:79:f8:83:d9:c5:49:1b:7f:37:
         78:c0:16:5a:35:af:ec:ae:0f:74:15:16:45:92:1e:56:70:fb:
         ce:65:52:93:18:7d:9f:1e:a1:ab:7a:bf:68:c6:1c:27:45:ea:
         69:c4:08:a5:8c:41:9a:58:80:61:a2:87:6d:9c:04:76:83:be:
         07:93:f9:f8:f1:b1:e6:44:24:86:9d:31:c1:7b:c3:95:49:06:
         3d:ab:76:09
-----BEGIN CERTIFICATE-----
MIID9zCCAt+gAwIBAgIEEAAAvTANBgkqhkiG9w0BAQUFADBEMQswCQYDVQQGEwJE
RTEPMA0GA1UECAwGSGVzc2VuMRQwEgYDVQQKDAtwcml2YWN5aWRlYTEOMAwGA1UE
AwwFQ0EwMDEwHhcNMTUwNTIxMTU1MzQ3WhcNMTYwNTIwMTU1MzQ3WjAlMQ0wCwYD
VQQDEwRoaXVzMRQwEgYJKoZIhvcNAQkBFgVtZWluZTCCASIwDQYJKoZIhvcNAQEB
BQADggEPADCCAQoCggEBAOWB8rfkDCW8XlzVYQal7jQsHQyIRPzucdMZooquGcHS
7VWIEBuseNsXWvMai2q7z0BdPWB9vYMhA161zjIW8UHYBny5wPHQyG3soymNP0FE
GpyruO6bICHKAZXR9+curHweOpcSHqpdGGd8P0uRSymhb+l62hL9WjqiBWMW+3xU
q8XBOLY32QrbQBQt+7k09+wkCjqU8n93oo4yAa3RGQsqJpuPnyyInGNux8NVrZ5L
UkUfOw1PPfQsVtTqnoKzL5p2R6YpE7kc36+GDyjjGYIV6MxViKifF+hRkXJHAgxs
Bhp4EJ8HZIJKS7CAEPCQhgFvDkG4T4yEUG/zZWPQTAUCAwEAAaOCAQ4wggEKMAsG
A1UdDwQEAwIFoDAJBgNVHRMEAjAAMBEGCWCGSAGG+EIBAQQEAwIGQDAzBglghkgB
hvhCAQ0EJhYkT3BlblNTTCBHZW5lcmF0ZWQgU2VydmVyIENlcnRpZmljYXRlMB0G
A1UdDgQWBBRt4SJ3a7rn6YZgO4omCMfAY1Dr1zB0BgNVHSMEbTBrgBT0p8DMkUav
ZPOR8if4yLJviocyc6FIpEYwRDELMAkGA1UEBhMCREUxDzANBgNVBAgMBkhlc3Nl
bjEUMBIGA1UECgwLcHJpdmFjeWlkZWExDjAMBgNVBAMMBUNBMDAxggkA+8jrrIPN
EgcwEwYDVR0lBAwwCgYIKwYBBQUHAwEwDQYJKoZIhvcNAQEFBQADggEBAFM08PNA
rTknnADM7MDFp/cE9uMuSGkGOdRIKS+Q4EYsBw7Ezvi6Q9vjYqMMN1Vw20R65VrF
0eF4VqqpwPVNfDU7U6UBPLcSKssDiKxMF/Yr9TYjQrCuqdzfxLmPPGILfHV/5DM2
QewrlXT+hSztzEg4yzAUwm6v32UW0C+UZ86tI7oa1mcXV+/BwEaHLJlyQD0Rm5xP
oz8Nh0q3VgTGlP7ufTA+oPnCXS2T3Hn4g9nFSRt/N3jAFlo1r+yuD3QVFkWSHlZw
+85lUpMYfZ8eoat6v2jGHCdF6mnECKWMQZpYgGGih22cBHaDvgeT+fjxseZEJIad
McF7w5VJBj2rdgk=
-----END CERTIFICATE-----
