Certificate:
    Data:
        Version: 3 (0x2)
        Serial Number: 268435640 (0x100000b8)
    Signature Algorithm: sha1WithRSAEncryption
        Issuer: C=DE, ST=Hessen, O=privacyidea, CN=CA001
        Validity
            Not Before: May 21 14:31:18 2015 GMT
            Not After : May 20 14:31:18 2016 GMT
        Subject: CN=tom/emailAddress=meine
        Subject Public Key Info:
            Public Key Algorithm: rsaEncryption
                Public-Key: (2048 bit)
                Modulus:
                    00:c7:d1:98:c6:5d:83:f8:36:dc:33:fc:37:8c:d8:
                    95:eb:0a:22:63:c8:22:0d:c2:82:0a:52:f3:18:89:
                    7a:e3:60:10:7b:9a:65:e7:d2:ce:e7:57:97:e1:8f:
                    2b:15:f2:85:4b:89:a4:23:af:82:ec:71:ec:53:87:
                    35:9c:c0:89:d7:aa:c1:48:95:bb:7f:c7:4f:be:5f:
                    ac:f9:67:e0:26:81:fb:26:51:3d:6b:9d:9b:64:aa:
                    72:c0:ce:d3:4e:53:9e:0c:e3:6a:43:ed:cb:91:6c:
                    30:dd:14:ba:da:5a:81:59:f0:44:9f:a4:60:28:e4:
                    3c:b9:61:69:be:63:3b:09:0c:ce:3e:eb:90:3f:20:
                    f5:29:eb:18:d1:10:34:38:8c:71:48:af:e7:f3:10:
                    1d:5a:55:03:c0:3c:bf:b0:8c:5c:ae:c4:d6:0d:7b:
                    19:5f:b4:70:b7:93:f1:76:9a:45:ab:92:fc:86:e2:
                    bc:5a:f1:50:31:bf:69:b0:72:e8:04:db:ea:d3:24:
                    d6:0c:7c:c3:56:b5:d4:13:7b:41:f4:c9:99:50:d5:
                    e1:91:79:15:c7:d2:2d:6b:70:20:f0:a7:93:ff:d2:
                    b9:67:6d:6c:72:0f:e0:40:cc:29:22:bf:a4:5b:a2:
                    1e:07:da:ae:c5:8a:57:89:fd:95:c1:01:52:76:9b:
                    f2:a1
                Exponent: 65537 (0x10001)
        X509v3 extensions:
            X509v3 Key Usage: 
                Digital Signature, Key Encipherment
            X509v3 Basic Constraints: 
                CA:FALSE
            Netscape Cert Type: 
                SSL Server
            Netscape Comment: 
                OpenSSL Generated Server Certificate
            X509v3 Subject Key Identifier: 
                32:1E:BA:6B:FF:D6:68:2D:1C:1F:1E:4C:C5:6D:FD:3A:FC:E9:1E:A7
            X509v3 Authority Key Identifier: 
                keyid:F4:A7:C0:CC:91:46:AF:64:F3:91:F2:27:F8:C8:B2:6F:8A:87:32:73
                DirName:/C=DE/ST=Hessen/O=privacyidea/CN=CA001
                serial:FB:C8:EB:AC:83:CD:12:07

            X509v3 Extended Key Usage: 
                TLS Web Server Authentication
    Signature Algorithm: sha1WithRSAEncryption
         38:9b:df:60:83:38:47:d6:c3:54:d4:69:d1:87:b3:c4:07:21:
         f6:77:cf:19:e8:bc:07:a0:9a:36:0e:d0:6e:e3:08:df:f6:ae:
         36:29:28:0b:7a:9f:af:10:db:2d:44:2d:ef:a3:ef:1e:b1:48:
         f9:95:c2:b0:9f:bf:c0:b0:b4:20:db:20:84:e4:dc:3b:4a:85:
         91:9c:5a:5c:2d:a3:d1:20:c4:8d:d4:b3:96:a5:8a:91:41:9b:
         4f:ed:00:ab:33:64:c1:ac:21:0e:e1:72:45:bb:c0:01:10:1b:
         23:69:23:e6:ad:a5:c3:85:49:f2:11:6e:b8:f4:22:ab:2f:d8:
         a4:b2:b1:f5:3a:8f:8f:8d:57:a3:80:3e:78:42:97:4f:a5:1f:
         e2:67:28:ac:7a:e4:74:93:fd:07:bf:3e:01:84:3e:f0:93:bd:
         28:01:9b:c1:3a:32:c1:5b:9e:af:b8:ba:89:a2:6b:d3:26:c2:
         09:44:28:71:30:eb:f2:94:7a:50:7b:79:a2:99:87:a8:ad:42:
         cb:7b:84:63:88:20:7e:ed:2e:38:d8:d4:5b:be:f3:d2:ca:14:
         70:e2:05:ae:1b:e2:1b:a9:19:24:8d:21:dc:e9:b7:40:da:12:
         80:27:ea:b7:8b:1e:40:6b:b6:0a:86:31:49:f0:98:49:6a:f0:
         cd:96:c1:8b
-----BEGIN CERTIFICATE-----
MIID9jCCAt6gAwIBAgIEEAAAuDANBgkqhkiG9w0BAQUFADBEMQswCQYDVQQGEwJE
RTEPMA0GA1UECAwGSGVzc2VuMRQwEgYDVQQKDAtwcml2YWN5aWRlYTEOMAwGA1UE
AwwFQ0EwMDEwHhcNMTUwNTIxMTQzMTE4WhcNMTYwNTIwMTQzMTE4WjAkMQwwCgYD
VQQDEwN0b20xFDASBgkqhkiG9w0BCQEWBW1laW5lMIIBIjANBgkqhkiG9w0BAQEF
AAOCAQ8AMIIBCgKCAQEAx9GYxl2D+DbcM/w3jNiV6woiY8giDcKCClLzGIl642AQ
e5pl59LO51eX4Y8rFfKFS4mkI6+C7HHsU4c1nMCJ16rBSJW7f8dPvl+s+WfgJoH7
JlE9a52bZKpywM7TTlOeDONqQ+3LkWww3RS62lqBWfBEn6RgKOQ8uWFpvmM7CQzO
PuuQPyD1KesY0RA0OIxxSK/n8xAdWlUDwDy/sIxcrsTWDXsZX7Rwt5PxdppFq5L8
huK8WvFQMb9psHLoBNvq0yTWDHzDVrXUE3tB9MmZUNXhkXkVx9Ita3Ag8KeT/9K5
Z21scg/gQMwpIr+kW6IeB9quxYpXif2VwQFSdpvyoQIDAQABo4IBDjCCAQowCwYD
VR0PBAQDAgWgMAkGA1UdEwQCMAAwEQYJYIZIAYb4QgEBBAQDAgZAMDMGCWCGSAGG
+EIBDQQmFiRPcGVuU1NMIEdlbmVyYXRlZCBTZXJ2ZXIgQ2VydGlmaWNhdGUwHQYD
VR0OBBYEFDIeumv/1mgtHB8eTMVt/Tr86R6nMHQGA1UdIwRtMGuAFPSnwMyRRq9k
85HyJ/jIsm+KhzJzoUikRjBEMQswCQYDVQQGEwJERTEPMA0GA1UECAwGSGVzc2Vu
MRQwEgYDVQQKDAtwcml2YWN5aWRlYTEOMAwGA1UEAwwFQ0EwMDGCCQD7yOusg80S
BzATBgNVHSUEDDAKBggrBgEFBQcDATANBgkqhkiG9w0BAQUFAAOCAQEAOJvfYIM4
R9bDVNRp0YezxAch9nfPGei8B6CaNg7QbuMI3/auNikoC3qfrxDbLUQt76PvHrFI
+ZXCsJ+/wLC0INsghOTcO0qFkZxaXC2j0SDEjdSzlqWKkUGbT+0AqzNkwawhDuFy
RbvAARAbI2kj5q2lw4VJ8hFuuPQiqy/YpLKx9TqPj41Xo4A+eEKXT6Uf4mcorHrk
dJP9B78+AYQ+8JO9KAGbwToywVuer7i6iaJr0ybCCUQocTDr8pR6UHt5opmHqK1C
y3uEY4ggfu0uONjUW77z0soUcOIFrhviG6kZJI0h3Om3QNoSgCfqt4seQGu2CoYx
SfCYSWrwzZbBiw==
-----END CERTIFICATE-----
