Certificate:
    Data:
        Version: 3 (0x2)
        Serial Number: 268435630 (0x100000ae)
    Signature Algorithm: sha1WithRSAEncryption
        Issuer: C=DE, ST=Hessen, O=privacyidea, CN=CA001
        Validity
            Not Before: May 21 13:59:19 2015 GMT
            Not After : May 20 13:59:19 2016 GMT
        Subject: CN=asdfasdf/emailAddress=meine
        Subject Public Key Info:
            Public Key Algorithm: rsaEncryption
                Public-Key: (2048 bit)
                Modulus:
                    00:eb:ac:fb:9a:cf:00:06:b0:b6:2f:3d:b8:c3:5e:
                    9d:82:75:51:be:cf:b5:ec:a9:10:56:bb:13:cb:6d:
                    9a:a9:99:2a:b1:74:79:2e:d0:8e:b7:d2:4d:5f:fd:
                    9b:f8:e8:94:36:5f:e0:1e:9b:6e:4f:32:82:c3:7e:
                    d4:a8:66:7e:c4:11:26:c4:e3:dd:e7:5e:2e:be:0a:
                    8b:cb:d2:7e:bb:aa:a5:66:65:49:2b:4b:50:d7:8a:
                    05:3b:de:51:b0:f7:a0:8c:fd:80:59:2a:63:25:2e:
                    12:b6:26:58:8a:6f:86:28:0f:90:9c:21:60:d6:3a:
                    d5:f4:73:fb:91:19:1b:ab:5d:74:f2:59:5f:c8:30:
                    d4:8b:bc:ff:08:7e:8b:3a:e4:92:71:ef:dd:dc:2b:
                    b0:b6:6a:e7:cb:ae:71:33:74:15:4f:5c:a1:77:a6:
                    b8:7f:1a:1c:84:b3:98:df:06:1b:31:c5:06:96:da:
                    29:de:ba:56:06:86:79:e4:ae:90:00:9a:0b:56:88:
                    01:10:aa:17:0e:9d:80:16:27:35:19:58:17:21:c9:
                    61:a0:ce:ad:5a:50:bc:07:69:95:fe:1b:29:4c:06:
                    9f:c9:00:6b:a6:1c:9a:a9:e2:d0:2c:f7:17:fd:e2:
                    9b:ac:10:52:cd:82:77:44:cc:f8:68:1b:a0:7e:68:
                    56:9d
                Exponent: 65537 (0x10001)
        X509v3 extensions:
            X509v3 Key Usage: 
                Digital Signature, Key Encipherment
            X509v3 Basic Constraints: 
                CA:FALSE
            Netscape Cert Type: 
                SSL Server
            Netscape Comment: 
                OpenSSL Generated Server Certificate
            X509v3 Subject Key Identifier: 
                C3:6C:5C:8F:1C:2C:2C:7D:AA:15:D3:E5:5C:A5:FB:8A:3B:03:94:8B
            X509v3 Authority Key Identifier: 
                keyid:F4:A7:C0:CC:91:46:AF:64:F3:91:F2:27:F8:C8:B2:6F:8A:87:32:73
                DirName:/C=DE/ST=Hessen/O=privacyidea/CN=CA001
                serial:FB:C8:EB:AC:83:CD:12:07

            X509v3 Extended Key Usage: 
                TLS Web Server Authentication
    Signature Algorithm: sha1WithRSAEncryption
         02:42:b8:40:92:ae:f8:2d:b2:05:0d:7a:94:ab:c2:71:26:ad:
         3e:73:c6:40:ab:22:53:ed:78:46:b7:4f:3f:72:44:9d:70:e9:
         0d:03:6a:a3:93:65:d5:3b:98:7f:82:f1:01:f5:0e:ed:38:95:
         34:ca:30:17:73:86:7b:4f:68:f5:79:cd:11:e5:11:df:b7:17:
         3c:d1:b0:04:9c:44:d1:ba:27:a9:14:16:53:aa:d9:0e:7b:30:
         22:06:98:45:b3:b0:14:9a:73:b0:89:d3:ac:16:0a:b6:b4:38:
         43:4f:0a:82:e2:27:b5:5d:b8:41:b7:a1:5b:3e:ed:60:83:bb:
         74:94:d2:e8:41:05:be:05:3b:35:0c:ec:a6:37:b8:84:ed:20:
         6d:54:be:5e:32:f8:1c:b9:c9:dd:51:b1:90:ba:6a:2c:68:5a:
         44:d4:de:7a:ae:92:46:68:e9:4c:b4:e9:7d:b1:b8:1b:e6:b7:
         a9:12:76:0c:db:74:e0:5e:03:cb:58:a7:16:c8:81:b0:a3:aa:
         25:3d:59:5b:87:a3:03:76:b2:8f:e0:09:db:d1:9e:a8:46:e6:
         11:4e:bd:01:ae:75:08:8e:49:60:1c:f4:73:49:3b:90:16:6c:
         bf:96:17:11:86:c1:bb:2e:c7:dd:1a:ac:cc:60:e6:7a:f3:fd:
         8c:57:c4:80
-----BEGIN CERTIFICATE-----
MIID+zCCAuOgAwIBAgIEEAAArjANBgkqhkiG9w0BAQUFADBEMQswCQYDVQQGEwJE
RTEPMA0GA1UECAwGSGVzc2VuMRQwEgYDVQQKDAtwcml2YWN5aWRlYTEOMAwGA1UE
AwwFQ0EwMDEwHhcNMTUwNTIxMTM1OTE5WhcNMTYwNTIwMTM1OTE5WjApMREwDwYD
VQQDEwhhc2RmYXNkZjEUMBIGCSqGSIb3DQEJARYFbWVpbmUwggEiMA0GCSqGSIb3
DQEBAQUAA4IBDwAwggEKAoIBAQDrrPuazwAGsLYvPbjDXp2CdVG+z7XsqRBWuxPL
bZqpmSqxdHku0I630k1f/Zv46JQ2X+Aem25PMoLDftSoZn7EESbE493nXi6+CovL
0n67qqVmZUkrS1DXigU73lGw96CM/YBZKmMlLhK2JliKb4YoD5CcIWDWOtX0c/uR
GRurXXTyWV/IMNSLvP8Ifos65JJx793cK7C2aufLrnEzdBVPXKF3prh/GhyEs5jf
BhsxxQaW2ineulYGhnnkrpAAmgtWiAEQqhcOnYAWJzUZWBchyWGgzq1aULwHaZX+
GylMBp/JAGumHJqp4tAs9xf94pusEFLNgndEzPhoG6B+aFadAgMBAAGjggEOMIIB
CjALBgNVHQ8EBAMCBaAwCQYDVR0TBAIwADARBglghkgBhvhCAQEEBAMCBkAwMwYJ
YIZIAYb4QgENBCYWJE9wZW5TU0wgR2VuZXJhdGVkIFNlcnZlciBDZXJ0aWZpY2F0
ZTAdBgNVHQ4EFgQUw2xcjxwsLH2qFdPlXKX7ijsDlIswdAYDVR0jBG0wa4AU9KfA
zJFGr2TzkfIn+Miyb4qHMnOhSKRGMEQxCzAJBgNVBAYTAkRFMQ8wDQYDVQQIDAZI
ZXNzZW4xFDASBgNVBAoMC3ByaXZhY3lpZGVhMQ4wDAYDVQQDDAVDQTAwMYIJAPvI
66yDzRIHMBMGA1UdJQQMMAoGCCsGAQUFBwMBMA0GCSqGSIb3DQEBBQUAA4IBAQAC
QrhAkq74LbIFDXqUq8JxJq0+c8ZAqyJT7XhGt08/ckSdcOkNA2qjk2XVO5h/gvEB
9Q7tOJU0yjAXc4Z7T2j1ec0R5RHftxc80bAEnETRuiepFBZTqtkOezAiBphFs7AU
mnOwidOsFgq2tDhDTwqC4ie1XbhBt6FbPu1gg7t0lNLoQQW+BTs1DOymN7iE7SBt
VL5eMvgcucndUbGQumosaFpE1N56rpJGaOlMtOl9sbgb5repEnYM23TgXgPLWKcW
yIGwo6olPVlbh6MDdrKP4Anb0Z6oRuYRTr0BrnUIjklgHPRzSTuQFmy/lhcRhsG7
LsfdGqzMYOZ68/2MV8SA
-----END CERTIFICATE-----
