Certificate:
    Data:
        Version: 3 (0x2)
        Serial Number: 268435601 (0x10000091)
    Signature Algorithm: sha1WithRSAEncryption
        Issuer: C=DE, ST=Hessen, O=privacyidea, CN=CA001
        Validity
            Not Before: May 21 13:27:59 2015 GMT
            Not After : May 20 13:27:59 2016 GMT
        Subject: C=DE, ST=Hessen, O=privacyidea, CN=requester.localdomain
        Subject Public Key Info:
            Public Key Algorithm: rsaEncryption
                Public-Key: (2048 bit)
                Modulus:
                    00:cd:be:14:4f:fa:ce:01:3f:42:22:1b:1d:9c:af:
                    dd:92:d2:7f:db:6c:b7:3e:39:43:43:6b:13:03:f1:
                    05:f4:07:74:bc:76:69:28:0b:af:19:8e:d7:fc:e3:
                    cd:c6:58:f2:ca:7f:08:6d:53:fc:07:02:44:24:c6:
                    b4:34:4c:8c:04:fe:33:0e:40:e2:20:ba:02:73:5a:
                    f7:f5:4f:63:6e:cc:c6:b6:df:54:1d:37:39:7d:51:
                    36:26:5f:bd:dc:3f:a8:8b:6b:a2:ae:b6:9d:d6:21:
                    e7:df:41:b8:7a:28:2a:68:48:ca:a8:2d:ed:e1:e9:
                    46:5e:5a:72:6d:b4:84:38:87:91:fd:94:11:0b:28:
                    84:c6:c2:2f:2a:fb:01:f9:36:7a:09:75:d1:33:88:
                    3c:73:41:5b:c8:bf:94:89:70:a1:f0:c0:b9:2e:50:
                    53:1e:b1:17:64:69:f4:2d:81:e0:a9:0d:0e:32:e9:
                    ba:55:8a:85:f1:1b:6f:49:79:b4:7f:88:c3:0d:3e:
                    54:88:9b:3d:1f:38:8c:04:f3:ee:6a:63:2b:f5:c6:
                    db:b4:83:aa:c4:78:41:3a:7d:4b:e1:c8:3e:71:ca:
                    1b:61:59:ea:c6:c4:ca:32:5e:c9:e9:bf:12:29:e6:
                    c6:c3:63:fe:a0:55:da:7a:f1:60:98:4d:26:ed:fa:
                    70:2d
                Exponent: 65537 (0x10001)
        X509v3 extensions:
            X509v3 Key Usage: 
                Digital Signature, Key Encipherment
            X509v3 Basic Constraints: 
                CA:FALSE
            Netscape Cert Type: 
                SSL Server
            Netscape Comment: 
                OpenSSL Generated Server Certificate
            X509v3 Subject Key Identifier: 
                53:3F:ED:5D:09:07:B3:65:7B:AB:45:C9:24:5B:09:77:80:0A:96:ED
            X509v3 Authority Key Identifier: 
                keyid:F4:A7:C0:CC:91:46:AF:64:F3:91:F2:27:F8:C8:B2:6F:8A:87:32:73
                DirName:/C=DE/ST=Hessen/O=privacyidea/CN=CA001
                serial:FB:C8:EB:AC:83:CD:12:07

            X509v3 Extended Key Usage: 
                TLS Web Server Authentication
    Signature Algorithm: sha1WithRSAEncryption
         62:a0:82:8a:78:19:92:78:f5:de:7b:75:d0:88:68:5d:83:d0:
         ee:92:dc:ea:6d:71:03:ec:25:b3:40:b2:e9:3c:19:f9:73:30:
         92:f2:e1:67:59:82:d4:24:00:c4:1b:03:c8:14:fa:34:60:f7:
         e3:8c:ff:9e:84:9a:39:85:6c:30:bd:f7:64:a6:6f:c2:25:de:
         fc:09:4f:e6:ca:39:e9:c7:ee:16:fe:37:e0:5f:d5:0f:92:b4:
         06:cd:12:76:17:6c:00:6e:01:9e:9d:8e:d8:5e:2c:4e:23:11:
         97:dc:2e:57:a4:97:fc:59:a3:bd:96:12:d8:ab:f4:79:e9:aa:
         8c:e3:65:21:cf:58:c0:7e:fa:ef:a5:51:60:90:0f:c3:74:79:
         c1:70:f0:6f:0c:26:52:68:5f:98:cc:b9:29:b0:51:94:cc:81:
         f7:1e:8c:38:b1:33:e1:7d:98:b2:93:2b:39:47:15:85:e3:5d:
         87:12:fc:e5:81:87:aa:25:c9:4d:56:a3:34:b5:5a:38:18:6d:
         58:e4:01:c4:a8:92:b5:fa:1b:bc:72:7a:c2:51:81:8a:62:13:
         63:a7:95:1e:b3:97:cb:99:ad:e2:7e:06:ab:81:5f:f9:ac:16:
         06:ec:26:84:58:42:55:aa:95:86:22:56:5f:8b:46:fb:c8:ca:
         58:7d:26:6d
-----BEGIN CERTIFICATE-----
MIIEJjCCAw6gAwIBAgIEEAAAkTANBgkqhkiG9w0BAQUFADBEMQswCQYDVQQGEwJE
RTEPMA0GA1UECAwGSGVzc2VuMRQwEgYDVQQKDAtwcml2YWN5aWRlYTEOMAwGA1UE
AwwFQ0EwMDEwHhcNMTUwNTIxMTMyNzU5WhcNMTYwNTIwMTMyNzU5WjBUMQswCQYD
VQQGEwJERTEPMA0GA1UECAwGSGVzc2VuMRQwEgYDVQQKDAtwcml2YWN5aWRlYTEe
MBwGA1UEAwwVcmVxdWVzdGVyLmxvY2FsZG9tYWluMIIBIjANBgkqhkiG9w0BAQEF
AAOCAQ8AMIIBCgKCAQEAzb4UT/rOAT9CIhsdnK/dktJ/22y3PjlDQ2sTA/EF9Ad0
vHZpKAuvGY7X/OPNxljyyn8IbVP8BwJEJMa0NEyMBP4zDkDiILoCc1r39U9jbszG
tt9UHTc5fVE2Jl+93D+oi2uirrad1iHn30G4eigqaEjKqC3t4elGXlpybbSEOIeR
/ZQRCyiExsIvKvsB+TZ6CXXRM4g8c0FbyL+UiXCh8MC5LlBTHrEXZGn0LYHgqQ0O
Mum6VYqF8RtvSXm0f4jDDT5UiJs9HziMBPPuamMr9cbbtIOqxHhBOn1L4cg+ccob
YVnqxsTKMl7J6b8SKebGw2P+oFXaevFgmE0m7fpwLQIDAQABo4IBDjCCAQowCwYD
VR0PBAQDAgWgMAkGA1UdEwQCMAAwEQYJYIZIAYb4QgEBBAQDAgZAMDMGCWCGSAGG
+EIBDQQmFiRPcGVuU1NMIEdlbmVyYXRlZCBTZXJ2ZXIgQ2VydGlmaWNhdGUwHQYD
VR0OBBYEFFM/7V0JB7Nle6tFySRbCXeACpbtMHQGA1UdIwRtMGuAFPSnwMyRRq9k
85HyJ/jIsm+KhzJzoUikRjBEMQswCQYDVQQGEwJERTEPMA0GA1UECAwGSGVzc2Vu
MRQwEgYDVQQKDAtwcml2YWN5aWRlYTEOMAwGA1UEAwwFQ0EwMDGCCQD7yOusg80S
BzATBgNVHSUEDDAKBggrBgEFBQcDATANBgkqhkiG9w0BAQUFAAOCAQEAYqCCingZ
knj13nt10IhoXYPQ7pLc6m1xA+wls0Cy6TwZ+XMwkvLhZ1mC1CQAxBsDyBT6NGD3
44z/noSaOYVsML33ZKZvwiXe/AlP5so56cfuFv434F/VD5K0Bs0SdhdsAG4Bnp2O
2F4sTiMRl9wuV6SX/FmjvZYS2Kv0eemqjONlIc9YwH7676VRYJAPw3R5wXDwbwwm
UmhfmMy5KbBRlMyB9x6MOLEz4X2YspMrOUcVheNdhxL85YGHqiXJTVajNLVaOBht
WOQBxKiStfobvHJ6wlGBimITY6eVHrOXy5mt4n4Gq4Ff+awWBuwmhFhCVaqVhiJW
X4tG+8jKWH0mbQ==
-----END CERTIFICATE-----
