Certificate:
    Data:
        Version: 3 (0x2)
        Serial Number: 268435627 (0x100000ab)
    Signature Algorithm: sha1WithRSAEncryption
        Issuer: C=DE, ST=Hessen, O=privacyidea, CN=CA001
        Validity
            Not Before: May 21 13:46:17 2015 GMT
            Not After : May 20 13:46:17 2016 GMT
        Subject: CN=ich/emailAddress=meine
        Subject Public Key Info:
            Public Key Algorithm: rsaEncryption
                Public-Key: (2048 bit)
                Modulus:
                    00:9c:08:1b:82:c1:22:89:42:4c:6b:5d:9b:b6:51:
                    d7:92:71:24:34:dc:7a:b9:85:cc:1a:d8:92:2b:95:
                    2d:85:60:fa:6a:4c:7d:6e:8d:6f:7d:40:87:38:46:
                    60:73:1f:26:bc:0a:e1:71:00:9f:12:9c:24:aa:b4:
                    88:e8:c3:24:54:68:5e:c4:d4:39:4b:7b:c8:9f:4f:
                    2d:62:e7:66:ff:02:ad:81:15:6b:dc:27:53:1e:78:
                    22:3a:0c:8e:7b:4a:d0:67:06:b8:ef:95:c9:3e:0b:
                    36:29:73:66:9d:0d:48:5d:92:14:42:0a:47:7c:05:
                    46:2d:29:88:8d:53:c9:94:63:ed:47:62:74:a6:bf:
                    b9:c7:c6:36:44:a7:6e:b1:90:29:13:4e:e7:94:1f:
                    f1:6c:33:f5:2b:b7:55:52:03:9e:e2:e2:f9:b9:0e:
                    ce:28:d0:9f:28:f3:2e:b4:ab:3b:45:fc:61:1e:c6:
                    81:6a:f9:23:06:cd:49:dd:52:c4:71:9a:77:80:b4:
                    c9:c2:59:91:e7:04:35:7b:81:0c:a2:73:5f:70:31:
                    87:58:de:d3:d2:53:e7:a5:87:1d:8a:cd:5e:10:f1:
                    7c:45:c7:01:e3:b3:5e:a3:5a:ad:d7:36:bb:8b:38:
                    95:75:53:b1:b4:2a:a3:e5:dd:45:fb:05:f5:71:98:
                    5d:65
                Exponent: 65537 (0x10001)
        X509v3 extensions:
            X509v3 Key Usage: 
                Digital Signature, Key Encipherment
            X509v3 Basic Constraints: 
                CA:FALSE
            Netscape Cert Type: 
                SSL Server
            Netscape Comment: 
                OpenSSL Generated Server Certificate
            X509v3 Subject Key Identifier: 
                11:9C:68:9B:AA:29:05:1D:3F:4D:EC:B6:96:98:86:59:E8:17:74:15
            X509v3 Authority Key Identifier: 
                keyid:F4:A7:C0:CC:91:46:AF:64:F3:91:F2:27:F8:C8:B2:6F:8A:87:32:73
                DirName:/C=DE/ST=Hessen/O=privacyidea/CN=CA001
                serial:FB:C8:EB:AC:83:CD:12:07

            X509v3 Extended Key Usage: 
                TLS Web Server Authentication
    Signature Algorithm: sha1WithRSAEncryption
         6a:83:80:84:54:5c:c1:76:0a:2a:e8:5d:39:f3:9c:e8:1a:bd:
         1e:63:6a:bf:68:06:c0:44:bd:5c:95:b7:89:40:23:3d:48:e7:
         dc:fe:ac:b1:c9:f3:24:f5:ad:60:4f:9a:9f:b1:76:d7:0d:1d:
         fa:e6:76:0c:b7:22:2d:ab:b0:54:68:b0:2e:9b:84:b6:02:2f:
         6b:a9:e4:db:a6:72:24:6f:d7:20:4d:a4:89:ff:23:7d:d0:28:
         ea:e1:31:4d:c9:35:32:bb:56:6a:d7:60:e2:ab:35:22:f9:ef:
         cb:b8:03:ec:ee:43:96:42:f6:94:9c:46:73:64:aa:14:3f:7f:
         02:74:f2:67:a8:50:f8:5c:98:3c:d2:6b:70:57:fc:91:d2:eb:
         92:3c:70:41:cb:a8:56:a5:0a:48:b6:b6:9a:c2:b1:18:d6:f9:
         46:3a:86:ef:b1:86:1d:3a:bd:d8:36:81:c1:5a:ba:b1:f2:82:
         a3:fa:2a:64:54:31:95:f6:84:62:0d:77:0b:25:2c:a8:bd:15:
         dc:89:64:cc:94:97:ec:15:0b:20:bb:5a:d6:d3:68:8c:f7:9d:
         3c:89:d0:dd:d6:ce:0e:c4:a0:6b:58:28:8c:bf:e3:ae:63:10:
         eb:79:8c:a3:35:44:ee:b3:87:52:02:e2:c1:b8:88:b5:34:c4:
         5f:ad:ff:23
-----BEGIN CERTIFICATE-----
MIID9jCCAt6gAwIBAgIEEAAAqzANBgkqhkiG9w0BAQUFADBEMQswCQYDVQQGEwJE
RTEPMA0GA1UECAwGSGVzc2VuMRQwEgYDVQQKDAtwcml2YWN5aWRlYTEOMAwGA1UE
AwwFQ0EwMDEwHhcNMTUwNTIxMTM0NjE3WhcNMTYwNTIwMTM0NjE3WjAkMQwwCgYD
VQQDEwNpY2gxFDASBgkqhkiG9w0BCQEWBW1laW5lMIIBIjANBgkqhkiG9w0BAQEF
AAOCAQ8AMIIBCgKCAQEAnAgbgsEiiUJMa12btlHXknEkNNx6uYXMGtiSK5UthWD6
akx9bo1vfUCHOEZgcx8mvArhcQCfEpwkqrSI6MMkVGhexNQ5S3vIn08tYudm/wKt
gRVr3CdTHngiOgyOe0rQZwa475XJPgs2KXNmnQ1IXZIUQgpHfAVGLSmIjVPJlGPt
R2J0pr+5x8Y2RKdusZApE07nlB/xbDP1K7dVUgOe4uL5uQ7OKNCfKPMutKs7Rfxh
HsaBavkjBs1J3VLEcZp3gLTJwlmR5wQ1e4EMonNfcDGHWN7T0lPnpYcdis1eEPF8
RccB47Neo1qt1za7iziVdVOxtCqj5d1F+wX1cZhdZQIDAQABo4IBDjCCAQowCwYD
VR0PBAQDAgWgMAkGA1UdEwQCMAAwEQYJYIZIAYb4QgEBBAQDAgZAMDMGCWCGSAGG
+EIBDQQmFiRPcGVuU1NMIEdlbmVyYXRlZCBTZXJ2ZXIgQ2VydGlmaWNhdGUwHQYD
VR0OBBYEFBGcaJuqKQUdP03stpaYhlnoF3QVMHQGA1UdIwRtMGuAFPSnwMyRRq9k
85HyJ/jIsm+KhzJzoUikRjBEMQswCQYDVQQGEwJERTEPMA0GA1UECAwGSGVzc2Vu
MRQwEgYDVQQKDAtwcml2YWN5aWRlYTEOMAwGA1UEAwwFQ0EwMDGCCQD7yOusg80S
BzATBgNVHSUEDDAKBggrBgEFBQcDATANBgkqhkiG9w0BAQUFAAOCAQEAaoOAhFRc
wXYKKuhdOfOc6Bq9HmNqv2gGwES9XJW3iUAjPUjn3P6sscnzJPWtYE+an7F21w0d
+uZ2DLciLauwVGiwLpuEtgIva6nk26ZyJG/XIE2kif8jfdAo6uExTck1MrtWatdg
4qs1Ivnvy7gD7O5DlkL2lJxGc2SqFD9/AnTyZ6hQ+FyYPNJrcFf8kdLrkjxwQcuo
VqUKSLa2msKxGNb5RjqG77GGHTq92DaBwVq6sfKCo/oqZFQxlfaEYg13CyUsqL0V
3IlkzJSX7BULILta1tNojPedPInQ3dbODsSga1gojL/jrmMQ63mMozVE7rOHUgLi
wbiItTTEX63/Iw==
-----END CERTIFICATE-----
