Certificate:
    Data:
        Version: 3 (0x2)
        Serial Number: 268435597 (0x1000008d)
    Signature Algorithm: sha1WithRSAEncryption
        Issuer: C=DE, ST=Hessen, O=privacyidea, CN=CA001
        Validity
            Not Before: May 21 13:26:11 2015 GMT
            Not After : May 20 13:26:11 2016 GMT
        Subject: C=DE, ST=Hessen, O=privacyidea, CN=requester.localdomain
        Subject Public Key Info:
            Public Key Algorithm: rsaEncryption
                Public-Key: (2048 bit)
                Modulus:
                    00:cd:be:14:4f:fa:ce:01:3f:42:22:1b:1d:9c:af:
                    dd:92:d2:7f:db:6c:b7:3e:39:43:43:6b:13:03:f1:
                    05:f4:07:74:bc:76:69:28:0b:af:19:8e:d7:fc:e3:
                    cd:c6:58:f2:ca:7f:08:6d:53:fc:07:02:44:24:c6:
                    b4:34:4c:8c:04:fe:33:0e:40:e2:20:ba:02:73:5a:
                    f7:f5:4f:63:6e:cc:c6:b6:df:54:1d:37:39:7d:51:
                    36:26:5f:bd:dc:3f:a8:8b:6b:a2:ae:b6:9d:d6:21:
                    e7:df:41:b8:7a:28:2a:68:48:ca:a8:2d:ed:e1:e9:
                    46:5e:5a:72:6d:b4:84:38:87:91:fd:94:11:0b:28:
                    84:c6:c2:2f:2a:fb:01:f9:36:7a:09:75:d1:33:88:
                    3c:73:41:5b:c8:bf:94:89:70:a1:f0:c0:b9:2e:50:
                    53:1e:b1:17:64:69:f4:2d:81:e0:a9:0d:0e:32:e9:
                    ba:55:8a:85:f1:1b:6f:49:79:b4:7f:88:c3:0d:3e:
                    54:88:9b:3d:1f:38:8c:04:f3:ee:6a:63:2b:f5:c6:
                    db:b4:83:aa:c4:78:41:3a:7d:4b:e1:c8:3e:71:ca:
                    1b:61:59:ea:c6:c4:ca:32:5e:c9:e9:bf:12:29:e6:
                    c6:c3:63:fe:a0:55:da:7a:f1:60:98:4d:26:ed:fa:
                    70:2d
                Exponent: 65537 (0x10001)
        X509v3 extensions:
            X509v3 Key Usage: 
                Digital Signature, Key Encipherment
            X509v3 Basic Constraints: 
                CA:FALSE
            Netscape Cert Type: 
                SSL Server
            Netscape Comment: 
                OpenSSL Generated Server Certificate
            X509v3 Subject Key Identifier: 
                53:3F:ED:5D:09:07:B3:65:7B:AB:45:C9:24:5B:09:77:80:0A:96:ED
            X509v3 Authority Key Identifier: 
                keyid:F4:A7:C0:CC:91:46:AF:64:F3:91:F2:27:F8:C8:B2:6F:8A:87:32:73
                DirName:/C=DE/ST=Hessen/O=privacyidea/CN=CA001
                serial:FB:C8:EB:AC:83:CD:12:07

            X509v3 Extended Key Usage: 
                TLS Web Server Authentication
    Signature Algorithm: sha1WithRSAEncryption
         b5:f9:87:e5:5b:e0:98:ad:ea:fc:d5:d8:a3:e9:c0:58:35:0f:
         e0:5b:cb:f1:6c:fd:98:80:11:bf:66:96:95:9d:bc:0f:a1:ea:
         db:55:a8:88:d3:23:a9:1c:0f:77:d2:4b:51:66:52:21:7a:9e:
         77:ee:61:3b:8d:eb:fa:04:7c:2c:14:6f:1b:46:4c:ae:53:69:
         e3:d6:74:c1:f3:37:06:1e:81:be:8f:77:ec:49:0f:94:ee:0f:
         a0:33:2f:6f:97:c6:89:b0:60:3e:cd:aa:4a:e0:b1:a9:fa:51:
         85:54:36:b2:05:ed:c2:3a:2b:7a:82:91:fa:52:2f:71:ca:84:
         6d:32:a8:a1:c9:90:88:38:b8:ab:74:2b:f0:37:ef:f5:a4:d1:
         2c:bc:bb:09:e3:ac:db:50:01:f5:81:fd:bc:71:55:5e:2d:d3:
         5c:20:ea:9d:6a:1f:7b:a4:ca:f9:15:e1:2a:90:a1:ad:d8:bb:
         47:89:c4:7b:0c:15:ad:01:4e:b7:a6:56:bc:e0:04:31:a9:44:
         d0:a6:c8:2c:11:7e:fc:fa:95:58:10:5d:73:cf:f7:62:59:4c:
         74:a7:9e:15:24:c4:d0:2c:9e:56:ee:1b:4c:37:94:3e:98:49:
         18:06:eb:33:3d:5d:04:5d:9c:6a:7f:48:c9:0d:28:62:c5:fc:
         6d:78:fe:45
-----BEGIN CERTIFICATE-----
MIIEJjCCAw6gAwIBAgIEEAAAjTANBgkqhkiG9w0BAQUFADBEMQswCQYDVQQGEwJE
RTEPMA0GA1UECAwGSGVzc2VuMRQwEgYDVQQKDAtwcml2YWN5aWRlYTEOMAwGA1UE
AwwFQ0EwMDEwHhcNMTUwNTIxMTMyNjExWhcNMTYwNTIwMTMyNjExWjBUMQswCQYD
VQQGEwJERTEPMA0GA1UECAwGSGVzc2VuMRQwEgYDVQQKDAtwcml2YWN5aWRlYTEe
MBwGA1UEAwwVcmVxdWVzdGVyLmxvY2FsZG9tYWluMIIBIjANBgkqhkiG9w0BAQEF
AAOCAQ8AMIIBCgKCAQEAzb4UT/rOAT9CIhsdnK/dktJ/22y3PjlDQ2sTA/EF9Ad0
vHZpKAuvGY7X/OPNxljyyn8IbVP8BwJEJMa0NEyMBP4zDkDiILoCc1r39U9jbszG
tt9UHTc5fVE2Jl+93D+oi2uirrad1iHn30G4eigqaEjKqC3t4elGXlpybbSEOIeR
/ZQRCyiExsIvKvsB+TZ6CXXRM4g8c0FbyL+UiXCh8MC5LlBTHrEXZGn0LYHgqQ0O
Mum6VYqF8RtvSXm0f4jDDT5UiJs9HziMBPPuamMr9cbbtIOqxHhBOn1L4cg+ccob
YVnqxsTKMl7J6b8SKebGw2P+oFXaevFgmE0m7fpwLQIDAQABo4IBDjCCAQowCwYD
VR0PBAQDAgWgMAkGA1UdEwQCMAAwEQYJYIZIAYb4QgEBBAQDAgZAMDMGCWCGSAGG
+EIBDQQmFiRPcGVuU1NMIEdlbmVyYXRlZCBTZXJ2ZXIgQ2VydGlmaWNhdGUwHQYD
VR0OBBYEFFM/7V0JB7Nle6tFySRbCXeACpbtMHQGA1UdIwRtMGuAFPSnwMyRRq9k
85HyJ/jIsm+KhzJzoUikRjBEMQswCQYDVQQGEwJERTEPMA0GA1UECAwGSGVzc2Vu
MRQwEgYDVQQKDAtwcml2YWN5aWRlYTEOMAwGA1UEAwwFQ0EwMDGCCQD7yOusg80S
BzATBgNVHSUEDDAKBggrBgEFBQcDATANBgkqhkiG9w0BAQUFAAOCAQEAtfmH5Vvg
mK3q/NXYo+nAWDUP4FvL8Wz9mIARv2aWlZ28D6Hq21WoiNMjqRwPd9JLUWZSIXqe
d+5hO43r+gR8LBRvG0ZMrlNp49Z0wfM3Bh6Bvo937EkPlO4PoDMvb5fGibBgPs2q
SuCxqfpRhVQ2sgXtwjoreoKR+lIvccqEbTKoocmQiDi4q3Qr8Dfv9aTRLLy7CeOs
21AB9YH9vHFVXi3TXCDqnWofe6TK+RXhKpChrdi7R4nEewwVrQFOt6ZWvOAEMalE
0KbILBF+/PqVWBBdc8/3YllMdKeeFSTE0CyeVu4bTDeUPphJGAbrMz1dBF2can9I
yQ0oYsX8bXj+RQ==
-----END CERTIFICATE-----
