Certificate:
    Data:
        Version: 3 (0x2)
        Serial Number: 268435596 (0x1000008c)
    Signature Algorithm: sha1WithRSAEncryption
        Issuer: C=DE, ST=Hessen, O=privacyidea, CN=CA001
        Validity
            Not Before: May 21 13:24:51 2015 GMT
            Not After : May 20 13:24:51 2016 GMT
        Subject: C=DE, ST=Hessen, O=privacyidea, CN=usercert
        Subject Public Key Info:
            Public Key Algorithm: rsaEncryption
                Public-Key: (2048 bit)
                Modulus:
                    00:dc:2f:d1:5f:29:97:d4:7c:c3:53:c8:30:bd:4b:
                    67:70:2c:24:6b:b8:5e:eb:21:7a:48:12:56:7c:81:
                    5c:48:75:b6:68:eb:f6:f2:98:4e:50:51:d1:7f:6c:
                    73:f3:0a:a7:ae:be:48:5e:e5:d6:e1:d9:2a:7c:32:
                    6e:4e:fd:08:f6:5a:54:49:23:73:c3:b9:07:18:d1:
                    ef:b3:ac:f8:8a:dc:94:96:a4:90:3a:8e:74:df:e6:
                    0d:37:1b:bd:5b:b7:25:1a:56:39:da:6f:91:aa:5e:
                    1c:74:f3:f9:7c:14:01:83:12:65:76:c7:bb:fe:36:
                    5b:95:e9:72:65:83:ed:3e:98:30:71:fa:87:dd:a3:
                    36:5a:30:03:2e:26:e0:61:d1:bf:02:3f:b6:06:1f:
                    4a:89:28:1c:5c:a2:ff:4e:be:94:e6:8c:e0:da:82:
                    f1:9d:29:32:48:30:73:b4:04:f6:42:1e:be:f7:e2:
                    32:32:27:3c:9d:89:2f:70:3e:85:9a:6f:5c:c5:09:
                    c0:8c:32:2f:72:22:c9:d2:95:1f:b6:ac:72:60:72:
                    b7:82:4d:6b:ce:5b:e3:00:d0:d2:2f:58:c6:e0:10:
                    e5:51:ca:4d:3b:2e:e6:7e:ab:84:d6:56:f1:93:35:
                    a0:93:64:26:81:75:2f:91:b5:16:06:38:0b:db:cc:
                    2d:07
                Exponent: 65537 (0x10001)
        X509v3 extensions:
            X509v3 Key Usage: 
                Digital Signature, Key Encipherment
            X509v3 Basic Constraints: 
                CA:FALSE
            Netscape Cert Type: 
                SSL Server
            Netscape Comment: 
                OpenSSL Generated Server Certificate
            X509v3 Subject Key Identifier: 
                FC:14:D1:F0:4B:8D:00:90:F2:F5:B8:71:9E:4E:97:C3:92:54:AD:0B
            X509v3 Authority Key Identifier: 
                keyid:F4:A7:C0:CC:91:46:AF:64:F3:91:F2:27:F8:C8:B2:6F:8A:87:32:73
                DirName:/C=DE/ST=Hessen/O=privacyidea/CN=CA001
                serial:FB:C8:EB:AC:83:CD:12:07

            X509v3 Extended Key Usage: 
                TLS Web Server Authentication
    Signature Algorithm: sha1WithRSAEncryption
         16:29:8d:f0:a7:15:ba:c0:ff:15:81:c8:75:54:be:5e:9c:8e:
         21:43:6e:7f:94:33:52:7a:a0:3a:b5:78:ac:87:18:a7:d9:95:
         b7:7d:f3:4f:bb:59:0e:01:42:bb:8a:87:e0:52:31:36:b3:99:
         e3:c7:56:25:45:05:20:d6:d4:fd:0f:47:34:84:92:7b:a6:2c:
         9f:f0:c0:a5:b2:65:db:22:3d:36:1a:88:5c:5a:6b:13:b7:03:
         33:c8:f6:82:48:47:f7:06:e2:4c:b9:c6:42:8b:b1:2f:f0:1a:
         52:56:49:db:b8:b6:2f:53:d2:bb:f6:28:7d:6b:5a:cc:ee:e7:
         05:e5:06:d8:a1:b4:63:b9:7c:6a:4c:9c:14:07:76:1e:9d:aa:
         72:71:14:c5:48:57:e9:fd:bc:72:50:0a:dc:9b:42:26:38:82:
         76:ea:46:44:f1:29:eb:d9:26:9d:d5:89:a1:3b:37:87:0c:27:
         a7:26:67:bc:9f:09:6a:b7:23:f6:ea:1a:58:29:3b:b0:60:eb:
         ef:f2:ce:c1:51:a2:ad:e5:15:77:f5:38:64:68:c5:ee:5b:66:
         92:e3:87:5e:53:3d:bb:57:17:21:5e:2a:8f:1e:dc:08:06:e2:
         6f:5c:fd:65:38:4c:2d:73:84:7c:7f:9a:7b:59:72:6b:d6:73:
         6a:23:a6:d6
-----BEGIN CERTIFICATE-----
MIIEGTCCAwGgAwIBAgIEEAAAjDANBgkqhkiG9w0BAQUFADBEMQswCQYDVQQGEwJE
RTEPMA0GA1UECAwGSGVzc2VuMRQwEgYDVQQKDAtwcml2YWN5aWRlYTEOMAwGA1UE
AwwFQ0EwMDEwHhcNMTUwNTIxMTMyNDUxWhcNMTYwNTIwMTMyNDUxWjBHMQswCQYD
VQQGEwJERTEPMA0GA1UECAwGSGVzc2VuMRQwEgYDVQQKDAtwcml2YWN5aWRlYTER
MA8GA1UEAwwIdXNlcmNlcnQwggEiMA0GCSqGSIb3DQEBAQUAA4IBDwAwggEKAoIB
AQDcL9FfKZfUfMNTyDC9S2dwLCRruF7rIXpIElZ8gVxIdbZo6/bymE5QUdF/bHPz
Cqeuvkhe5dbh2Sp8Mm5O/Qj2WlRJI3PDuQcY0e+zrPiK3JSWpJA6jnTf5g03G71b
tyUaVjnab5GqXhx08/l8FAGDEmV2x7v+NluV6XJlg+0+mDBx+ofdozZaMAMuJuBh
0b8CP7YGH0qJKBxcov9OvpTmjODagvGdKTJIMHO0BPZCHr734jIyJzydiS9wPoWa
b1zFCcCMMi9yIsnSlR+2rHJgcreCTWvOW+MA0NIvWMbgEOVRyk07LuZ+q4TWVvGT
NaCTZCaBdS+RtRYGOAvbzC0HAgMBAAGjggEOMIIBCjALBgNVHQ8EBAMCBaAwCQYD
VR0TBAIwADARBglghkgBhvhCAQEEBAMCBkAwMwYJYIZIAYb4QgENBCYWJE9wZW5T
U0wgR2VuZXJhdGVkIFNlcnZlciBDZXJ0aWZpY2F0ZTAdBgNVHQ4EFgQU/BTR8EuN
AJDy9bhxnk6Xw5JUrQswdAYDVR0jBG0wa4AU9KfAzJFGr2TzkfIn+Miyb4qHMnOh
SKRGMEQxCzAJBgNVBAYTAkRFMQ8wDQYDVQQIDAZIZXNzZW4xFDASBgNVBAoMC3By
aXZhY3lpZGVhMQ4wDAYDVQQDDAVDQTAwMYIJAPvI66yDzRIHMBMGA1UdJQQMMAoG
CCsGAQUFBwMBMA0GCSqGSIb3DQEBBQUAA4IBAQAWKY3wpxW6wP8Vgch1VL5enI4h
Q25/lDNSeqA6tXishxin2ZW3ffNPu1kOAUK7iofgUjE2s5njx1YlRQUg1tT9D0c0
hJJ7piyf8MClsmXbIj02GohcWmsTtwMzyPaCSEf3BuJMucZCi7Ev8BpSVknbuLYv
U9K79ih9a1rM7ucF5QbYobRjuXxqTJwUB3YenapycRTFSFfp/bxyUArcm0ImOIJ2
6kZE8Snr2Sad1YmhOzeHDCenJme8nwlqtyP26hpYKTuwYOvv8s7BUaKt5RV39Thk
aMXuW2aS44deUz27VxchXiqPHtwIBuJvXP1lOEwtc4R8f5p7WXJr1nNqI6bW
-----END CERTIFICATE-----
