Certificate:
    Data:
        Version: 3 (0x2)
        Serial Number: 268435631 (0x100000af)
    Signature Algorithm: sha1WithRSAEncryption
        Issuer: C=DE, ST=Hessen, O=privacyidea, CN=CA001
        Validity
            Not Before: May 21 14:02:29 2015 GMT
            Not After : May 20 14:02:29 2016 GMT
        Subject: CN=cornelius/emailAddress=meine
        Subject Public Key Info:
            Public Key Algorithm: rsaEncryption
                Public-Key: (2048 bit)
                Modulus:
                    00:ec:f3:df:a1:9b:bc:10:41:a2:49:5a:51:e2:16:
                    e7:4f:03:d0:db:e2:9b:b8:8c:de:23:18:14:57:a7:
                    e2:a2:ca:03:cb:6b:e7:f4:a9:ef:c4:40:40:a4:92:
                    be:f9:cf:e8:92:ac:9c:18:46:82:99:ea:bd:9b:22:
                    23:38:68:02:6d:27:7d:9a:2b:5d:46:aa:91:55:42:
                    56:63:e5:3c:b8:6c:d1:03:5d:85:d5:19:e9:94:3e:
                    9d:43:9d:34:b4:e0:a1:90:09:8a:42:5a:62:d5:f3:
                    c1:39:59:af:89:be:04:ec:e3:11:9f:6f:b3:6d:b6:
                    fb:3d:c4:bb:68:69:ad:0f:d4:6c:49:cc:e9:5a:1b:
                    0e:9a:d9:e6:76:2e:a3:35:4b:d1:bd:12:41:4d:37:
                    d1:44:87:82:f7:81:e2:d1:b5:66:0f:ee:28:fb:87:
                    e0:bd:46:09:b2:fe:8e:99:4e:a3:3e:35:01:36:57:
                    0f:c5:f4:1b:4a:8d:d2:b5:72:4b:90:08:7e:0c:4d:
                    35:ce:79:ea:3b:4b:e1:47:57:7b:c6:0c:e1:9b:18:
                    a7:03:37:73:14:3c:d7:4a:2c:48:94:1f:b0:6b:12:
                    85:73:e0:d2:bf:5a:0d:05:e2:41:8e:eb:4e:17:3e:
                    be:4b:11:cb:a3:10:77:8b:bf:71:37:35:0f:3a:e9:
                    81:a3
                Exponent: 65537 (0x10001)
        X509v3 extensions:
            X509v3 Key Usage: 
                Digital Signature, Key Encipherment
            X509v3 Basic Constraints: 
                CA:FALSE
            Netscape Cert Type: 
                SSL Server
            Netscape Comment: 
                OpenSSL Generated Server Certificate
            X509v3 Subject Key Identifier: 
                41:DC:60:82:E6:98:08:46:D1:82:9D:0B:13:11:12:E3:6D:3E:C7:F0
            X509v3 Authority Key Identifier: 
                keyid:F4:A7:C0:CC:91:46:AF:64:F3:91:F2:27:F8:C8:B2:6F:8A:87:32:73
                DirName:/C=DE/ST=Hessen/O=privacyidea/CN=CA001
                serial:FB:C8:EB:AC:83:CD:12:07

            X509v3 Extended Key Usage: 
                TLS Web Server Authentication
    Signature Algorithm: sha1WithRSAEncryption
         99:ba:ee:b7:37:52:46:79:49:18:f5:62:1e:49:95:17:cb:f2:
         70:ed:87:d4:aa:8d:1c:20:4e:92:fa:77:3f:0b:03:00:d8:27:
         06:f3:31:2c:b2:5c:f8:6d:70:7a:1e:c8:34:be:15:3f:2e:af:
         7e:e2:bb:96:75:92:12:aa:50:1a:77:db:24:67:cc:12:79:76:
         a1:6b:84:5d:df:7d:9a:c0:0b:04:6e:45:85:d4:2b:f4:cc:cd:
         fb:1e:f9:48:5f:d9:55:6c:f4:79:94:1c:58:75:dd:16:d2:62:
         43:ba:c4:e0:9c:a5:db:0c:11:fb:b4:0a:00:4c:e3:86:af:16:
         03:99:ed:ca:ca:c7:4e:6b:66:cd:62:5a:e4:8c:2e:89:87:2b:
         9e:d2:11:dc:48:b2:02:d4:f0:24:83:14:cb:41:19:70:09:10:
         75:b7:5f:b1:c1:f4:0b:2a:a6:f8:65:e3:3e:59:6c:20:b5:05:
         3b:65:a5:e7:a3:44:ac:f0:87:9d:d0:e1:0c:be:b1:cf:27:a4:
         23:3d:71:00:ad:bb:17:41:d7:80:7c:b1:67:79:86:2e:c0:9d:
         6f:41:ec:ef:62:00:37:92:06:15:81:dd:0a:91:30:35:cd:fd:
         7f:9e:29:60:7b:73:d7:44:ce:4b:0f:d8:23:2f:43:61:3f:09:
         3a:d0:78:57
-----BEGIN CERTIFICATE-----
MIID/DCCAuSgAwIBAgIEEAAArzANBgkqhkiG9w0BAQUFADBEMQswCQYDVQQGEwJE
RTEPMA0GA1UECAwGSGVzc2VuMRQwEgYDVQQKDAtwcml2YWN5aWRlYTEOMAwGA1UE
AwwFQ0EwMDEwHhcNMTUwNTIxMTQwMjI5WhcNMTYwNTIwMTQwMjI5WjAqMRIwEAYD
VQQDEwljb3JuZWxpdXMxFDASBgkqhkiG9w0BCQEWBW1laW5lMIIBIjANBgkqhkiG
9w0BAQEFAAOCAQ8AMIIBCgKCAQEA7PPfoZu8EEGiSVpR4hbnTwPQ2+KbuIzeIxgU
V6fiosoDy2vn9KnvxEBApJK++c/okqycGEaCmeq9myIjOGgCbSd9mitdRqqRVUJW
Y+U8uGzRA12F1RnplD6dQ500tOChkAmKQlpi1fPBOVmvib4E7OMRn2+zbbb7PcS7
aGmtD9RsSczpWhsOmtnmdi6jNUvRvRJBTTfRRIeC94Hi0bVmD+4o+4fgvUYJsv6O
mU6jPjUBNlcPxfQbSo3StXJLkAh+DE01znnqO0vhR1d7xgzhmxinAzdzFDzXSixI
lB+waxKFc+DSv1oNBeJBjutOFz6+SxHLoxB3i79xNzUPOumBowIDAQABo4IBDjCC
AQowCwYDVR0PBAQDAgWgMAkGA1UdEwQCMAAwEQYJYIZIAYb4QgEBBAQDAgZAMDMG
CWCGSAGG+EIBDQQmFiRPcGVuU1NMIEdlbmVyYXRlZCBTZXJ2ZXIgQ2VydGlmaWNh
dGUwHQYDVR0OBBYEFEHcYILmmAhG0YKdCxMREuNtPsfwMHQGA1UdIwRtMGuAFPSn
wMyRRq9k85HyJ/jIsm+KhzJzoUikRjBEMQswCQYDVQQGEwJERTEPMA0GA1UECAwG
SGVzc2VuMRQwEgYDVQQKDAtwcml2YWN5aWRlYTEOMAwGA1UEAwwFQ0EwMDGCCQD7
yOusg80SBzATBgNVHSUEDDAKBggrBgEFBQcDATANBgkqhkiG9w0BAQUFAAOCAQEA
mbrutzdSRnlJGPViHkmVF8vycO2H1KqNHCBOkvp3PwsDANgnBvMxLLJc+G1weh7I
NL4VPy6vfuK7lnWSEqpQGnfbJGfMEnl2oWuEXd99msALBG5FhdQr9MzN+x75SF/Z
VWz0eZQcWHXdFtJiQ7rE4Jyl2wwR+7QKAEzjhq8WA5ntysrHTmtmzWJa5IwuiYcr
ntIR3EiyAtTwJIMUy0EZcAkQdbdfscH0Cyqm+GXjPllsILUFO2Wl56NErPCHndDh
DL6xzyekIz1xAK27F0HXgHyxZ3mGLsCdb0Hs72IAN5IGFYHdCpEwNc39f54pYHtz
10TOSw/YIy9DYT8JOtB4Vw==
-----END CERTIFICATE-----
