Certificate:
    Data:
        Version: 3 (0x2)
        Serial Number: 268435619 (0x100000a3)
    Signature Algorithm: sha1WithRSAEncryption
        Issuer: C=DE, ST=Hessen, O=privacyidea, CN=CA001
        Validity
            Not Before: May 21 13:39:30 2015 GMT
            Not After : May 20 13:39:30 2016 GMT
        Subject: C=DE, ST=Hessen, O=privacyidea, CN=usercert
        Subject Public Key Info:
            Public Key Algorithm: rsaEncryption
                Public-Key: (2048 bit)
                Modulus:
                    00:dc:2f:d1:5f:29:97:d4:7c:c3:53:c8:30:bd:4b:
                    67:70:2c:24:6b:b8:5e:eb:21:7a:48:12:56:7c:81:
                    5c:48:75:b6:68:eb:f6:f2:98:4e:50:51:d1:7f:6c:
                    73:f3:0a:a7:ae:be:48:5e:e5:d6:e1:d9:2a:7c:32:
                    6e:4e:fd:08:f6:5a:54:49:23:73:c3:b9:07:18:d1:
                    ef:b3:ac:f8:8a:dc:94:96:a4:90:3a:8e:74:df:e6:
                    0d:37:1b:bd:5b:b7:25:1a:56:39:da:6f:91:aa:5e:
                    1c:74:f3:f9:7c:14:01:83:12:65:76:c7:bb:fe:36:
                    5b:95:e9:72:65:83:ed:3e:98:30:71:fa:87:dd:a3:
                    36:5a:30:03:2e:26:e0:61:d1:bf:02:3f:b6:06:1f:
                    4a:89:28:1c:5c:a2:ff:4e:be:94:e6:8c:e0:da:82:
                    f1:9d:29:32:48:30:73:b4:04:f6:42:1e:be:f7:e2:
                    32:32:27:3c:9d:89:2f:70:3e:85:9a:6f:5c:c5:09:
                    c0:8c:32:2f:72:22:c9:d2:95:1f:b6:ac:72:60:72:
                    b7:82:4d:6b:ce:5b:e3:00:d0:d2:2f:58:c6:e0:10:
                    e5:51:ca:4d:3b:2e:e6:7e:ab:84:d6:56:f1:93:35:
                    a0:93:64:26:81:75:2f:91:b5:16:06:38:0b:db:cc:
                    2d:07
                Exponent: 65537 (0x10001)
        X509v3 extensions:
            X509v3 Key Usage: 
                Digital Signature, Key Encipherment
            X509v3 Basic Constraints: 
                CA:FALSE
            Netscape Cert Type: 
                SSL Server
            Netscape Comment: 
                OpenSSL Generated Server Certificate
            X509v3 Subject Key Identifier: 
                FC:14:D1:F0:4B:8D:00:90:F2:F5:B8:71:9E:4E:97:C3:92:54:AD:0B
            X509v3 Authority Key Identifier: 
                keyid:F4:A7:C0:CC:91:46:AF:64:F3:91:F2:27:F8:C8:B2:6F:8A:87:32:73
                DirName:/C=DE/ST=Hessen/O=privacyidea/CN=CA001
                serial:FB:C8:EB:AC:83:CD:12:07

            X509v3 Extended Key Usage: 
                TLS Web Server Authentication
    Signature Algorithm: sha1WithRSAEncryption
         5e:2e:f4:51:b8:39:72:5f:3e:49:1e:2b:9e:fd:e2:32:d9:e6:
         da:d4:4a:3f:31:71:ea:c9:da:0c:95:ed:d4:ee:83:51:87:9a:
         6f:1e:ed:22:0d:9d:dd:b5:82:56:62:84:29:b0:52:a3:73:28:
         c7:62:0f:37:d3:b2:38:55:7c:d3:be:49:4e:a1:9c:92:7e:9e:
         0b:5d:31:0b:46:81:f9:b3:81:70:bb:f3:45:47:c6:3a:9b:5e:
         3d:6b:3c:86:a4:ee:96:4d:2f:8f:eb:21:6d:9b:48:e1:1b:eb:
         7f:68:d1:f2:a0:2d:fa:7a:45:9c:b1:47:77:75:94:07:7e:87:
         f4:2a:d1:51:96:17:33:c2:0d:41:3d:ec:07:2b:20:1c:9b:30:
         2f:e6:63:67:93:79:9d:9e:75:5e:4f:7d:83:a3:a2:91:f0:0f:
         9a:0e:61:90:7f:1b:b8:c7:9d:2a:9e:c3:d2:ab:ad:3c:5f:32:
         06:e9:69:e1:13:a6:8c:32:f8:43:87:e9:ee:fe:0d:b5:ae:e7:
         84:2d:7b:06:80:79:27:40:61:21:96:c4:97:86:b5:e0:20:ad:
         e0:a4:3e:da:0f:44:aa:74:65:3a:0b:d2:77:fa:41:33:d5:9d:
         41:6f:ae:70:de:67:4f:68:b5:4d:cf:34:40:ee:6f:48:64:b1:
         e4:e5:3b:3d
-----BEGIN CERTIFICATE-----
MIIEGTCCAwGgAwIBAgIEEAAAozANBgkqhkiG9w0BAQUFADBEMQswCQYDVQQGEwJE
RTEPMA0GA1UECAwGSGVzc2VuMRQwEgYDVQQKDAtwcml2YWN5aWRlYTEOMAwGA1UE
AwwFQ0EwMDEwHhcNMTUwNTIxMTMzOTMwWhcNMTYwNTIwMTMzOTMwWjBHMQswCQYD
VQQGEwJERTEPMA0GA1UECAwGSGVzc2VuMRQwEgYDVQQKDAtwcml2YWN5aWRlYTER
MA8GA1UEAwwIdXNlcmNlcnQwggEiMA0GCSqGSIb3DQEBAQUAA4IBDwAwggEKAoIB
AQDcL9FfKZfUfMNTyDC9S2dwLCRruF7rIXpIElZ8gVxIdbZo6/bymE5QUdF/bHPz
Cqeuvkhe5dbh2Sp8Mm5O/Qj2WlRJI3PDuQcY0e+zrPiK3JSWpJA6jnTf5g03G71b
tyUaVjnab5GqXhx08/l8FAGDEmV2x7v+NluV6XJlg+0+mDBx+ofdozZaMAMuJuBh
0b8CP7YGH0qJKBxcov9OvpTmjODagvGdKTJIMHO0BPZCHr734jIyJzydiS9wPoWa
b1zFCcCMMi9yIsnSlR+2rHJgcreCTWvOW+MA0NIvWMbgEOVRyk07LuZ+q4TWVvGT
NaCTZCaBdS+RtRYGOAvbzC0HAgMBAAGjggEOMIIBCjALBgNVHQ8EBAMCBaAwCQYD
VR0TBAIwADARBglghkgBhvhCAQEEBAMCBkAwMwYJYIZIAYb4QgENBCYWJE9wZW5T
U0wgR2VuZXJhdGVkIFNlcnZlciBDZXJ0aWZpY2F0ZTAdBgNVHQ4EFgQU/BTR8EuN
AJDy9bhxnk6Xw5JUrQswdAYDVR0jBG0wa4AU9KfAzJFGr2TzkfIn+Miyb4qHMnOh
SKRGMEQxCzAJBgNVBAYTAkRFMQ8wDQYDVQQIDAZIZXNzZW4xFDASBgNVBAoMC3By
aXZhY3lpZGVhMQ4wDAYDVQQDDAVDQTAwMYIJAPvI66yDzRIHMBMGA1UdJQQMMAoG
CCsGAQUFBwMBMA0GCSqGSIb3DQEBBQUAA4IBAQBeLvRRuDlyXz5JHiue/eIy2eba
1Eo/MXHqydoMle3U7oNRh5pvHu0iDZ3dtYJWYoQpsFKjcyjHYg8307I4VXzTvklO
oZySfp4LXTELRoH5s4Fwu/NFR8Y6m149azyGpO6WTS+P6yFtm0jhG+t/aNHyoC36
ekWcsUd3dZQHfof0KtFRlhczwg1BPewHKyAcmzAv5mNnk3mdnnVeT32Do6KR8A+a
DmGQfxu4x50qnsPSq608XzIG6WnhE6aMMvhDh+nu/g21rueELXsGgHknQGEhlsSX
hrXgIK3gpD7aD0SqdGU6C9J3+kEz1Z1Bb65w3mdPaLVNzzRA7m9IZLHk5Ts9
-----END CERTIFICATE-----
