Certificate:
    Data:
        Version: 3 (0x2)
        Serial Number: 268435623 (0x100000a7)
    Signature Algorithm: sha1WithRSAEncryption
        Issuer: C=DE, ST=Hessen, O=privacyidea, CN=CA001
        Validity
            Not Before: May 21 13:40:11 2015 GMT
            Not After : May 20 13:40:11 2016 GMT
        Subject: CN=Steve Test/emailAddress=steve@openssl.org
        Subject Public Key Info:
            Public Key Algorithm: rsaEncryption
                Public-Key: (2048 bit)
                Modulus:
                    00:d2:81:89:20:51:48:0f:73:f4:11:32:24:d5:1f:
                    1c:fd:5c:f5:b6:e6:c5:f0:52:81:dc:d2:af:66:4a:
                    7c:93:31:61:5c:af:d1:6d:06:70:03:60:7c:72:0c:
                    88:dd:49:cd:9e:02:6c:d2:5a:d7:53:0f:f3:da:be:
                    69:64:b5:0f:0c:00:e3:b3:50:47:a3:b3:9b:ba:13:
                    50:d6:58:5a:4b:ab:39:e0:11:ca:0a:27:67:03:78:
                    22:66:6d:92:1e:1b:5c:49:ae:e6:6b:d1:8e:3b:9d:
                    06:d3:c6:ac:4d:53:43:10:ab:e8:96:c1:87:82:97:
                    99:8f:20:d3:99:12:37:31:84:e1:8a:ff:29:03:5f:
                    22:90:3e:7f:9b:e0:20:c1:ad:dc:ae:4c:39:1a:31:
                    96:17:02:8c:b2:d9:b4:0d:20:12:9b:7d:86:54:fd:
                    33:fd:c1:2a:62:46:f8:60:96:cf:6e:01:6f:22:df:
                    13:47:e7:97:ec:05:72:23:a3:62:f8:fa:ef:ac:9c:
                    72:f0:37:cb:2f:37:cf:90:a8:27:51:86:c6:d7:78:
                    08:8f:7e:25:a2:15:70:a2:fb:1c:b6:15:5e:a0:97:
                    8b:81:4c:09:28:8a:27:3b:94:bc:71:db:5b:71:37:
                    9a:2b:16:e0:6f:b5:c9:f5:4b:4f:20:ba:65:cf:af:
                    ad:ad
                Exponent: 65537 (0x10001)
        X509v3 extensions:
            X509v3 Key Usage: 
                Digital Signature, Key Encipherment
            X509v3 Basic Constraints: 
                CA:FALSE
            Netscape Cert Type: 
                SSL Server
            Netscape Comment: 
                OpenSSL Generated Server Certificate
            X509v3 Subject Key Identifier: 
                E5:25:6D:3E:AF:0D:DD:3F:4C:F2:45:19:39:D5:14:DB:7E:9C:C0:AD
            X509v3 Authority Key Identifier: 
                keyid:F4:A7:C0:CC:91:46:AF:64:F3:91:F2:27:F8:C8:B2:6F:8A:87:32:73
                DirName:/C=DE/ST=Hessen/O=privacyidea/CN=CA001
                serial:FB:C8:EB:AC:83:CD:12:07

            X509v3 Extended Key Usage: 
                TLS Web Server Authentication
    Signature Algorithm: sha1WithRSAEncryption
         37:a6:9c:34:b1:35:fc:a2:f9:17:c0:3c:c9:cd:f0:68:08:b9:
         a7:4c:8e:fa:2d:6a:17:36:34:e7:aa:80:ad:a2:51:bb:31:2f:
         ec:41:76:b0:d0:1f:61:d7:6b:83:78:01:28:79:f1:1b:bd:db:
         0d:44:80:d8:3e:d2:9e:d0:8b:17:af:85:eb:7b:86:49:f6:60:
         ee:76:cf:e0:52:78:f5:1d:09:55:df:56:9e:fd:f9:f7:f0:20:
         b5:01:c1:19:7b:71:33:9a:78:58:45:06:9e:02:69:29:ae:88:
         10:16:83:43:b6:c3:f7:22:76:ed:e2:ac:39:0b:d0:08:66:63:
         a3:46:15:0a:66:36:cc:fa:5e:96:33:dc:03:26:98:76:62:f9:
         53:b0:10:d2:4a:c8:39:28:68:f1:f5:0f:3b:6d:4d:93:65:ee:
         ae:11:04:4b:30:23:bd:69:8f:18:84:bd:36:bb:94:cd:cc:93:
         9e:59:32:97:02:c7:95:7a:97:ac:01:86:21:f2:98:f2:9a:82:
         7d:06:bf:0e:90:27:2f:b5:98:21:85:d7:31:bc:42:53:2e:7d:
         25:8d:de:90:85:76:4f:df:ca:33:a2:41:9b:54:be:30:e1:33:
         44:e3:34:75:68:b2:1e:1f:57:52:d3:5d:16:d7:31:3e:5f:a3:
         57:6d:73:4a
-----BEGIN CERTIFICATE-----
MIIECTCCAvGgAwIBAgIEEAAApzANBgkqhkiG9w0BAQUFADBEMQswCQYDVQQGEwJE
RTEPMA0GA1UECAwGSGVzc2VuMRQwEgYDVQQKDAtwcml2YWN5aWRlYTEOMAwGA1UE
AwwFQ0EwMDEwHhcNMTUwNTIxMTM0MDExWhcNMTYwNTIwMTM0MDExWjA3MRMwEQYD
VQQDEwpTdGV2ZSBUZXN0MSAwHgYJKoZIhvcNAQkBFhFzdGV2ZUBvcGVuc3NsLm9y
ZzCCASIwDQYJKoZIhvcNAQEBBQADggEPADCCAQoCggEBANKBiSBRSA9z9BEyJNUf
HP1c9bbmxfBSgdzSr2ZKfJMxYVyv0W0GcANgfHIMiN1JzZ4CbNJa11MP89q+aWS1
DwwA47NQR6Ozm7oTUNZYWkurOeARygonZwN4ImZtkh4bXEmu5mvRjjudBtPGrE1T
QxCr6JbBh4KXmY8g05kSNzGE4Yr/KQNfIpA+f5vgIMGt3K5MORoxlhcCjLLZtA0g
Ept9hlT9M/3BKmJG+GCWz24BbyLfE0fnl+wFciOjYvj676yccvA3yy83z5CoJ1GG
xtd4CI9+JaIVcKL7HLYVXqCXi4FMCSiKJzuUvHHbW3E3misW4G+1yfVLTyC6Zc+v
ra0CAwEAAaOCAQ4wggEKMAsGA1UdDwQEAwIFoDAJBgNVHRMEAjAAMBEGCWCGSAGG
+EIBAQQEAwIGQDAzBglghkgBhvhCAQ0EJhYkT3BlblNTTCBHZW5lcmF0ZWQgU2Vy
dmVyIENlcnRpZmljYXRlMB0GA1UdDgQWBBTlJW0+rw3dP0zyRRk51RTbfpzArTB0
BgNVHSMEbTBrgBT0p8DMkUavZPOR8if4yLJviocyc6FIpEYwRDELMAkGA1UEBhMC
REUxDzANBgNVBAgMBkhlc3NlbjEUMBIGA1UECgwLcHJpdmFjeWlkZWExDjAMBgNV
BAMMBUNBMDAxggkA+8jrrIPNEgcwEwYDVR0lBAwwCgYIKwYBBQUHAwEwDQYJKoZI
hvcNAQEFBQADggEBADemnDSxNfyi+RfAPMnN8GgIuadMjvotahc2NOeqgK2iUbsx
L+xBdrDQH2HXa4N4ASh58Ru92w1EgNg+0p7Qixevhet7hkn2YO52z+BSePUdCVXf
Vp79+ffwILUBwRl7cTOaeFhFBp4CaSmuiBAWg0O2w/cidu3irDkL0AhmY6NGFQpm
Nsz6XpYz3AMmmHZi+VOwENJKyDkoaPH1DzttTZNl7q4RBEswI71pjxiEvTa7lM3M
k55ZMpcCx5V6l6wBhiHymPKagn0Gvw6QJy+1mCGF1zG8QlMufSWN3pCFdk/fyjOi
QZtUvjDhM0TjNHVosh4fV1LTXRbXMT5fo1dtc0o=
-----END CERTIFICATE-----
