(dp1
S'offerings'
p2
ccopy_reg
_reconstructor
p3
(ctwisted.plugin
CachedDropin
p4
c__builtin__
object
p5
Ntp6
Rp7
(dp8
S'plugins'
p9
(lp10
g3
(ctwisted.plugin
CachedPlugin
p11
g5
Ntp12
Rp13
(dp14
S'provided'
p15
(lp16
ctwisted.plugin
IPlugin
p17
acxmantissa.ixmantissa
IOffering
p18
asS'description'
p19
S'\n    A set of functionality which can be added to a Mantissa server.\n\n    @see L{ixmantissa.IOffering}\n    '
p20
sS'name'
p21
S'peopleOffering'
p22
sS'dropin'
p23
g7
sbasg19
NsS'moduleName'
p24
S'xmantissa.plugins.offerings'
p25
sbsS'baseoff'
p26
g3
(g4
g5
Ntp27
Rp28
(dp29
g9
(lp30
g3
(g11
g5
Ntp31
Rp32
(dp33
g15
(lp34
g17
ag18
asg19
g20
sg21
S'ampOffering'
p35
sg23
g28
sbag3
(g11
g5
Ntp36
Rp37
(dp38
g15
(lp39
g17
ag18
asg19
g20
sg21
S'baseOffering'
p40
sg23
g28
sbasg19
Nsg24
S'xmantissa.plugins.baseoff'
p41
sbsS'free_signup'
p42
g3
(g4
g5
Ntp43
Rp44
(dp45
g9
(lp46
g3
(g11
g5
Ntp47
Rp48
(dp49
g15
(lp50
cxmantissa.ixmantissa
ISignupMechanism
p51
ag17
asg19
S'\n    I am a Twisted plugin helper.\n\n    Instantiate me at module scope in a xmantissa.plugins submodule, including\n    a name and description for the administrator.\n    '
p52
sg21
S'freeTicket'
p53
sg23
g44
sbag3
(g11
g5
Ntp54
Rp55
(dp56
g15
(lp57
g51
ag17
asg19
g52
sg21
S'userInfo'
p58
sg23
g44
sbasg19
Nsg24
S'xmantissa.plugins.free_signup'
p59
sbsS'adminoff'
p60
g3
(g4
g5
Ntp61
Rp62
(dp63
g9
(lp64
g3
(g11
g5
Ntp65
Rp66
(dp67
g15
(lp68
g17
ag18
asg19
g20
sg21
S'adminOffering'
p69
sg23
g62
sbasg19
Nsg24
S'xmantissa.plugins.adminoff'
p70
sbs.