(dp1
S'mantissacmd'
p2
ccopy_reg
_reconstructor
p3
(ctwisted.plugin
CachedDropin
p4
c__builtin__
object
p5
NtRp6
(dp7
S'moduleName'
p8
S'axiom.plugins.mantissacmd'
p9
sS'description'
p10
NsS'plugins'
p11
(lp12
g3
(ctwisted.plugin
CachedPlugin
p13
g5
NtRp14
(dp15
S'provided'
p16
(lp17
ctwisted.plugin
IPlugin
p18
acxmantissa.ixmantissa
IOffering
p19
asS'dropin'
p20
g6
sS'name'
p21
S'baseOffering'
p22
sg10
S'\n    A set of functionality which can be added to a Mantissa server.\n\n    @see L{ixmantissa.IOffering}\n    '
p23
sbag3
(g13
g5
NtRp24
(dp25
g16
(lp26
g18
acaxiom.iaxiom
IAxiomaticCommand
p27
asg20
g6
sg21
S'Mantissa'
p28
sg10
S'\n    Create all the moving parts necessary to begin interactively developing a\n    Mantissa application component of your own.\n    '
p29
sbag3
(g13
g5
NtRp30
(dp31
g16
(lp32
g18
ag27
asg20
g6
sg21
S'RemoteStats'
p33
sg10
Nsbag3
(g13
g5
NtRp34
(dp35
g16
(lp36
g18
acaxiom.iaxiom
IVersion
p37
asg20
g6
sg21
S'version'
p38
sg10
S'\n    An object that represents a three-part version number.\n\n    If running from an svn checkout, include the revision number in\n    the version string.\n    '
p39
sbag3
(g13
g5
NtRp40
(dp41
g16
(lp42
g18
ag27
asg20
g6
sg21
S'PortConfiguration'
p43
sg10
S'\n    Axiomatic subcommand plugin for inspecting and modifying port\n    configuration.\n    '
p44
sbag3
(g13
g5
NtRp45
(dp46
g16
(lp47
g18
ag27
asg20
g6
sg21
S'Generate'
p48
sg10
NsbasbsS'webcmd'
p49
g3
(g4
g5
NtRp50
(dp51
g8
S'axiom.plugins.webcmd'
p52
sg10
Nsg11
(lp53
g3
(g13
g5
NtRp54
(dp55
g16
(lp56
g18
ag19
asg20
g50
sg21
g22
sg10
g23
sbag3
(g13
g5
NtRp57
(dp58
g16
(lp59
g18
ag27
asg20
g50
sg21
S'WebConfiguration'
p60
sg10
Nsbag3
(g13
g5
NtRp61
(dp62
g16
(lp63
g18
ag27
asg20
g50
sg21
S'WebAdministration'
p64
sg10
NsbasbsS'offeringcmd'
p65
g3
(g4
g5
NtRp66
(dp67
g8
S'axiom.plugins.offeringcmd'
p68
sg10
S'\nAxiomatic commands for manipulating Mantissa offerings.\n'
p69
sg11
(lp70
g3
(g13
g5
NtRp71
(dp72
g16
(lp73
g18
ag27
asg20
g66
sg21
S'OfferingCommand'
p74
sg10
Nsbasbs.