Certificate:
    Data:
        Version: 3 (0x2)
        Serial Number: 268435612 (0x1000009c)
    Signature Algorithm: sha1WithRSAEncryption
        Issuer: C=DE, ST=Hessen, O=privacyidea, CN=CA001
        Validity
            Not Before: Jun 24 07:43:27 2015 GMT
            Not After : Jun 23 07:43:27 2016 GMT
        Subject: CN=selfservice,CN=user,O=realm1/emailAddress=meine
        Subject Public Key Info:
            Public Key Algorithm: rsaEncryption
                Public-Key: (2048 bit)
                Modulus:
                    00:cf:3c:d4:33:0e:12:c4:e6:da:cd:b6:56:a1:1c:
                    26:bb:26:1c:8a:4a:73:a8:58:8a:b6:1e:b3:8b:99:
                    d2:1d:07:c2:92:89:79:c0:69:d8:c8:df:28:61:98:
                    1e:b3:fe:ae:2b:bd:78:a9:f7:6e:47:dc:a3:a0:16:
                    8c:85:02:c1:4e:92:fd:72:6e:f0:c8:03:29:9b:b8:
                    00:6e:c0:83:95:c8:34:20:36:9c:b3:e5:e4:e6:76:
                    73:a3:1a:ad:40:96:e0:53:54:00:ec:76:79:9a:c6:
                    0d:7e:b6:bd:29:ec:83:f3:cb:89:a4:cb:6c:00:ba:
                    0c:c5:78:0f:ff:69:b8:94:f4:04:70:43:3f:d8:9e:
                    d7:a7:fb:5d:ce:75:8e:da:e7:c4:07:b1:9d:de:6f:
                    88:4b:b6:4d:9a:cf:f9:bc:fa:9f:cd:32:6d:f6:3a:
                    0b:0d:23:42:78:ec:97:42:bf:0e:4d:60:56:e1:d3:
                    02:f2:19:cb:84:57:90:e5:70:a1:a2:83:35:86:e2:
                    da:86:9f:f9:8a:c4:79:b3:52:28:da:cb:bb:34:ca:
                    d3:da:91:4a:cf:8d:76:a2:b2:6b:9b:f9:96:fd:09:
                    2a:da:11:23:4d:f0:cb:d6:b2:b1:0e:12:6c:9a:19:
                    65:98:87:ca:e4:ee:24:ce:44:ac:90:8f:9d:1b:c5:
                    2a:9d
                Exponent: 65537 (0x10001)
        X509v3 extensions:
            X509v3 Key Usage: 
                Digital Signature, Key Encipherment
            X509v3 Basic Constraints: 
                CA:FALSE
            Netscape Cert Type: 
                SSL Server
            Netscape Comment: 
                OpenSSL Generated Server Certificate
            X509v3 Subject Key Identifier: 
                4D:07:90:AD:FF:1D:0D:E7:1A:DD:D6:2E:FA:BA:34:CB:AA:1F:24:C6
            X509v3 Authority Key Identifier: 
                keyid:F4:A7:C0:CC:91:46:AF:64:F3:91:F2:27:F8:C8:B2:6F:8A:87:32:73
                DirName:/C=DE/ST=Hessen/O=privacyidea/CN=CA001
                serial:FB:C8:EB:AC:83:CD:12:07

            X509v3 Extended Key Usage: 
                TLS Web Server Authentication
    Signature Algorithm: sha1WithRSAEncryption
         43:de:76:1c:cb:da:d0:a5:e6:b3:98:b3:46:89:f0:f7:a9:e4:
         d2:2e:12:0a:4d:25:50:5f:94:0e:2f:29:8d:57:54:19:e5:07:
         00:0c:bf:a3:75:26:26:56:07:b5:5d:3a:06:cd:b2:2b:b9:36:
         0b:9b:fa:9f:63:29:be:69:e6:ad:53:f0:5e:c4:0d:78:85:97:
         c6:52:d2:a3:bb:a4:7a:96:58:0f:0f:87:ff:11:b0:50:9b:56:
         7a:06:b6:53:83:f2:48:c4:35:74:90:b6:ac:54:6e:d1:9d:42:
         8f:ce:9a:93:57:10:7a:f6:3b:44:6a:36:57:d5:1d:ac:e4:d8:
         31:da:70:0e:ab:07:85:15:ae:d3:96:8f:c2:d3:c4:2f:d9:46:
         ab:ea:25:10:c5:c2:93:36:66:c4:db:db:dd:21:60:58:43:4d:
         01:27:6a:42:0f:88:ea:d4:ee:c0:ee:66:78:d8:21:fa:8d:bd:
         fa:4a:de:91:d2:c9:7a:52:3b:a2:ae:4a:a8:4d:85:51:04:46:
         01:47:07:4b:c5:15:d1:0d:b9:2e:a4:ab:e1:73:ea:c7:c7:d9:
         df:88:f2:49:e1:02:f1:7d:9a:d4:12:1b:ce:6a:bd:88:2d:b0:
         92:f6:29:a2:c6:2c:41:79:30:7c:22:9a:d3:7d:63:c6:64:7e:
         5a:7a:3b:77
-----BEGIN CERTIFICATE-----
MIIEDzCCAvegAwIBAgIEEAAAnDANBgkqhkiG9w0BAQUFADBEMQswCQYDVQQGEwJE
RTEPMA0GA1UECAwGSGVzc2VuMRQwEgYDVQQKDAtwcml2YWN5aWRlYTEOMAwGA1UE
AwwFQ0EwMDEwHhcNMTUwNjI0MDc0MzI3WhcNMTYwNjIzMDc0MzI3WjA9MSUwIwYD
VQQDExxzZWxmc2VydmljZSxDTj11c2VyLE89cmVhbG0xMRQwEgYJKoZIhvcNAQkB
FgVtZWluZTCCASIwDQYJKoZIhvcNAQEBBQADggEPADCCAQoCggEBAM881DMOEsTm
2s22VqEcJrsmHIpKc6hYirYes4uZ0h0HwpKJecBp2MjfKGGYHrP+riu9eKn3bkfc
o6AWjIUCwU6S/XJu8MgDKZu4AG7Ag5XINCA2nLPl5OZ2c6MarUCW4FNUAOx2eZrG
DX62vSnsg/PLiaTLbAC6DMV4D/9puJT0BHBDP9ie16f7Xc51jtrnxAexnd5viEu2
TZrP+bz6n80ybfY6Cw0jQnjsl0K/Dk1gVuHTAvIZy4RXkOVwoaKDNYbi2oaf+YrE
ebNSKNrLuzTK09qRSs+NdqKya5v5lv0JKtoRI03wy9aysQ4SbJoZZZiHyuTuJM5E
rJCPnRvFKp0CAwEAAaOCAQ4wggEKMAsGA1UdDwQEAwIFoDAJBgNVHRMEAjAAMBEG
CWCGSAGG+EIBAQQEAwIGQDAzBglghkgBhvhCAQ0EJhYkT3BlblNTTCBHZW5lcmF0
ZWQgU2VydmVyIENlcnRpZmljYXRlMB0GA1UdDgQWBBRNB5Ct/x0N5xrd1i76ujTL
qh8kxjB0BgNVHSMEbTBrgBT0p8DMkUavZPOR8if4yLJviocyc6FIpEYwRDELMAkG
A1UEBhMCREUxDzANBgNVBAgMBkhlc3NlbjEUMBIGA1UECgwLcHJpdmFjeWlkZWEx
DjAMBgNVBAMMBUNBMDAxggkA+8jrrIPNEgcwEwYDVR0lBAwwCgYIKwYBBQUHAwEw
DQYJKoZIhvcNAQEFBQADggEBAEPedhzL2tCl5rOYs0aJ8Pep5NIuEgpNJVBflA4v
KY1XVBnlBwAMv6N1JiZWB7VdOgbNsiu5Ngub+p9jKb5p5q1T8F7EDXiFl8ZS0qO7
pHqWWA8Ph/8RsFCbVnoGtlOD8kjENXSQtqxUbtGdQo/OmpNXEHr2O0RqNlfVHazk
2DHacA6rB4UVrtOWj8LTxC/ZRqvqJRDFwpM2ZsTb290hYFhDTQEnakIPiOrU7sDu
ZnjYIfqNvfpK3pHSyXpSO6KuSqhNhVEERgFHB0vFFdENuS6kq+Fz6sfH2d+I8knh
AvF9mtQSG85qvYgtsJL2KaLGLEF5MHwimtN9Y8Zkflp6O3c=
-----END CERTIFICATE-----
