Certificate:
    Data:
        Version: 3 (0x2)
        Serial Number: 268435620 (0x100000a4)
    Signature Algorithm: sha1WithRSAEncryption
        Issuer: C=DE, ST=Hessen, O=privacyidea, CN=CA001
        Validity
            Not Before: Jun 18 13:47:36 2015 GMT
            Not After : Jun 17 13:47:36 2016 GMT
        Subject: CN=admin,CN=admin,O=/emailAddress=meine
        Subject Public Key Info:
            Public Key Algorithm: rsaEncryption
                Public-Key: (2048 bit)
                Modulus:
                    00:c9:0a:9a:d3:a3:24:ef:0d:fd:a8:21:ed:e6:aa:
                    49:a8:57:f8:b6:9f:f3:ad:6d:83:e5:e2:3a:77:40:
                    b2:fa:e6:cd:33:e7:9a:6b:d9:6c:d0:0d:47:fc:12:
                    2b:d1:12:cc:0e:22:82:42:47:d1:8d:30:b8:e8:bf:
                    1f:c6:14:de:6a:ee:42:a9:e3:8d:30:77:8f:b9:61:
                    64:6c:b6:d0:e0:b8:64:b1:df:c8:1a:1f:93:58:bc:
                    0d:7b:78:a7:9e:96:f6:b4:b8:ae:11:6f:bb:76:b1:
                    0e:9c:86:71:ed:dc:97:6f:02:42:18:f6:c2:46:fa:
                    04:48:6b:f1:50:87:69:b5:f7:bb:13:ef:50:fa:35:
                    89:d4:43:8f:03:ea:ae:64:20:94:db:14:92:59:4b:
                    38:b3:01:34:20:f5:d5:cb:8d:98:4a:a5:77:ea:2f:
                    76:bf:d6:b3:98:60:24:2a:3f:8a:bd:49:49:d7:88:
                    09:8a:4c:6a:b2:a6:c1:46:f5:57:ec:d1:9e:08:1a:
                    37:32:44:47:1e:b4:db:1e:2c:04:84:55:6a:7b:64:
                    2c:46:6f:45:b4:df:68:26:45:40:70:39:80:cf:22:
                    55:21:be:d0:10:15:b5:c0:eb:9d:a8:dd:c6:14:32:
                    b3:d7:b6:d7:74:61:4c:1d:64:dd:21:ef:0d:b0:08:
                    a0:f5
                Exponent: 65537 (0x10001)
        X509v3 extensions:
            X509v3 Key Usage: 
                Digital Signature, Key Encipherment
            X509v3 Basic Constraints: 
                CA:FALSE
            Netscape Cert Type: 
                SSL Server
            Netscape Comment: 
                OpenSSL Generated Server Certificate
            X509v3 Subject Key Identifier: 
                3B:87:6A:75:51:44:5B:6A:66:8C:E0:C0:91:FA:B0:4B:34:4A:7C:13
            X509v3 Authority Key Identifier: 
                keyid:F4:A7:C0:CC:91:46:AF:64:F3:91:F2:27:F8:C8:B2:6F:8A:87:32:73
                DirName:/C=DE/ST=Hessen/O=privacyidea/CN=CA001
                serial:FB:C8:EB:AC:83:CD:12:07

            X509v3 Extended Key Usage: 
                TLS Web Server Authentication
    Signature Algorithm: sha1WithRSAEncryption
         85:a1:ac:14:59:fe:a0:76:8b:b2:ef:9d:1a:a3:c6:e0:95:d6:
         7d:3f:26:6b:db:67:19:06:41:97:0d:74:9f:b0:e4:8c:d1:bd:
         ea:e4:4a:1d:fc:02:f8:92:61:30:57:4b:0d:ad:87:7b:2a:87:
         8d:ef:8d:71:8d:4d:63:01:43:d3:e8:88:6f:27:0e:e0:6c:ac:
         c3:29:aa:2a:09:13:f6:94:37:7b:e1:93:0c:6c:06:62:7a:f6:
         20:28:7c:ec:9d:5b:12:b4:6e:0f:3c:1b:36:42:87:9f:cb:9f:
         6a:ea:dd:04:c1:08:9e:2e:a6:87:b1:f9:44:8e:fe:92:6f:87:
         c7:0c:a5:20:97:0d:1c:1b:64:6b:6e:4b:51:14:0a:09:d2:5d:
         00:51:7e:8f:24:d9:4d:2b:b3:f6:c6:00:42:0c:76:2e:0d:f4:
         ad:6d:b3:93:1b:df:76:29:65:cf:e9:3c:94:e7:7b:bd:56:d4:
         3b:f4:0e:d0:c1:79:2f:d2:f6:66:4c:72:4c:95:d3:83:7d:27:
         6b:e6:f0:4b:f2:80:55:d5:aa:31:a2:d7:7d:08:fb:f5:e1:d6:
         1c:e9:6c:9b:6d:50:e3:aa:f3:0a:c3:cf:33:3c:69:04:fd:65:
         3c:10:d6:8b:55:c9:df:6b:df:14:3e:18:06:c7:67:c0:a1:27:
         d8:72:e3:1a
-----BEGIN CERTIFICATE-----
MIIEBDCCAuygAwIBAgIEEAAApDANBgkqhkiG9w0BAQUFADBEMQswCQYDVQQGEwJE
RTEPMA0GA1UECAwGSGVzc2VuMRQwEgYDVQQKDAtwcml2YWN5aWRlYTEOMAwGA1UE
AwwFQ0EwMDEwHhcNMTUwNjE4MTM0NzM2WhcNMTYwNjE3MTM0NzM2WjAyMRowGAYD
VQQDExFhZG1pbixDTj1hZG1pbixPPTEUMBIGCSqGSIb3DQEJARYFbWVpbmUwggEi
MA0GCSqGSIb3DQEBAQUAA4IBDwAwggEKAoIBAQDJCprToyTvDf2oIe3mqkmoV/i2
n/OtbYPl4jp3QLL65s0z55pr2WzQDUf8EivREswOIoJCR9GNMLjovx/GFN5q7kKp
440wd4+5YWRsttDguGSx38gaH5NYvA17eKeelva0uK4Rb7t2sQ6chnHt3JdvAkIY
9sJG+gRIa/FQh2m197sT71D6NYnUQ48D6q5kIJTbFJJZSzizATQg9dXLjZhKpXfq
L3a/1rOYYCQqP4q9SUnXiAmKTGqypsFG9Vfs0Z4IGjcyREcetNseLASEVWp7ZCxG
b0W032gmRUBwOYDPIlUhvtAQFbXA652o3cYUMrPXttd0YUwdZN0h7w2wCKD1AgMB
AAGjggEOMIIBCjALBgNVHQ8EBAMCBaAwCQYDVR0TBAIwADARBglghkgBhvhCAQEE
BAMCBkAwMwYJYIZIAYb4QgENBCYWJE9wZW5TU0wgR2VuZXJhdGVkIFNlcnZlciBD
ZXJ0aWZpY2F0ZTAdBgNVHQ4EFgQUO4dqdVFEW2pmjODAkfqwSzRKfBMwdAYDVR0j
BG0wa4AU9KfAzJFGr2TzkfIn+Miyb4qHMnOhSKRGMEQxCzAJBgNVBAYTAkRFMQ8w
DQYDVQQIDAZIZXNzZW4xFDASBgNVBAoMC3ByaXZhY3lpZGVhMQ4wDAYDVQQDDAVD
QTAwMYIJAPvI66yDzRIHMBMGA1UdJQQMMAoGCCsGAQUFBwMBMA0GCSqGSIb3DQEB
BQUAA4IBAQCFoawUWf6gdouy750ao8bgldZ9PyZr22cZBkGXDXSfsOSM0b3q5Eod
/AL4kmEwV0sNrYd7KoeN741xjU1jAUPT6IhvJw7gbKzDKaoqCRP2lDd74ZMMbAZi
evYgKHzsnVsStG4PPBs2Qoefy59q6t0EwQieLqaHsflEjv6Sb4fHDKUglw0cG2Rr
bktRFAoJ0l0AUX6PJNlNK7P2xgBCDHYuDfStbbOTG992KWXP6TyU53u9VtQ79A7Q
wXkv0vZmTHJMldODfSdr5vBL8oBV1aoxotd9CPv14dYc6WybbVDjqvMKw88zPGkE
/WU8ENaLVcnfa98UPhgGx2fAoSfYcuMa
-----END CERTIFICATE-----
