Certificate:
    Data:
        Version: 3 (0x2)
        Serial Number: 268435607 (0x10000097)
    Signature Algorithm: sha1WithRSAEncryption
        Issuer: C=DE, ST=Hessen, O=privacyidea, CN=CA001
        Validity
            Not Before: Jun 24 07:41:25 2015 GMT
            Not After : Jun 23 07:41:25 2016 GMT
        Subject: C=DE, ST=Hessen, O=privacyidea, CN=requester.localdomain
        Subject Public Key Info:
            Public Key Algorithm: rsaEncryption
                Public-Key: (2048 bit)
                Modulus:
                    00:cd:be:14:4f:fa:ce:01:3f:42:22:1b:1d:9c:af:
                    dd:92:d2:7f:db:6c:b7:3e:39:43:43:6b:13:03:f1:
                    05:f4:07:74:bc:76:69:28:0b:af:19:8e:d7:fc:e3:
                    cd:c6:58:f2:ca:7f:08:6d:53:fc:07:02:44:24:c6:
                    b4:34:4c:8c:04:fe:33:0e:40:e2:20:ba:02:73:5a:
                    f7:f5:4f:63:6e:cc:c6:b6:df:54:1d:37:39:7d:51:
                    36:26:5f:bd:dc:3f:a8:8b:6b:a2:ae:b6:9d:d6:21:
                    e7:df:41:b8:7a:28:2a:68:48:ca:a8:2d:ed:e1:e9:
                    46:5e:5a:72:6d:b4:84:38:87:91:fd:94:11:0b:28:
                    84:c6:c2:2f:2a:fb:01:f9:36:7a:09:75:d1:33:88:
                    3c:73:41:5b:c8:bf:94:89:70:a1:f0:c0:b9:2e:50:
                    53:1e:b1:17:64:69:f4:2d:81:e0:a9:0d:0e:32:e9:
                    ba:55:8a:85:f1:1b:6f:49:79:b4:7f:88:c3:0d:3e:
                    54:88:9b:3d:1f:38:8c:04:f3:ee:6a:63:2b:f5:c6:
                    db:b4:83:aa:c4:78:41:3a:7d:4b:e1:c8:3e:71:ca:
                    1b:61:59:ea:c6:c4:ca:32:5e:c9:e9:bf:12:29:e6:
                    c6:c3:63:fe:a0:55:da:7a:f1:60:98:4d:26:ed:fa:
                    70:2d
                Exponent: 65537 (0x10001)
        X509v3 extensions:
            X509v3 Key Usage: 
                Digital Signature, Key Encipherment
            X509v3 Basic Constraints: 
                CA:FALSE
            Netscape Cert Type: 
                SSL Server
            Netscape Comment: 
                OpenSSL Generated Server Certificate
            X509v3 Subject Key Identifier: 
                53:3F:ED:5D:09:07:B3:65:7B:AB:45:C9:24:5B:09:77:80:0A:96:ED
            X509v3 Authority Key Identifier: 
                keyid:F4:A7:C0:CC:91:46:AF:64:F3:91:F2:27:F8:C8:B2:6F:8A:87:32:73
                DirName:/C=DE/ST=Hessen/O=privacyidea/CN=CA001
                serial:FB:C8:EB:AC:83:CD:12:07

            X509v3 Extended Key Usage: 
                TLS Web Server Authentication
    Signature Algorithm: sha1WithRSAEncryption
         71:c4:7d:2d:8b:14:58:35:d2:3d:6c:ab:6a:52:34:2f:37:75:
         1e:7b:01:57:c5:4d:94:79:b0:15:59:9d:3a:df:2f:b4:67:e7:
         02:83:67:2c:ed:e6:ae:49:17:8a:5a:7f:e4:05:26:ce:72:f0:
         92:07:e2:a5:5b:b8:3f:1b:6c:dc:2e:f9:5f:dd:9f:03:58:62:
         df:98:9c:a7:41:f8:87:5e:e5:b8:26:85:e8:56:cf:f2:2b:1e:
         37:c2:7d:88:4a:7b:37:48:fd:85:04:f2:57:a8:50:c2:4b:7b:
         ff:a6:25:4d:36:1d:d3:56:c3:2b:9b:b8:b3:19:4c:0d:5c:5b:
         d9:5e:ac:42:d7:7a:56:4f:fd:17:f6:e5:83:ed:18:a7:79:45:
         55:b2:b0:36:ee:32:34:c3:2d:ee:71:66:33:73:48:28:2d:73:
         31:46:51:c1:f3:94:97:95:b6:30:84:5d:dc:f0:df:d9:76:1c:
         4e:ef:60:f5:21:ea:da:ca:5f:c2:36:68:fc:5f:a3:0a:90:37:
         cc:de:d0:62:3b:16:3b:30:bd:08:e6:0a:c1:26:4d:62:a3:0d:
         4d:1a:0d:df:74:41:12:0b:a3:2e:62:23:1e:1a:8e:43:79:1b:
         c3:29:51:c4:f7:af:8b:a6:cd:f0:93:e8:d5:3f:1d:57:0f:dc:
         5a:b4:7c:e4
-----BEGIN CERTIFICATE-----
MIIEJjCCAw6gAwIBAgIEEAAAlzANBgkqhkiG9w0BAQUFADBEMQswCQYDVQQGEwJE
RTEPMA0GA1UECAwGSGVzc2VuMRQwEgYDVQQKDAtwcml2YWN5aWRlYTEOMAwGA1UE
AwwFQ0EwMDEwHhcNMTUwNjI0MDc0MTI1WhcNMTYwNjIzMDc0MTI1WjBUMQswCQYD
VQQGEwJERTEPMA0GA1UECAwGSGVzc2VuMRQwEgYDVQQKDAtwcml2YWN5aWRlYTEe
MBwGA1UEAwwVcmVxdWVzdGVyLmxvY2FsZG9tYWluMIIBIjANBgkqhkiG9w0BAQEF
AAOCAQ8AMIIBCgKCAQEAzb4UT/rOAT9CIhsdnK/dktJ/22y3PjlDQ2sTA/EF9Ad0
vHZpKAuvGY7X/OPNxljyyn8IbVP8BwJEJMa0NEyMBP4zDkDiILoCc1r39U9jbszG
tt9UHTc5fVE2Jl+93D+oi2uirrad1iHn30G4eigqaEjKqC3t4elGXlpybbSEOIeR
/ZQRCyiExsIvKvsB+TZ6CXXRM4g8c0FbyL+UiXCh8MC5LlBTHrEXZGn0LYHgqQ0O
Mum6VYqF8RtvSXm0f4jDDT5UiJs9HziMBPPuamMr9cbbtIOqxHhBOn1L4cg+ccob
YVnqxsTKMl7J6b8SKebGw2P+oFXaevFgmE0m7fpwLQIDAQABo4IBDjCCAQowCwYD
VR0PBAQDAgWgMAkGA1UdEwQCMAAwEQYJYIZIAYb4QgEBBAQDAgZAMDMGCWCGSAGG
+EIBDQQmFiRPcGVuU1NMIEdlbmVyYXRlZCBTZXJ2ZXIgQ2VydGlmaWNhdGUwHQYD
VR0OBBYEFFM/7V0JB7Nle6tFySRbCXeACpbtMHQGA1UdIwRtMGuAFPSnwMyRRq9k
85HyJ/jIsm+KhzJzoUikRjBEMQswCQYDVQQGEwJERTEPMA0GA1UECAwGSGVzc2Vu
MRQwEgYDVQQKDAtwcml2YWN5aWRlYTEOMAwGA1UEAwwFQ0EwMDGCCQD7yOusg80S
BzATBgNVHSUEDDAKBggrBgEFBQcDATANBgkqhkiG9w0BAQUFAAOCAQEAccR9LYsU
WDXSPWyralI0Lzd1HnsBV8VNlHmwFVmdOt8vtGfnAoNnLO3mrkkXilp/5AUmznLw
kgfipVu4Pxts3C75X92fA1hi35icp0H4h17luCaF6FbP8iseN8J9iEp7N0j9hQTy
V6hQwkt7/6YlTTYd01bDK5u4sxlMDVxb2V6sQtd6Vk/9F/blg+0Yp3lFVbKwNu4y
NMMt7nFmM3NIKC1zMUZRwfOUl5W2MIRd3PDf2XYcTu9g9SHq2spfwjZo/F+jCpA3
zN7QYjsWOzC9COYKwSZNYqMNTRoN33RBEgujLmIjHhqOQ3kbwylRxPevi6bN8JPo
1T8dVw/cWrR85A==
-----END CERTIFICATE-----
