Certificate:
    Data:
        Version: 3 (0x2)
        Serial Number: 268435625 (0x100000a9)
    Signature Algorithm: sha1WithRSAEncryption
        Issuer: C=DE, ST=Hessen, O=privacyidea, CN=CA001
        Validity
            Not Before: Jun 18 13:55:38 2015 GMT
            Not After : Jun 17 13:55:38 2016 GMT
        Subject: CN=admin,CN=admin,O=/emailAddress=meine
        Subject Public Key Info:
            Public Key Algorithm: rsaEncryption
                Public-Key: (2048 bit)
                Modulus:
                    00:ca:c4:bc:35:79:3a:58:5d:91:2d:cc:e8:9b:9b:
                    03:d2:8b:8f:bb:7c:fa:6f:81:75:c9:05:13:7b:3a:
                    f4:36:cb:89:63:4e:87:e2:ff:a4:df:0f:3b:4d:4c:
                    47:32:e7:52:31:ae:3c:97:69:87:9f:16:8d:62:02:
                    04:3b:8d:2f:83:43:21:1e:f6:52:ec:54:69:8c:9f:
                    fe:b2:cc:2e:49:b3:68:58:ab:14:96:91:8d:26:cb:
                    d9:3d:9f:4c:9f:c2:66:86:66:9a:c4:8f:c9:90:2d:
                    d0:e8:ad:15:f4:4a:be:6b:42:be:99:ae:da:c2:d8:
                    cf:b3:30:c7:4c:24:57:53:b3:4f:a0:bc:df:4c:9c:
                    08:03:b4:23:b9:38:c0:05:0a:f2:56:90:96:b5:c2:
                    f3:fe:a7:28:a2:4f:25:17:08:5c:07:c7:f4:db:03:
                    84:d2:c8:9e:d5:b8:64:a6:c1:ca:21:fb:44:95:db:
                    bb:8a:f3:d0:eb:f6:e2:78:41:06:e5:83:85:44:fc:
                    71:4c:b7:16:69:69:a3:78:38:3a:fe:55:b4:c4:87:
                    61:63:aa:63:45:80:05:25:5b:54:85:cf:fd:00:5b:
                    22:f6:ff:e5:61:ce:ff:16:63:40:80:c7:26:51:6b:
                    4c:db:04:b0:dc:8a:e1:b4:08:28:5f:ac:57:db:bb:
                    f3:eb
                Exponent: 65537 (0x10001)
        X509v3 extensions:
            X509v3 Key Usage: 
                Digital Signature, Key Encipherment
            X509v3 Basic Constraints: 
                CA:FALSE
            Netscape Cert Type: 
                SSL Server
            Netscape Comment: 
                OpenSSL Generated Server Certificate
            X509v3 Subject Key Identifier: 
                01:88:84:88:86:5D:0D:00:6C:9A:62:27:FD:99:DD:60:92:38:23:59
            X509v3 Authority Key Identifier: 
                keyid:F4:A7:C0:CC:91:46:AF:64:F3:91:F2:27:F8:C8:B2:6F:8A:87:32:73
                DirName:/C=DE/ST=Hessen/O=privacyidea/CN=CA001
                serial:FB:C8:EB:AC:83:CD:12:07

            X509v3 Extended Key Usage: 
                TLS Web Server Authentication
    Signature Algorithm: sha1WithRSAEncryption
         a6:8f:da:95:e2:b9:c5:1b:f8:d0:03:43:c2:11:ea:81:55:39:
         1a:d8:2e:e6:e3:57:40:bf:04:9a:30:4d:e2:61:05:fb:41:e3:
         e5:08:97:f1:83:a4:d3:d0:66:eb:5b:e8:8b:4b:6a:82:30:b9:
         18:00:0a:94:36:25:87:9e:c4:26:7d:5e:0b:89:70:c5:67:36:
         78:29:c2:cf:9c:49:3a:d2:2d:80:d4:ee:31:b3:c9:d7:aa:a8:
         b3:0a:38:1a:f9:7c:16:36:cc:67:57:9f:2e:79:be:54:f4:f9:
         7c:bf:b8:a1:c3:94:91:7c:12:9f:f3:e8:ea:8a:b6:4d:37:fd:
         16:7d:2f:49:53:56:99:79:09:10:66:9b:01:b4:36:27:50:e3:
         7b:db:0e:87:99:b9:8f:d7:fd:8b:1a:63:b7:57:f8:e9:19:41:
         15:b6:95:31:32:e3:a7:0b:5e:25:04:b6:ed:2c:52:ca:5f:4c:
         ec:4d:58:9f:a2:67:57:0f:04:70:cc:e9:79:b1:e8:87:77:7b:
         0d:9c:e3:4c:94:30:9a:85:a5:d4:e9:c5:9d:6b:8d:6e:27:ba:
         7c:d3:38:70:55:f4:7e:29:4e:44:92:61:1a:b1:7b:32:c8:42:
         71:41:8a:30:05:28:f0:41:a7:3d:72:16:86:54:a0:97:eb:ef:
         e5:cd:d1:35
-----BEGIN CERTIFICATE-----
MIIEBDCCAuygAwIBAgIEEAAAqTANBgkqhkiG9w0BAQUFADBEMQswCQYDVQQGEwJE
RTEPMA0GA1UECAwGSGVzc2VuMRQwEgYDVQQKDAtwcml2YWN5aWRlYTEOMAwGA1UE
AwwFQ0EwMDEwHhcNMTUwNjE4MTM1NTM4WhcNMTYwNjE3MTM1NTM4WjAyMRowGAYD
VQQDExFhZG1pbixDTj1hZG1pbixPPTEUMBIGCSqGSIb3DQEJARYFbWVpbmUwggEi
MA0GCSqGSIb3DQEBAQUAA4IBDwAwggEKAoIBAQDKxLw1eTpYXZEtzOibmwPSi4+7
fPpvgXXJBRN7OvQ2y4ljTofi/6TfDztNTEcy51IxrjyXaYefFo1iAgQ7jS+DQyEe
9lLsVGmMn/6yzC5Js2hYqxSWkY0my9k9n0yfwmaGZprEj8mQLdDorRX0Sr5rQr6Z
rtrC2M+zMMdMJFdTs0+gvN9MnAgDtCO5OMAFCvJWkJa1wvP+pyiiTyUXCFwHx/Tb
A4TSyJ7VuGSmwcoh+0SV27uK89Dr9uJ4QQblg4VE/HFMtxZpaaN4ODr+VbTEh2Fj
qmNFgAUlW1SFz/0AWyL2/+Vhzv8WY0CAxyZRa0zbBLDciuG0CChfrFfbu/PrAgMB
AAGjggEOMIIBCjALBgNVHQ8EBAMCBaAwCQYDVR0TBAIwADARBglghkgBhvhCAQEE
BAMCBkAwMwYJYIZIAYb4QgENBCYWJE9wZW5TU0wgR2VuZXJhdGVkIFNlcnZlciBD
ZXJ0aWZpY2F0ZTAdBgNVHQ4EFgQUAYiEiIZdDQBsmmIn/ZndYJI4I1kwdAYDVR0j
BG0wa4AU9KfAzJFGr2TzkfIn+Miyb4qHMnOhSKRGMEQxCzAJBgNVBAYTAkRFMQ8w
DQYDVQQIDAZIZXNzZW4xFDASBgNVBAoMC3ByaXZhY3lpZGVhMQ4wDAYDVQQDDAVD
QTAwMYIJAPvI66yDzRIHMBMGA1UdJQQMMAoGCCsGAQUFBwMBMA0GCSqGSIb3DQEB
BQUAA4IBAQCmj9qV4rnFG/jQA0PCEeqBVTka2C7m41dAvwSaME3iYQX7QePlCJfx
g6TT0GbrW+iLS2qCMLkYAAqUNiWHnsQmfV4LiXDFZzZ4KcLPnEk60i2A1O4xs8nX
qqizCjga+XwWNsxnV58ueb5U9Pl8v7ihw5SRfBKf8+jqirZNN/0WfS9JU1aZeQkQ
ZpsBtDYnUON72w6HmbmP1/2LGmO3V/jpGUEVtpUxMuOnC14lBLbtLFLKX0zsTVif
omdXDwRwzOl5seiHd3sNnONMlDCahaXU6cWda41uJ7p80zhwVfR+KU5EkmEasXsy
yEJxQYowBSjwQac9chaGVKCX6+/lzdE1
-----END CERTIFICATE-----
