Certificate:
    Data:
        Version: 3 (0x2)
        Serial Number: 268435626 (0x100000aa)
    Signature Algorithm: sha1WithRSAEncryption
        Issuer: C=DE, ST=Hessen, O=privacyidea, CN=CA001
        Validity
            Not Before: Jun 18 14:05:39 2015 GMT
            Not After : Jun 17 14:05:39 2016 GMT
        Subject: CN=admin,CN=admin,O=/emailAddress=meine
        Subject Public Key Info:
            Public Key Algorithm: rsaEncryption
                Public-Key: (2048 bit)
                Modulus:
                    00:ab:4a:49:66:50:3c:82:01:5f:88:69:84:6d:30:
                    74:42:d2:7d:28:c2:7a:29:7a:c1:37:96:b3:cc:82:
                    fd:e2:a7:0c:b8:e0:d7:77:81:d7:c4:cf:15:01:65:
                    2e:f2:b7:16:ab:38:ac:92:f8:a5:fe:42:ad:33:b1:
                    24:2a:f4:7f:90:41:30:78:da:df:2c:3b:88:8c:e8:
                    da:bc:de:08:0f:39:70:86:22:5d:76:06:a0:50:54:
                    b3:74:08:7b:93:e6:34:bc:80:6e:9a:2f:91:df:58:
                    05:19:cd:06:26:77:3a:c7:41:04:4e:c3:1a:aa:47:
                    21:36:a5:9d:3b:09:11:55:b8:a9:7c:cf:12:23:5c:
                    d1:ff:4b:b3:89:be:37:8e:5c:46:a3:bb:66:9a:29:
                    65:55:d5:01:6b:3b:b3:94:a9:eb:e5:a1:b6:c9:72:
                    2e:d8:54:d1:05:aa:82:38:13:44:b4:9e:27:e7:09:
                    8e:63:c7:ab:3b:2e:6a:4e:7b:6b:2a:bc:a2:4e:0e:
                    0b:9d:5a:b5:37:59:e7:79:5a:35:be:15:56:fd:97:
                    d8:b4:25:91:a6:62:06:88:01:73:c5:64:5f:8f:fc:
                    af:c9:54:db:52:d1:4b:6e:f2:5f:c5:ba:36:05:4d:
                    91:66:eb:bd:77:93:46:c8:66:a6:75:3c:3a:59:b2:
                    15:87
                Exponent: 65537 (0x10001)
        X509v3 extensions:
            X509v3 Key Usage: 
                Digital Signature, Key Encipherment
            X509v3 Basic Constraints: 
                CA:FALSE
            Netscape Cert Type: 
                SSL Server
            Netscape Comment: 
                OpenSSL Generated Server Certificate
            X509v3 Subject Key Identifier: 
                69:4A:87:CA:A7:C6:18:30:2F:8A:76:2B:1A:35:36:75:8A:93:C6:FC
            X509v3 Authority Key Identifier: 
                keyid:F4:A7:C0:CC:91:46:AF:64:F3:91:F2:27:F8:C8:B2:6F:8A:87:32:73
                DirName:/C=DE/ST=Hessen/O=privacyidea/CN=CA001
                serial:FB:C8:EB:AC:83:CD:12:07

            X509v3 Extended Key Usage: 
                TLS Web Server Authentication
    Signature Algorithm: sha1WithRSAEncryption
         a3:92:8a:94:70:44:0c:42:e2:19:7e:1c:17:20:19:14:7f:ba:
         f7:93:9d:63:14:7a:5a:9c:08:ab:b1:2f:fb:70:13:1e:dd:c8:
         00:f6:c5:ae:3b:ab:73:fd:4a:86:3c:92:4b:48:36:ab:ad:f8:
         9e:3c:2f:95:74:ea:cf:be:70:ad:d2:b2:2b:f5:d3:13:dd:88:
         ec:fa:9e:12:96:2d:ec:34:07:1a:e3:c5:32:8e:86:a5:88:d6:
         a5:a2:05:d6:ba:e5:1c:13:64:3e:ba:cc:f6:76:ad:bf:6f:aa:
         92:d1:e1:4d:d7:98:95:a4:49:f2:ef:5a:99:5e:2f:3a:39:b9:
         e9:98:5f:ed:42:94:26:da:45:e0:27:14:b6:85:e4:33:71:09:
         eb:50:dd:6a:02:43:c9:45:32:ef:7e:a6:cf:9d:0f:1c:88:7a:
         84:7e:1e:1c:b4:ca:df:70:75:2e:6b:61:03:f0:f6:2e:d6:14:
         20:77:ac:56:f0:d1:e0:3e:05:8c:21:8c:dd:f2:67:f9:12:f5:
         70:42:12:5c:e7:b2:46:df:4e:cb:2c:f3:99:43:9f:13:b8:c5:
         1a:90:94:a0:bf:2c:9b:77:78:7f:84:94:f7:01:de:cf:28:b6:
         c9:84:f1:0e:31:b0:6c:04:7c:5c:f5:81:dc:eb:f0:43:fb:aa:
         c0:35:45:c7
-----BEGIN CERTIFICATE-----
MIIEBDCCAuygAwIBAgIEEAAAqjANBgkqhkiG9w0BAQUFADBEMQswCQYDVQQGEwJE
RTEPMA0GA1UECAwGSGVzc2VuMRQwEgYDVQQKDAtwcml2YWN5aWRlYTEOMAwGA1UE
AwwFQ0EwMDEwHhcNMTUwNjE4MTQwNTM5WhcNMTYwNjE3MTQwNTM5WjAyMRowGAYD
VQQDExFhZG1pbixDTj1hZG1pbixPPTEUMBIGCSqGSIb3DQEJARYFbWVpbmUwggEi
MA0GCSqGSIb3DQEBAQUAA4IBDwAwggEKAoIBAQCrSklmUDyCAV+IaYRtMHRC0n0o
wnopesE3lrPMgv3ipwy44Nd3gdfEzxUBZS7ytxarOKyS+KX+Qq0zsSQq9H+QQTB4
2t8sO4iM6Nq83ggPOXCGIl12BqBQVLN0CHuT5jS8gG6aL5HfWAUZzQYmdzrHQQRO
wxqqRyE2pZ07CRFVuKl8zxIjXNH/S7OJvjeOXEaju2aaKWVV1QFrO7OUqevlobbJ
ci7YVNEFqoI4E0S0nifnCY5jx6s7LmpOe2sqvKJODgudWrU3Wed5WjW+FVb9l9i0
JZGmYgaIAXPFZF+P/K/JVNtS0Utu8l/FujYFTZFm6713k0bIZqZ1PDpZshWHAgMB
AAGjggEOMIIBCjALBgNVHQ8EBAMCBaAwCQYDVR0TBAIwADARBglghkgBhvhCAQEE
BAMCBkAwMwYJYIZIAYb4QgENBCYWJE9wZW5TU0wgR2VuZXJhdGVkIFNlcnZlciBD
ZXJ0aWZpY2F0ZTAdBgNVHQ4EFgQUaUqHyqfGGDAvinYrGjU2dYqTxvwwdAYDVR0j
BG0wa4AU9KfAzJFGr2TzkfIn+Miyb4qHMnOhSKRGMEQxCzAJBgNVBAYTAkRFMQ8w
DQYDVQQIDAZIZXNzZW4xFDASBgNVBAoMC3ByaXZhY3lpZGVhMQ4wDAYDVQQDDAVD
QTAwMYIJAPvI66yDzRIHMBMGA1UdJQQMMAoGCCsGAQUFBwMBMA0GCSqGSIb3DQEB
BQUAA4IBAQCjkoqUcEQMQuIZfhwXIBkUf7r3k51jFHpanAirsS/7cBMe3cgA9sWu
O6tz/UqGPJJLSDarrfiePC+VdOrPvnCt0rIr9dMT3Yjs+p4Sli3sNAca48Uyjoal
iNalogXWuuUcE2Q+usz2dq2/b6qS0eFN15iVpEny71qZXi86ObnpmF/tQpQm2kXg
JxS2heQzcQnrUN1qAkPJRTLvfqbPnQ8ciHqEfh4ctMrfcHUua2ED8PYu1hQgd6xW
8NHgPgWMIYzd8mf5EvVwQhJc57JG307LLPOZQ58TuMUakJSgvyybd3h/hJT3Ad7P
KLbJhPEOMbBsBHxc9YHc6/BD+6rANUXH
-----END CERTIFICATE-----
