Certificate:
    Data:
        Version: 3 (0x2)
        Serial Number: 268435615 (0x1000009f)
    Signature Algorithm: sha1WithRSAEncryption
        Issuer: C=DE, ST=Hessen, O=privacyidea, CN=CA001
        Validity
            Not Before: Jun 19 09:13:57 2015 GMT
            Not After : Jun 18 09:13:57 2016 GMT
        Subject: CN=selfservice,CN=user,O=realm1/emailAddress=meine
        Subject Public Key Info:
            Public Key Algorithm: rsaEncryption
                Public-Key: (2048 bit)
                Modulus:
                    00:cf:3c:d4:33:0e:12:c4:e6:da:cd:b6:56:a1:1c:
                    26:bb:26:1c:8a:4a:73:a8:58:8a:b6:1e:b3:8b:99:
                    d2:1d:07:c2:92:89:79:c0:69:d8:c8:df:28:61:98:
                    1e:b3:fe:ae:2b:bd:78:a9:f7:6e:47:dc:a3:a0:16:
                    8c:85:02:c1:4e:92:fd:72:6e:f0:c8:03:29:9b:b8:
                    00:6e:c0:83:95:c8:34:20:36:9c:b3:e5:e4:e6:76:
                    73:a3:1a:ad:40:96:e0:53:54:00:ec:76:79:9a:c6:
                    0d:7e:b6:bd:29:ec:83:f3:cb:89:a4:cb:6c:00:ba:
                    0c:c5:78:0f:ff:69:b8:94:f4:04:70:43:3f:d8:9e:
                    d7:a7:fb:5d:ce:75:8e:da:e7:c4:07:b1:9d:de:6f:
                    88:4b:b6:4d:9a:cf:f9:bc:fa:9f:cd:32:6d:f6:3a:
                    0b:0d:23:42:78:ec:97:42:bf:0e:4d:60:56:e1:d3:
                    02:f2:19:cb:84:57:90:e5:70:a1:a2:83:35:86:e2:
                    da:86:9f:f9:8a:c4:79:b3:52:28:da:cb:bb:34:ca:
                    d3:da:91:4a:cf:8d:76:a2:b2:6b:9b:f9:96:fd:09:
                    2a:da:11:23:4d:f0:cb:d6:b2:b1:0e:12:6c:9a:19:
                    65:98:87:ca:e4:ee:24:ce:44:ac:90:8f:9d:1b:c5:
                    2a:9d
                Exponent: 65537 (0x10001)
        X509v3 extensions:
            X509v3 Key Usage: 
                Digital Signature, Key Encipherment
            X509v3 Basic Constraints: 
                CA:FALSE
            Netscape Cert Type: 
                SSL Server
            Netscape Comment: 
                OpenSSL Generated Server Certificate
            X509v3 Subject Key Identifier: 
                4D:07:90:AD:FF:1D:0D:E7:1A:DD:D6:2E:FA:BA:34:CB:AA:1F:24:C6
            X509v3 Authority Key Identifier: 
                keyid:F4:A7:C0:CC:91:46:AF:64:F3:91:F2:27:F8:C8:B2:6F:8A:87:32:73
                DirName:/C=DE/ST=Hessen/O=privacyidea/CN=CA001
                serial:FB:C8:EB:AC:83:CD:12:07

            X509v3 Extended Key Usage: 
                TLS Web Server Authentication
    Signature Algorithm: sha1WithRSAEncryption
         18:f7:e1:e3:07:eb:91:8a:96:dc:fa:bf:68:1e:b1:35:ba:34:
         27:17:05:df:a5:18:7b:d1:d9:fb:33:24:2d:f1:26:9c:b2:44:
         62:b9:79:80:9e:b7:70:37:4f:b3:58:da:a8:c2:1f:a4:37:98:
         08:62:f9:dd:48:75:ad:c9:85:4a:80:4c:3c:4f:88:66:f5:0c:
         d8:ab:d9:38:22:71:c3:54:4e:6c:51:52:3c:4c:2b:9f:ac:a3:
         d8:be:e4:fe:d7:b4:23:ab:9e:1f:3c:f4:75:63:b2:3b:36:a8:
         54:4e:9e:7d:cb:91:51:81:7c:86:97:1c:de:22:f5:a3:a6:8a:
         7b:bd:48:c5:b8:2d:41:34:a7:a6:2f:1a:48:61:0b:22:72:c4:
         38:19:b7:ff:a0:1d:fc:5a:d1:35:48:27:87:41:05:1b:28:cf:
         1c:b2:b8:3c:11:5e:06:be:61:5d:79:e5:82:09:a5:36:17:15:
         5c:92:e2:1a:f8:81:9e:fb:66:d8:c6:8b:e3:ba:dd:69:0e:f4:
         43:d3:e0:c7:b7:83:26:2e:08:c6:42:b6:1b:f0:f8:b6:4d:8e:
         ea:d6:f5:74:c1:62:6a:21:32:36:f1:fc:d7:18:4c:dd:ad:82:
         c7:0c:21:55:31:eb:f4:82:3b:cb:2b:a7:fe:90:32:47:cc:fd:
         82:77:ba:dd
-----BEGIN CERTIFICATE-----
MIIEDzCCAvegAwIBAgIEEAAAnzANBgkqhkiG9w0BAQUFADBEMQswCQYDVQQGEwJE
RTEPMA0GA1UECAwGSGVzc2VuMRQwEgYDVQQKDAtwcml2YWN5aWRlYTEOMAwGA1UE
AwwFQ0EwMDEwHhcNMTUwNjE5MDkxMzU3WhcNMTYwNjE4MDkxMzU3WjA9MSUwIwYD
VQQDExxzZWxmc2VydmljZSxDTj11c2VyLE89cmVhbG0xMRQwEgYJKoZIhvcNAQkB
FgVtZWluZTCCASIwDQYJKoZIhvcNAQEBBQADggEPADCCAQoCggEBAM881DMOEsTm
2s22VqEcJrsmHIpKc6hYirYes4uZ0h0HwpKJecBp2MjfKGGYHrP+riu9eKn3bkfc
o6AWjIUCwU6S/XJu8MgDKZu4AG7Ag5XINCA2nLPl5OZ2c6MarUCW4FNUAOx2eZrG
DX62vSnsg/PLiaTLbAC6DMV4D/9puJT0BHBDP9ie16f7Xc51jtrnxAexnd5viEu2
TZrP+bz6n80ybfY6Cw0jQnjsl0K/Dk1gVuHTAvIZy4RXkOVwoaKDNYbi2oaf+YrE
ebNSKNrLuzTK09qRSs+NdqKya5v5lv0JKtoRI03wy9aysQ4SbJoZZZiHyuTuJM5E
rJCPnRvFKp0CAwEAAaOCAQ4wggEKMAsGA1UdDwQEAwIFoDAJBgNVHRMEAjAAMBEG
CWCGSAGG+EIBAQQEAwIGQDAzBglghkgBhvhCAQ0EJhYkT3BlblNTTCBHZW5lcmF0
ZWQgU2VydmVyIENlcnRpZmljYXRlMB0GA1UdDgQWBBRNB5Ct/x0N5xrd1i76ujTL
qh8kxjB0BgNVHSMEbTBrgBT0p8DMkUavZPOR8if4yLJviocyc6FIpEYwRDELMAkG
A1UEBhMCREUxDzANBgNVBAgMBkhlc3NlbjEUMBIGA1UECgwLcHJpdmFjeWlkZWEx
DjAMBgNVBAMMBUNBMDAxggkA+8jrrIPNEgcwEwYDVR0lBAwwCgYIKwYBBQUHAwEw
DQYJKoZIhvcNAQEFBQADggEBABj34eMH65GKltz6v2gesTW6NCcXBd+lGHvR2fsz
JC3xJpyyRGK5eYCet3A3T7NY2qjCH6Q3mAhi+d1Ida3JhUqATDxPiGb1DNir2Tgi
ccNUTmxRUjxMK5+so9i+5P7XtCOrnh889HVjsjs2qFROnn3LkVGBfIaXHN4i9aOm
inu9SMW4LUE0p6YvGkhhCyJyxDgZt/+gHfxa0TVIJ4dBBRsozxyyuDwRXga+YV15
5YIJpTYXFVyS4hr4gZ77ZtjGi+O63WkO9EPT4Me3gyYuCMZCthvw+LZNjurW9XTB
YmohMjbx/NcYTN2tgscMIVUx6/SCO8srp/6QMkfM/YJ3ut0=
-----END CERTIFICATE-----
