Certificate:
    Data:
        Version: 3 (0x2)
        Serial Number: 268435630 (0x100000ae)
    Signature Algorithm: sha1WithRSAEncryption
        Issuer: C=DE, ST=Hessen, O=privacyidea, CN=CA001
        Validity
            Not Before: Jun 18 14:12:56 2015 GMT
            Not After : Jun 17 14:12:56 2016 GMT
        Subject: CN=admin,CN=admin,O=/emailAddress=meine
        Subject Public Key Info:
            Public Key Algorithm: rsaEncryption
                Public-Key: (2048 bit)
                Modulus:
                    00:ad:d5:6b:9e:37:7a:dc:69:f8:9e:05:3e:aa:6f:
                    1e:a0:0f:26:ed:83:76:b0:db:9d:80:d4:3e:9b:de:
                    13:9e:21:43:af:e3:b6:42:a9:48:91:c9:65:07:5a:
                    b0:9d:a9:51:05:1e:05:7e:8d:61:e9:03:a5:cd:0c:
                    b7:68:03:3e:52:86:36:f5:9c:fb:1a:f4:d6:b8:00:
                    3d:fb:cb:96:28:37:15:e0:36:44:60:15:ec:ec:0d:
                    34:6b:2a:b7:06:db:d5:3d:fb:f9:75:47:7b:e6:f7:
                    9c:80:95:62:26:28:82:8a:cc:83:a4:66:f3:97:53:
                    65:9f:03:cb:fb:7c:b0:16:5f:41:07:99:06:68:ad:
                    41:0d:64:5b:f1:ed:1e:03:16:ba:87:b3:5a:2c:7b:
                    04:d0:50:e9:8d:fa:1d:a1:ba:99:8d:81:07:04:3a:
                    da:66:b7:27:3d:1a:32:9e:5e:85:ed:77:fa:b3:57:
                    1c:82:69:66:f5:be:cc:60:e0:03:83:6a:60:48:3a:
                    f8:13:ad:98:e7:f6:38:dc:40:ef:3a:2d:f6:87:4f:
                    72:56:dd:91:ec:d1:46:65:50:15:f1:53:42:3d:db:
                    79:e9:48:79:c2:61:a3:3e:87:5c:71:fa:c2:22:4a:
                    4f:19:79:3b:be:d3:5c:65:0d:64:0f:f5:f0:f5:79:
                    b6:bb
                Exponent: 65537 (0x10001)
        X509v3 extensions:
            X509v3 Key Usage: 
                Digital Signature, Key Encipherment
            X509v3 Basic Constraints: 
                CA:FALSE
            Netscape Cert Type: 
                SSL Server
            Netscape Comment: 
                OpenSSL Generated Server Certificate
            X509v3 Subject Key Identifier: 
                EE:B6:C9:1F:4D:12:D3:78:75:CA:CC:3F:76:C9:5C:C4:34:3C:64:FD
            X509v3 Authority Key Identifier: 
                keyid:F4:A7:C0:CC:91:46:AF:64:F3:91:F2:27:F8:C8:B2:6F:8A:87:32:73
                DirName:/C=DE/ST=Hessen/O=privacyidea/CN=CA001
                serial:FB:C8:EB:AC:83:CD:12:07

            X509v3 Extended Key Usage: 
                TLS Web Server Authentication
    Signature Algorithm: sha1WithRSAEncryption
         24:10:a4:8c:2d:8b:49:72:83:f1:7b:76:88:69:91:23:f9:53:
         e7:9c:d9:1d:19:a0:6f:5c:ca:45:13:8c:0e:6d:1d:a9:e7:88:
         b0:f7:26:61:0a:95:a5:3d:63:81:75:d1:2d:c5:1b:fe:4e:76:
         db:89:f0:84:1f:80:8e:f8:a7:f2:f9:dd:56:db:a9:5e:7a:54:
         af:fa:d2:87:f2:fb:f5:f0:2e:71:21:c0:2f:e7:80:1f:48:2f:
         bd:58:35:43:14:71:9c:8d:ee:0b:97:e4:3e:6c:58:c0:72:aa:
         0a:ab:5b:54:f8:5b:ec:7f:47:76:96:a0:72:8b:cb:2a:6b:1b:
         b1:eb:8e:8f:8c:1a:d9:53:09:e2:0c:2c:2f:a3:92:0c:62:54:
         c2:9d:9e:05:b9:fa:ad:6e:2a:6a:80:38:35:cc:68:b5:0e:1f:
         8e:ee:0a:21:ad:b0:fa:b7:0b:96:5b:8a:3c:62:40:9d:27:d0:
         03:a0:da:ee:7c:96:02:d2:bf:9b:66:a6:74:b5:56:03:18:77:
         7d:c7:fd:83:7d:a6:64:dd:7d:ed:9b:a1:e9:e7:77:f7:99:9d:
         8b:39:2b:66:d1:93:65:c1:aa:03:5e:ce:8f:1d:38:22:bf:3b:
         90:5d:f2:ab:d9:3c:6f:01:2d:c0:1a:69:6d:09:e8:0a:9a:06:
         2a:70:b8:bb
-----BEGIN CERTIFICATE-----
MIIEBDCCAuygAwIBAgIEEAAArjANBgkqhkiG9w0BAQUFADBEMQswCQYDVQQGEwJE
RTEPMA0GA1UECAwGSGVzc2VuMRQwEgYDVQQKDAtwcml2YWN5aWRlYTEOMAwGA1UE
AwwFQ0EwMDEwHhcNMTUwNjE4MTQxMjU2WhcNMTYwNjE3MTQxMjU2WjAyMRowGAYD
VQQDExFhZG1pbixDTj1hZG1pbixPPTEUMBIGCSqGSIb3DQEJARYFbWVpbmUwggEi
MA0GCSqGSIb3DQEBAQUAA4IBDwAwggEKAoIBAQCt1WueN3rcafieBT6qbx6gDybt
g3aw252A1D6b3hOeIUOv47ZCqUiRyWUHWrCdqVEFHgV+jWHpA6XNDLdoAz5Shjb1
nPsa9Na4AD37y5YoNxXgNkRgFezsDTRrKrcG29U9+/l1R3vm95yAlWImKIKKzIOk
ZvOXU2WfA8v7fLAWX0EHmQZorUENZFvx7R4DFrqHs1osewTQUOmN+h2hupmNgQcE
Otpmtyc9GjKeXoXtd/qzVxyCaWb1vsxg4AODamBIOvgTrZjn9jjcQO86LfaHT3JW
3ZHs0UZlUBXxU0I923npSHnCYaM+h1xx+sIiSk8ZeTu+01xlDWQP9fD1eba7AgMB
AAGjggEOMIIBCjALBgNVHQ8EBAMCBaAwCQYDVR0TBAIwADARBglghkgBhvhCAQEE
BAMCBkAwMwYJYIZIAYb4QgENBCYWJE9wZW5TU0wgR2VuZXJhdGVkIFNlcnZlciBD
ZXJ0aWZpY2F0ZTAdBgNVHQ4EFgQU7rbJH00S03h1ysw/dslcxDQ8ZP0wdAYDVR0j
BG0wa4AU9KfAzJFGr2TzkfIn+Miyb4qHMnOhSKRGMEQxCzAJBgNVBAYTAkRFMQ8w
DQYDVQQIDAZIZXNzZW4xFDASBgNVBAoMC3ByaXZhY3lpZGVhMQ4wDAYDVQQDDAVD
QTAwMYIJAPvI66yDzRIHMBMGA1UdJQQMMAoGCCsGAQUFBwMBMA0GCSqGSIb3DQEB
BQUAA4IBAQAkEKSMLYtJcoPxe3aIaZEj+VPnnNkdGaBvXMpFE4wObR2p54iw9yZh
CpWlPWOBddEtxRv+TnbbifCEH4CO+Kfy+d1W26leelSv+tKH8vv18C5xIcAv54Af
SC+9WDVDFHGcje4Ll+Q+bFjAcqoKq1tU+Fvsf0d2lqByi8sqaxux646PjBrZUwni
DCwvo5IMYlTCnZ4FufqtbipqgDg1zGi1Dh+O7gohrbD6twuWW4o8YkCdJ9ADoNru
fJYC0r+bZqZ0tVYDGHd9x/2DfaZk3X3tm6Hp53f3mZ2LOStm0ZNlwaoDXs6PHTgi
vzuQXfKr2TxvAS3AGmltCegKmgYqcLi7
-----END CERTIFICATE-----
