Certificate:
    Data:
        Version: 3 (0x2)
        Serial Number: 268435624 (0x100000a8)
    Signature Algorithm: sha1WithRSAEncryption
        Issuer: C=DE, ST=Hessen, O=privacyidea, CN=CA001
        Validity
            Not Before: Jun 18 13:53:03 2015 GMT
            Not After : Jun 17 13:53:03 2016 GMT
        Subject: CN=admin,CN=admin,O=/emailAddress=meine
        Subject Public Key Info:
            Public Key Algorithm: rsaEncryption
                Public-Key: (2048 bit)
                Modulus:
                    00:be:8a:43:31:3f:eb:00:e3:55:a2:63:bc:9e:d4:
                    e7:31:d2:55:cf:2d:9c:5c:50:14:43:27:a1:f8:e8:
                    58:cf:e4:0d:73:21:62:a0:e7:bf:24:27:56:d7:69:
                    e9:bc:da:2f:ce:0f:1e:e4:af:4f:63:21:c6:66:50:
                    05:76:b7:34:6a:72:f0:c7:ba:95:97:6e:f0:c3:0b:
                    01:6b:1d:65:b5:1b:2b:73:9c:fc:29:5a:fd:8a:6e:
                    e6:cd:db:7b:85:4f:b4:75:37:9f:89:e9:de:ad:ef:
                    57:9b:a4:58:4b:32:bd:bb:02:d8:58:dd:63:25:dd:
                    0e:36:54:03:ba:d1:c7:ce:1c:ac:bf:07:ae:73:1c:
                    84:12:4d:5a:e6:75:f0:8c:7d:ae:8f:01:a7:39:25:
                    3a:f4:0a:f3:86:26:38:5c:2b:b7:53:61:56:53:45:
                    62:f3:20:12:22:02:87:4b:ee:04:70:33:e6:ad:a4:
                    88:45:3f:2e:9d:dd:25:6a:59:fc:66:99:46:ec:f4:
                    87:48:5e:b5:3d:b0:36:23:86:c7:f5:e1:36:7b:d8:
                    b5:69:93:97:da:ec:6f:f5:bb:d5:3f:10:24:b3:32:
                    0b:a4:01:ab:e4:97:34:37:3a:30:3e:5a:fe:65:91:
                    f9:64:aa:69:c9:f5:9e:f1:1a:76:5c:a6:a6:f6:82:
                    8e:95
                Exponent: 65537 (0x10001)
        X509v3 extensions:
            X509v3 Key Usage: 
                Digital Signature, Key Encipherment
            X509v3 Basic Constraints: 
                CA:FALSE
            Netscape Cert Type: 
                SSL Server
            Netscape Comment: 
                OpenSSL Generated Server Certificate
            X509v3 Subject Key Identifier: 
                7B:12:A0:07:12:EF:E7:C7:39:1F:C8:AE:C5:21:98:D8:C0:96:59:9B
            X509v3 Authority Key Identifier: 
                keyid:F4:A7:C0:CC:91:46:AF:64:F3:91:F2:27:F8:C8:B2:6F:8A:87:32:73
                DirName:/C=DE/ST=Hessen/O=privacyidea/CN=CA001
                serial:FB:C8:EB:AC:83:CD:12:07

            X509v3 Extended Key Usage: 
                TLS Web Server Authentication
    Signature Algorithm: sha1WithRSAEncryption
         62:c7:dc:ec:e4:76:7f:31:5a:30:d2:54:50:1d:bf:8a:f4:98:
         67:10:82:d9:2d:cf:79:8f:83:04:fa:08:71:f1:b3:01:f3:53:
         82:79:1d:f1:29:15:8c:52:b3:84:21:51:e6:0f:75:d5:ed:3c:
         cd:c1:52:33:57:5e:8d:6b:c1:35:3c:b7:55:5f:bc:f2:d0:be:
         62:9c:11:9a:93:11:2a:a7:1e:fa:06:a9:aa:03:95:f1:71:98:
         b6:c7:e2:e2:3d:89:54:24:d5:da:28:73:43:04:fb:c0:49:10:
         bb:ff:02:5e:48:66:b9:69:93:47:87:dc:74:10:0a:59:6c:25:
         0f:4d:a7:33:36:54:db:de:82:bf:12:ac:70:75:0b:4c:89:f9:
         2a:9a:86:4c:cd:60:3a:98:c4:64:79:97:73:d3:85:56:18:d0:
         db:97:3f:80:65:17:bb:7a:6b:7a:c3:ec:7a:68:0f:67:1d:74:
         02:d4:62:b0:30:92:f3:25:33:8d:22:ad:75:3f:70:89:e4:9e:
         5e:af:72:ba:34:c6:3d:1d:f0:15:8d:df:21:0c:93:87:f9:9a:
         35:32:fb:e8:c3:d5:be:04:79:8f:3c:6a:d1:5e:76:70:5c:31:
         ff:a8:cd:55:e2:99:78:23:b1:13:28:ab:7b:98:c6:69:50:2b:
         7e:8d:88:d4
-----BEGIN CERTIFICATE-----
MIIEBDCCAuygAwIBAgIEEAAAqDANBgkqhkiG9w0BAQUFADBEMQswCQYDVQQGEwJE
RTEPMA0GA1UECAwGSGVzc2VuMRQwEgYDVQQKDAtwcml2YWN5aWRlYTEOMAwGA1UE
AwwFQ0EwMDEwHhcNMTUwNjE4MTM1MzAzWhcNMTYwNjE3MTM1MzAzWjAyMRowGAYD
VQQDExFhZG1pbixDTj1hZG1pbixPPTEUMBIGCSqGSIb3DQEJARYFbWVpbmUwggEi
MA0GCSqGSIb3DQEBAQUAA4IBDwAwggEKAoIBAQC+ikMxP+sA41WiY7ye1Ocx0lXP
LZxcUBRDJ6H46FjP5A1zIWKg578kJ1bXaem82i/ODx7kr09jIcZmUAV2tzRqcvDH
upWXbvDDCwFrHWW1GytznPwpWv2KbubN23uFT7R1N5+J6d6t71ebpFhLMr27AthY
3WMl3Q42VAO60cfOHKy/B65zHIQSTVrmdfCMfa6PAac5JTr0CvOGJjhcK7dTYVZT
RWLzIBIiAodL7gRwM+atpIhFPy6d3SVqWfxmmUbs9IdIXrU9sDYjhsf14TZ72LVp
k5fa7G/1u9U/ECSzMgukAavklzQ3OjA+Wv5lkflkqmnJ9Z7xGnZcpqb2go6VAgMB
AAGjggEOMIIBCjALBgNVHQ8EBAMCBaAwCQYDVR0TBAIwADARBglghkgBhvhCAQEE
BAMCBkAwMwYJYIZIAYb4QgENBCYWJE9wZW5TU0wgR2VuZXJhdGVkIFNlcnZlciBD
ZXJ0aWZpY2F0ZTAdBgNVHQ4EFgQUexKgBxLv58c5H8iuxSGY2MCWWZswdAYDVR0j
BG0wa4AU9KfAzJFGr2TzkfIn+Miyb4qHMnOhSKRGMEQxCzAJBgNVBAYTAkRFMQ8w
DQYDVQQIDAZIZXNzZW4xFDASBgNVBAoMC3ByaXZhY3lpZGVhMQ4wDAYDVQQDDAVD
QTAwMYIJAPvI66yDzRIHMBMGA1UdJQQMMAoGCCsGAQUFBwMBMA0GCSqGSIb3DQEB
BQUAA4IBAQBix9zs5HZ/MVow0lRQHb+K9JhnEILZLc95j4ME+ghx8bMB81OCeR3x
KRWMUrOEIVHmD3XV7TzNwVIzV16Na8E1PLdVX7zy0L5inBGakxEqpx76BqmqA5Xx
cZi2x+LiPYlUJNXaKHNDBPvASRC7/wJeSGa5aZNHh9x0EApZbCUPTaczNlTb3oK/
EqxwdQtMifkqmoZMzWA6mMRkeZdz04VWGNDblz+AZRe7emt6w+x6aA9nHXQC1GKw
MJLzJTONIq11P3CJ5J5er3K6NMY9HfAVjd8hDJOH+Zo1Mvvow9W+BHmPPGrRXnZw
XDH/qM1V4pl4I7ETKKt7mMZpUCt+jYjU
-----END CERTIFICATE-----
