Certificate:
    Data:
        Version: 3 (0x2)
        Serial Number: 268435614 (0x1000009e)
    Signature Algorithm: sha1WithRSAEncryption
        Issuer: C=DE, ST=Hessen, O=privacyidea, CN=CA001
        Validity
            Not Before: Jun 19 09:10:22 2015 GMT
            Not After : Jun 18 09:10:22 2016 GMT
        Subject: C=DE, ST=Hessen, O=privacyidea, CN=requester.localdomain
        Subject Public Key Info:
            Public Key Algorithm: rsaEncryption
                Public-Key: (2048 bit)
                Modulus:
                    00:cd:be:14:4f:fa:ce:01:3f:42:22:1b:1d:9c:af:
                    dd:92:d2:7f:db:6c:b7:3e:39:43:43:6b:13:03:f1:
                    05:f4:07:74:bc:76:69:28:0b:af:19:8e:d7:fc:e3:
                    cd:c6:58:f2:ca:7f:08:6d:53:fc:07:02:44:24:c6:
                    b4:34:4c:8c:04:fe:33:0e:40:e2:20:ba:02:73:5a:
                    f7:f5:4f:63:6e:cc:c6:b6:df:54:1d:37:39:7d:51:
                    36:26:5f:bd:dc:3f:a8:8b:6b:a2:ae:b6:9d:d6:21:
                    e7:df:41:b8:7a:28:2a:68:48:ca:a8:2d:ed:e1:e9:
                    46:5e:5a:72:6d:b4:84:38:87:91:fd:94:11:0b:28:
                    84:c6:c2:2f:2a:fb:01:f9:36:7a:09:75:d1:33:88:
                    3c:73:41:5b:c8:bf:94:89:70:a1:f0:c0:b9:2e:50:
                    53:1e:b1:17:64:69:f4:2d:81:e0:a9:0d:0e:32:e9:
                    ba:55:8a:85:f1:1b:6f:49:79:b4:7f:88:c3:0d:3e:
                    54:88:9b:3d:1f:38:8c:04:f3:ee:6a:63:2b:f5:c6:
                    db:b4:83:aa:c4:78:41:3a:7d:4b:e1:c8:3e:71:ca:
                    1b:61:59:ea:c6:c4:ca:32:5e:c9:e9:bf:12:29:e6:
                    c6:c3:63:fe:a0:55:da:7a:f1:60:98:4d:26:ed:fa:
                    70:2d
                Exponent: 65537 (0x10001)
        X509v3 extensions:
            X509v3 Key Usage: 
                Digital Signature, Key Encipherment
            X509v3 Basic Constraints: 
                CA:FALSE
            Netscape Cert Type: 
                SSL Server
            Netscape Comment: 
                OpenSSL Generated Server Certificate
            X509v3 Subject Key Identifier: 
                53:3F:ED:5D:09:07:B3:65:7B:AB:45:C9:24:5B:09:77:80:0A:96:ED
            X509v3 Authority Key Identifier: 
                keyid:F4:A7:C0:CC:91:46:AF:64:F3:91:F2:27:F8:C8:B2:6F:8A:87:32:73
                DirName:/C=DE/ST=Hessen/O=privacyidea/CN=CA001
                serial:FB:C8:EB:AC:83:CD:12:07

            X509v3 Extended Key Usage: 
                TLS Web Server Authentication
    Signature Algorithm: sha1WithRSAEncryption
         08:33:3e:05:71:6a:eb:01:3f:85:2a:39:6d:7b:28:b7:13:78:
         08:9d:31:ce:0b:23:5b:17:09:bd:ef:7b:17:71:11:3f:ec:25:
         33:bf:85:3d:51:f3:3a:f0:21:de:fe:09:ba:9f:66:00:aa:fb:
         0d:f1:63:61:7d:25:55:7e:1f:78:7d:b6:74:ba:0c:e3:f2:b2:
         91:d9:3e:4c:54:d7:87:ce:6c:c5:7d:49:08:71:3b:62:df:ab:
         4a:42:f6:f0:e9:2e:ef:00:72:a5:5c:5e:f2:4c:ca:47:d5:4a:
         f4:a4:71:67:41:6e:1d:71:c3:68:2f:c5:17:f8:ba:3b:5e:a7:
         cb:fe:27:7b:d3:68:85:ff:56:c6:21:a2:66:bf:27:7c:2f:82:
         31:1f:ed:3c:ce:64:e9:4f:d6:10:72:87:c9:a5:19:5c:72:a2:
         57:40:a8:ed:94:23:76:f1:25:ea:6d:84:ec:7e:fd:48:b4:b3:
         04:70:6c:58:f4:99:0a:bb:da:ad:f4:6b:e5:12:c6:9a:66:11:
         9f:a3:f1:a9:80:a5:1d:02:7a:e4:25:d7:0d:3d:3c:6e:03:8d:
         de:b7:57:fb:82:62:db:26:65:25:e0:f7:21:d5:9d:8a:62:e2:
         e8:d3:4b:86:b4:d7:54:6e:dd:9c:72:dc:5c:5f:e1:89:b7:6a:
         6c:f1:47:2c
-----BEGIN CERTIFICATE-----
MIIEJjCCAw6gAwIBAgIEEAAAnjANBgkqhkiG9w0BAQUFADBEMQswCQYDVQQGEwJE
RTEPMA0GA1UECAwGSGVzc2VuMRQwEgYDVQQKDAtwcml2YWN5aWRlYTEOMAwGA1UE
AwwFQ0EwMDEwHhcNMTUwNjE5MDkxMDIyWhcNMTYwNjE4MDkxMDIyWjBUMQswCQYD
VQQGEwJERTEPMA0GA1UECAwGSGVzc2VuMRQwEgYDVQQKDAtwcml2YWN5aWRlYTEe
MBwGA1UEAwwVcmVxdWVzdGVyLmxvY2FsZG9tYWluMIIBIjANBgkqhkiG9w0BAQEF
AAOCAQ8AMIIBCgKCAQEAzb4UT/rOAT9CIhsdnK/dktJ/22y3PjlDQ2sTA/EF9Ad0
vHZpKAuvGY7X/OPNxljyyn8IbVP8BwJEJMa0NEyMBP4zDkDiILoCc1r39U9jbszG
tt9UHTc5fVE2Jl+93D+oi2uirrad1iHn30G4eigqaEjKqC3t4elGXlpybbSEOIeR
/ZQRCyiExsIvKvsB+TZ6CXXRM4g8c0FbyL+UiXCh8MC5LlBTHrEXZGn0LYHgqQ0O
Mum6VYqF8RtvSXm0f4jDDT5UiJs9HziMBPPuamMr9cbbtIOqxHhBOn1L4cg+ccob
YVnqxsTKMl7J6b8SKebGw2P+oFXaevFgmE0m7fpwLQIDAQABo4IBDjCCAQowCwYD
VR0PBAQDAgWgMAkGA1UdEwQCMAAwEQYJYIZIAYb4QgEBBAQDAgZAMDMGCWCGSAGG
+EIBDQQmFiRPcGVuU1NMIEdlbmVyYXRlZCBTZXJ2ZXIgQ2VydGlmaWNhdGUwHQYD
VR0OBBYEFFM/7V0JB7Nle6tFySRbCXeACpbtMHQGA1UdIwRtMGuAFPSnwMyRRq9k
85HyJ/jIsm+KhzJzoUikRjBEMQswCQYDVQQGEwJERTEPMA0GA1UECAwGSGVzc2Vu
MRQwEgYDVQQKDAtwcml2YWN5aWRlYTEOMAwGA1UEAwwFQ0EwMDGCCQD7yOusg80S
BzATBgNVHSUEDDAKBggrBgEFBQcDATANBgkqhkiG9w0BAQUFAAOCAQEACDM+BXFq
6wE/hSo5bXsotxN4CJ0xzgsjWxcJve97F3ERP+wlM7+FPVHzOvAh3v4Jup9mAKr7
DfFjYX0lVX4feH22dLoM4/Kykdk+TFTXh85sxX1JCHE7Yt+rSkL28Oku7wBypVxe
8kzKR9VK9KRxZ0FuHXHDaC/FF/i6O16ny/4ne9Nohf9WxiGiZr8nfC+CMR/tPM5k
6U/WEHKHyaUZXHKiV0Co7ZQjdvEl6m2E7H79SLSzBHBsWPSZCrvarfRr5RLGmmYR
n6PxqYClHQJ65CXXDT08bgON3rdX+4Ji2yZlJeD3IdWdimLi6NNLhrTXVG7dnHLc
XF/hibdqbPFHLA==
-----END CERTIFICATE-----
