Certificate:
    Data:
        Version: 3 (0x2)
        Serial Number: 268435608 (0x10000098)
    Signature Algorithm: sha1WithRSAEncryption
        Issuer: C=DE, ST=Hessen, O=privacyidea, CN=CA001
        Validity
            Not Before: Jun 24 07:41:50 2015 GMT
            Not After : Jun 23 07:41:50 2016 GMT
        Subject: C=DE, ST=Hessen, O=privacyidea, CN=requester.localdomain
        Subject Public Key Info:
            Public Key Algorithm: rsaEncryption
                Public-Key: (2048 bit)
                Modulus:
                    00:cd:be:14:4f:fa:ce:01:3f:42:22:1b:1d:9c:af:
                    dd:92:d2:7f:db:6c:b7:3e:39:43:43:6b:13:03:f1:
                    05:f4:07:74:bc:76:69:28:0b:af:19:8e:d7:fc:e3:
                    cd:c6:58:f2:ca:7f:08:6d:53:fc:07:02:44:24:c6:
                    b4:34:4c:8c:04:fe:33:0e:40:e2:20:ba:02:73:5a:
                    f7:f5:4f:63:6e:cc:c6:b6:df:54:1d:37:39:7d:51:
                    36:26:5f:bd:dc:3f:a8:8b:6b:a2:ae:b6:9d:d6:21:
                    e7:df:41:b8:7a:28:2a:68:48:ca:a8:2d:ed:e1:e9:
                    46:5e:5a:72:6d:b4:84:38:87:91:fd:94:11:0b:28:
                    84:c6:c2:2f:2a:fb:01:f9:36:7a:09:75:d1:33:88:
                    3c:73:41:5b:c8:bf:94:89:70:a1:f0:c0:b9:2e:50:
                    53:1e:b1:17:64:69:f4:2d:81:e0:a9:0d:0e:32:e9:
                    ba:55:8a:85:f1:1b:6f:49:79:b4:7f:88:c3:0d:3e:
                    54:88:9b:3d:1f:38:8c:04:f3:ee:6a:63:2b:f5:c6:
                    db:b4:83:aa:c4:78:41:3a:7d:4b:e1:c8:3e:71:ca:
                    1b:61:59:ea:c6:c4:ca:32:5e:c9:e9:bf:12:29:e6:
                    c6:c3:63:fe:a0:55:da:7a:f1:60:98:4d:26:ed:fa:
                    70:2d
                Exponent: 65537 (0x10001)
        X509v3 extensions:
            X509v3 Key Usage: 
                Digital Signature, Key Encipherment
            X509v3 Basic Constraints: 
                CA:FALSE
            Netscape Cert Type: 
                SSL Server
            Netscape Comment: 
                OpenSSL Generated Server Certificate
            X509v3 Subject Key Identifier: 
                53:3F:ED:5D:09:07:B3:65:7B:AB:45:C9:24:5B:09:77:80:0A:96:ED
            X509v3 Authority Key Identifier: 
                keyid:F4:A7:C0:CC:91:46:AF:64:F3:91:F2:27:F8:C8:B2:6F:8A:87:32:73
                DirName:/C=DE/ST=Hessen/O=privacyidea/CN=CA001
                serial:FB:C8:EB:AC:83:CD:12:07

            X509v3 Extended Key Usage: 
                TLS Web Server Authentication
    Signature Algorithm: sha1WithRSAEncryption
         28:db:46:dc:fd:cc:b7:33:61:db:85:46:59:01:02:c7:27:e7:
         2a:5e:bc:e7:c3:59:95:01:f2:5c:c3:8e:a9:cd:c7:64:4e:70:
         38:9d:6f:2c:77:17:8e:50:98:85:4f:c0:ea:c9:5b:a3:dd:5a:
         29:f1:80:82:bd:b6:f5:dc:8c:5f:0d:e5:05:c7:f1:9d:e3:60:
         a3:b3:f9:00:3a:99:b1:55:83:08:61:4d:3e:d2:0d:86:f3:f0:
         4d:ae:54:b7:38:3a:c1:52:e5:ff:ae:82:cf:67:e9:bf:31:a4:
         63:2e:89:85:61:d0:a9:b4:67:62:89:a9:cb:5a:ac:9f:ab:5c:
         27:fb:5a:ba:5f:e7:d1:9e:ea:14:cc:4f:9d:06:82:b5:85:6d:
         8f:db:77:8a:aa:77:62:2e:29:1c:2a:32:bc:50:ac:fe:fb:e5:
         b6:2e:a5:be:15:0e:dc:83:ec:0a:6f:25:06:a0:63:33:ab:13:
         83:77:73:9b:6e:0b:ae:89:9b:cb:25:a2:6a:ef:20:0c:47:07:
         0b:27:91:dc:3d:e0:06:4c:b0:71:96:c1:b9:d1:e3:2e:c5:3c:
         38:d7:9f:0d:b0:8f:d1:2f:a4:eb:55:1d:f6:c9:bd:3b:7e:95:
         27:fe:44:3e:b6:6b:4b:52:d4:eb:76:68:f6:af:b9:d7:21:38:
         40:ff:ef:0b
-----BEGIN CERTIFICATE-----
MIIEJjCCAw6gAwIBAgIEEAAAmDANBgkqhkiG9w0BAQUFADBEMQswCQYDVQQGEwJE
RTEPMA0GA1UECAwGSGVzc2VuMRQwEgYDVQQKDAtwcml2YWN5aWRlYTEOMAwGA1UE
AwwFQ0EwMDEwHhcNMTUwNjI0MDc0MTUwWhcNMTYwNjIzMDc0MTUwWjBUMQswCQYD
VQQGEwJERTEPMA0GA1UECAwGSGVzc2VuMRQwEgYDVQQKDAtwcml2YWN5aWRlYTEe
MBwGA1UEAwwVcmVxdWVzdGVyLmxvY2FsZG9tYWluMIIBIjANBgkqhkiG9w0BAQEF
AAOCAQ8AMIIBCgKCAQEAzb4UT/rOAT9CIhsdnK/dktJ/22y3PjlDQ2sTA/EF9Ad0
vHZpKAuvGY7X/OPNxljyyn8IbVP8BwJEJMa0NEyMBP4zDkDiILoCc1r39U9jbszG
tt9UHTc5fVE2Jl+93D+oi2uirrad1iHn30G4eigqaEjKqC3t4elGXlpybbSEOIeR
/ZQRCyiExsIvKvsB+TZ6CXXRM4g8c0FbyL+UiXCh8MC5LlBTHrEXZGn0LYHgqQ0O
Mum6VYqF8RtvSXm0f4jDDT5UiJs9HziMBPPuamMr9cbbtIOqxHhBOn1L4cg+ccob
YVnqxsTKMl7J6b8SKebGw2P+oFXaevFgmE0m7fpwLQIDAQABo4IBDjCCAQowCwYD
VR0PBAQDAgWgMAkGA1UdEwQCMAAwEQYJYIZIAYb4QgEBBAQDAgZAMDMGCWCGSAGG
+EIBDQQmFiRPcGVuU1NMIEdlbmVyYXRlZCBTZXJ2ZXIgQ2VydGlmaWNhdGUwHQYD
VR0OBBYEFFM/7V0JB7Nle6tFySRbCXeACpbtMHQGA1UdIwRtMGuAFPSnwMyRRq9k
85HyJ/jIsm+KhzJzoUikRjBEMQswCQYDVQQGEwJERTEPMA0GA1UECAwGSGVzc2Vu
MRQwEgYDVQQKDAtwcml2YWN5aWRlYTEOMAwGA1UEAwwFQ0EwMDGCCQD7yOusg80S
BzATBgNVHSUEDDAKBggrBgEFBQcDATANBgkqhkiG9w0BAQUFAAOCAQEAKNtG3P3M
tzNh24VGWQECxyfnKl6858NZlQHyXMOOqc3HZE5wOJ1vLHcXjlCYhU/A6slbo91a
KfGAgr229dyMXw3lBcfxneNgo7P5ADqZsVWDCGFNPtINhvPwTa5Utzg6wVLl/66C
z2fpvzGkYy6JhWHQqbRnYompy1qsn6tcJ/taul/n0Z7qFMxPnQaCtYVtj9t3iqp3
Yi4pHCoyvFCs/vvlti6lvhUO3IPsCm8lBqBjM6sTg3dzm24LrombyyWiau8gDEcH
CyeR3D3gBkywcZbBudHjLsU8ONefDbCP0S+k61Ud9sm9O36VJ/5EPrZrS1LU63Zo
9q+51yE4QP/vCw==
-----END CERTIFICATE-----
