Certificate:
    Data:
        Version: 3 (0x2)
        Serial Number: 268435610 (0x1000009a)
    Signature Algorithm: sha1WithRSAEncryption
        Issuer: C=DE, ST=Hessen, O=privacyidea, CN=CA001
        Validity
            Not Before: Jun 24 07:41:51 2015 GMT
            Not After : Jun 23 07:41:51 2016 GMT
        Subject: CN=Steve Test/emailAddress=steve@openssl.org
        Subject Public Key Info:
            Public Key Algorithm: rsaEncryption
                Public-Key: (2048 bit)
                Modulus:
                    00:d2:81:89:20:51:48:0f:73:f4:11:32:24:d5:1f:
                    1c:fd:5c:f5:b6:e6:c5:f0:52:81:dc:d2:af:66:4a:
                    7c:93:31:61:5c:af:d1:6d:06:70:03:60:7c:72:0c:
                    88:dd:49:cd:9e:02:6c:d2:5a:d7:53:0f:f3:da:be:
                    69:64:b5:0f:0c:00:e3:b3:50:47:a3:b3:9b:ba:13:
                    50:d6:58:5a:4b:ab:39:e0:11:ca:0a:27:67:03:78:
                    22:66:6d:92:1e:1b:5c:49:ae:e6:6b:d1:8e:3b:9d:
                    06:d3:c6:ac:4d:53:43:10:ab:e8:96:c1:87:82:97:
                    99:8f:20:d3:99:12:37:31:84:e1:8a:ff:29:03:5f:
                    22:90:3e:7f:9b:e0:20:c1:ad:dc:ae:4c:39:1a:31:
                    96:17:02:8c:b2:d9:b4:0d:20:12:9b:7d:86:54:fd:
                    33:fd:c1:2a:62:46:f8:60:96:cf:6e:01:6f:22:df:
                    13:47:e7:97:ec:05:72:23:a3:62:f8:fa:ef:ac:9c:
                    72:f0:37:cb:2f:37:cf:90:a8:27:51:86:c6:d7:78:
                    08:8f:7e:25:a2:15:70:a2:fb:1c:b6:15:5e:a0:97:
                    8b:81:4c:09:28:8a:27:3b:94:bc:71:db:5b:71:37:
                    9a:2b:16:e0:6f:b5:c9:f5:4b:4f:20:ba:65:cf:af:
                    ad:ad
                Exponent: 65537 (0x10001)
        X509v3 extensions:
            X509v3 Key Usage: 
                Digital Signature, Key Encipherment
            X509v3 Basic Constraints: 
                CA:FALSE
            Netscape Cert Type: 
                SSL Server
            Netscape Comment: 
                OpenSSL Generated Server Certificate
            X509v3 Subject Key Identifier: 
                E5:25:6D:3E:AF:0D:DD:3F:4C:F2:45:19:39:D5:14:DB:7E:9C:C0:AD
            X509v3 Authority Key Identifier: 
                keyid:F4:A7:C0:CC:91:46:AF:64:F3:91:F2:27:F8:C8:B2:6F:8A:87:32:73
                DirName:/C=DE/ST=Hessen/O=privacyidea/CN=CA001
                serial:FB:C8:EB:AC:83:CD:12:07

            X509v3 Extended Key Usage: 
                TLS Web Server Authentication
    Signature Algorithm: sha1WithRSAEncryption
         8b:c6:5f:20:e9:36:bb:fe:db:2b:a3:1f:56:74:a2:6d:a6:cd:
         fd:a1:ee:dc:64:22:31:f8:63:f0:fa:0d:1e:97:90:fe:06:07:
         c9:d6:31:dc:fe:ad:97:84:7d:b4:14:5c:7e:c1:13:5d:80:b3:
         58:5b:e7:1c:1a:35:d3:10:44:77:2b:99:f8:53:8f:cc:cc:e5:
         68:58:20:51:a8:f0:68:eb:b7:4a:31:e0:e1:31:32:bf:6d:ed:
         ee:73:72:4a:7e:96:d1:b4:ef:d1:06:05:e2:e7:cd:34:16:15:
         87:28:63:70:ec:bd:d3:d5:c9:62:30:39:27:86:0b:c3:9e:9c:
         12:96:6e:04:68:8a:fa:b3:9a:f2:77:dd:40:f5:c8:50:58:ac:
         33:12:40:3c:4e:d9:42:e7:66:c6:23:3f:86:d3:8e:9f:e2:e6:
         df:c8:9d:2e:90:15:80:5d:64:a6:17:16:57:2f:46:f1:71:bc:
         dc:f3:13:f6:df:7e:40:0d:5b:2a:e0:d4:de:98:29:94:9d:8d:
         d6:90:cc:3b:ef:54:4b:90:4a:ba:66:6a:cf:71:9c:5e:4e:da:
         ad:d0:60:9d:73:e3:d1:eb:be:fd:23:1c:9b:ef:87:84:db:26:
         43:94:6c:ff:55:61:b2:9d:d9:20:3d:58:1e:19:e5:d1:a7:d9:
         e4:3a:d9:fc
-----BEGIN CERTIFICATE-----
MIIECTCCAvGgAwIBAgIEEAAAmjANBgkqhkiG9w0BAQUFADBEMQswCQYDVQQGEwJE
RTEPMA0GA1UECAwGSGVzc2VuMRQwEgYDVQQKDAtwcml2YWN5aWRlYTEOMAwGA1UE
AwwFQ0EwMDEwHhcNMTUwNjI0MDc0MTUxWhcNMTYwNjIzMDc0MTUxWjA3MRMwEQYD
VQQDEwpTdGV2ZSBUZXN0MSAwHgYJKoZIhvcNAQkBFhFzdGV2ZUBvcGVuc3NsLm9y
ZzCCASIwDQYJKoZIhvcNAQEBBQADggEPADCCAQoCggEBANKBiSBRSA9z9BEyJNUf
HP1c9bbmxfBSgdzSr2ZKfJMxYVyv0W0GcANgfHIMiN1JzZ4CbNJa11MP89q+aWS1
DwwA47NQR6Ozm7oTUNZYWkurOeARygonZwN4ImZtkh4bXEmu5mvRjjudBtPGrE1T
QxCr6JbBh4KXmY8g05kSNzGE4Yr/KQNfIpA+f5vgIMGt3K5MORoxlhcCjLLZtA0g
Ept9hlT9M/3BKmJG+GCWz24BbyLfE0fnl+wFciOjYvj676yccvA3yy83z5CoJ1GG
xtd4CI9+JaIVcKL7HLYVXqCXi4FMCSiKJzuUvHHbW3E3misW4G+1yfVLTyC6Zc+v
ra0CAwEAAaOCAQ4wggEKMAsGA1UdDwQEAwIFoDAJBgNVHRMEAjAAMBEGCWCGSAGG
+EIBAQQEAwIGQDAzBglghkgBhvhCAQ0EJhYkT3BlblNTTCBHZW5lcmF0ZWQgU2Vy
dmVyIENlcnRpZmljYXRlMB0GA1UdDgQWBBTlJW0+rw3dP0zyRRk51RTbfpzArTB0
BgNVHSMEbTBrgBT0p8DMkUavZPOR8if4yLJviocyc6FIpEYwRDELMAkGA1UEBhMC
REUxDzANBgNVBAgMBkhlc3NlbjEUMBIGA1UECgwLcHJpdmFjeWlkZWExDjAMBgNV
BAMMBUNBMDAxggkA+8jrrIPNEgcwEwYDVR0lBAwwCgYIKwYBBQUHAwEwDQYJKoZI
hvcNAQEFBQADggEBAIvGXyDpNrv+2yujH1Z0om2mzf2h7txkIjH4Y/D6DR6XkP4G
B8nWMdz+rZeEfbQUXH7BE12As1hb5xwaNdMQRHcrmfhTj8zM5WhYIFGo8Gjrt0ox
4OExMr9t7e5zckp+ltG079EGBeLnzTQWFYcoY3DsvdPVyWIwOSeGC8OenBKWbgRo
ivqzmvJ33UD1yFBYrDMSQDxO2ULnZsYjP4bTjp/i5t/InS6QFYBdZKYXFlcvRvFx
vNzzE/bffkANWyrg1N6YKZSdjdaQzDvvVEuQSrpmas9xnF5O2q3QYJ1z49Hrvv0j
HJvvh4TbJkOUbP9VYbKd2SA9WB4Z5dGn2eQ62fw=
-----END CERTIFICATE-----
