Certificate:
    Data:
        Version: 3 (0x2)
        Serial Number: 268435622 (0x100000a6)
    Signature Algorithm: sha1WithRSAEncryption
        Issuer: C=DE, ST=Hessen, O=privacyidea, CN=CA001
        Validity
            Not Before: Jun 18 13:52:29 2015 GMT
            Not After : Jun 17 13:52:29 2016 GMT
        Subject: CN=admin,CN=admin,O=/emailAddress=meine
        Subject Public Key Info:
            Public Key Algorithm: rsaEncryption
                Public-Key: (2048 bit)
                Modulus:
                    00:ab:2e:3c:03:50:06:2f:a8:dd:92:1c:5e:8d:fd:
                    7a:6d:6b:c4:d6:11:34:ff:8e:2c:a8:4a:e0:87:86:
                    0d:14:ef:e4:c9:fd:dd:8d:17:7b:8e:6c:e4:60:59:
                    ff:c7:3e:45:ea:79:b5:69:84:4c:c8:6f:44:ec:72:
                    8a:7d:a8:ea:02:01:3a:8e:52:34:a1:28:e3:df:b1:
                    ea:cf:c1:01:df:04:06:0e:ca:7b:e7:4a:19:c1:6e:
                    9a:94:67:3a:e1:41:ce:b3:d7:68:fd:11:a5:9b:aa:
                    a5:8f:6d:ff:9d:14:4a:1b:2d:b5:42:6c:ec:1e:e3:
                    03:8c:d2:00:cf:ac:c9:65:1b:57:02:89:6f:b6:63:
                    93:da:f6:15:8b:5e:d0:1f:e0:ce:6d:17:37:32:74:
                    32:71:67:5a:42:4f:0a:4e:e3:31:bc:78:e1:c6:2f:
                    68:5a:4b:eb:68:70:d7:b3:1b:c7:28:ab:cf:82:88:
                    a4:1f:a8:ad:f0:fd:00:e3:e0:5c:e7:03:b8:7e:cd:
                    79:ab:b2:3f:77:58:68:ec:22:b1:d3:b8:23:4e:f0:
                    9a:97:df:bf:76:73:4e:81:e1:be:05:e7:04:9c:a9:
                    ac:f4:4d:4b:c7:92:a3:4c:32:45:a9:55:f6:da:77:
                    b8:ec:d4:9e:de:60:9a:c0:75:c7:5f:9c:41:e7:e9:
                    20:bb
                Exponent: 65537 (0x10001)
        X509v3 extensions:
            X509v3 Key Usage: 
                Digital Signature, Key Encipherment
            X509v3 Basic Constraints: 
                CA:FALSE
            Netscape Cert Type: 
                SSL Server
            Netscape Comment: 
                OpenSSL Generated Server Certificate
            X509v3 Subject Key Identifier: 
                DC:D9:50:A7:69:35:A0:D4:3E:32:DC:E0:B1:42:C3:F1:FF:25:CF:11
            X509v3 Authority Key Identifier: 
                keyid:F4:A7:C0:CC:91:46:AF:64:F3:91:F2:27:F8:C8:B2:6F:8A:87:32:73
                DirName:/C=DE/ST=Hessen/O=privacyidea/CN=CA001
                serial:FB:C8:EB:AC:83:CD:12:07

            X509v3 Extended Key Usage: 
                TLS Web Server Authentication
    Signature Algorithm: sha1WithRSAEncryption
         0f:f1:9c:97:f2:60:a9:0e:1a:99:c5:84:20:bd:81:b7:65:a7:
         8f:7f:64:5b:94:8c:4e:e9:9b:18:2f:63:c5:16:68:72:87:31:
         f8:fd:9e:42:d5:0c:a1:8e:3a:0f:07:16:cf:90:59:d7:50:7a:
         ee:c4:f8:13:a0:8b:64:70:1d:72:3a:87:51:4c:b9:3c:0d:03:
         da:cd:61:c5:9b:fc:f2:47:86:86:da:e7:c2:82:93:d8:b3:1c:
         1f:7a:56:65:31:39:22:8d:51:a4:7d:55:54:57:07:d5:b7:9a:
         46:78:ec:86:c3:ad:54:f4:b5:d3:52:76:ff:86:df:de:b2:2f:
         cf:6f:59:60:88:60:e3:22:6a:5d:6d:94:7d:3f:7b:b7:82:58:
         9b:41:fb:28:da:8f:e4:39:ea:7a:95:4a:fb:02:1c:e4:28:be:
         4e:6b:f6:72:97:1c:61:91:81:23:7d:c3:cc:3b:f2:39:95:31:
         dd:0a:42:f9:7e:0b:36:67:94:45:5a:08:cd:74:0c:c6:5f:ba:
         78:32:51:62:d5:7c:dc:7a:7a:bf:61:00:99:f6:63:5e:7f:b4:
         b9:15:77:57:ef:c4:3a:d1:41:37:a6:fd:92:34:0f:f8:8a:89:
         a6:ed:26:d2:34:87:33:ba:9b:63:34:93:1f:df:1e:ff:63:b9:
         67:c9:c3:d3
-----BEGIN CERTIFICATE-----
MIIEBDCCAuygAwIBAgIEEAAApjANBgkqhkiG9w0BAQUFADBEMQswCQYDVQQGEwJE
RTEPMA0GA1UECAwGSGVzc2VuMRQwEgYDVQQKDAtwcml2YWN5aWRlYTEOMAwGA1UE
AwwFQ0EwMDEwHhcNMTUwNjE4MTM1MjI5WhcNMTYwNjE3MTM1MjI5WjAyMRowGAYD
VQQDExFhZG1pbixDTj1hZG1pbixPPTEUMBIGCSqGSIb3DQEJARYFbWVpbmUwggEi
MA0GCSqGSIb3DQEBAQUAA4IBDwAwggEKAoIBAQCrLjwDUAYvqN2SHF6N/Xpta8TW
ETT/jiyoSuCHhg0U7+TJ/d2NF3uObORgWf/HPkXqebVphEzIb0Tscop9qOoCATqO
UjShKOPfserPwQHfBAYOynvnShnBbpqUZzrhQc6z12j9EaWbqqWPbf+dFEobLbVC
bOwe4wOM0gDPrMllG1cCiW+2Y5Pa9hWLXtAf4M5tFzcydDJxZ1pCTwpO4zG8eOHG
L2haS+tocNezG8coq8+CiKQfqK3w/QDj4FznA7h+zXmrsj93WGjsIrHTuCNO8JqX
3792c06B4b4F5wScqaz0TUvHkqNMMkWpVfbad7js1J7eYJrAdcdfnEHn6SC7AgMB
AAGjggEOMIIBCjALBgNVHQ8EBAMCBaAwCQYDVR0TBAIwADARBglghkgBhvhCAQEE
BAMCBkAwMwYJYIZIAYb4QgENBCYWJE9wZW5TU0wgR2VuZXJhdGVkIFNlcnZlciBD
ZXJ0aWZpY2F0ZTAdBgNVHQ4EFgQU3NlQp2k1oNQ+MtzgsULD8f8lzxEwdAYDVR0j
BG0wa4AU9KfAzJFGr2TzkfIn+Miyb4qHMnOhSKRGMEQxCzAJBgNVBAYTAkRFMQ8w
DQYDVQQIDAZIZXNzZW4xFDASBgNVBAoMC3ByaXZhY3lpZGVhMQ4wDAYDVQQDDAVD
QTAwMYIJAPvI66yDzRIHMBMGA1UdJQQMMAoGCCsGAQUFBwMBMA0GCSqGSIb3DQEB
BQUAA4IBAQAP8ZyX8mCpDhqZxYQgvYG3ZaePf2RblIxO6ZsYL2PFFmhyhzH4/Z5C
1QyhjjoPBxbPkFnXUHruxPgToItkcB1yOodRTLk8DQPazWHFm/zyR4aG2ufCgpPY
sxwfelZlMTkijVGkfVVUVwfVt5pGeOyGw61U9LXTUnb/ht/esi/Pb1lgiGDjImpd
bZR9P3u3glibQfso2o/kOep6lUr7AhzkKL5Oa/ZylxxhkYEjfcPMO/I5lTHdCkL5
fgs2Z5RFWgjNdAzGX7p4MlFi1Xzcenq/YQCZ9mNef7S5FXdX78Q60UE3pv2SNA/4
iomm7SbSNIczuptjNJMf3x7/Y7lnycPT
-----END CERTIFICATE-----
