Certificate:
    Data:
        Version: 3 (0x2)
        Serial Number: 268435628 (0x100000ac)
    Signature Algorithm: sha1WithRSAEncryption
        Issuer: C=DE, ST=Hessen, O=privacyidea, CN=CA001
        Validity
            Not Before: Jun 18 14:09:40 2015 GMT
            Not After : Jun 17 14:09:40 2016 GMT
        Subject: CN=admin,CN=admin,O=/emailAddress=meine
        Subject Public Key Info:
            Public Key Algorithm: rsaEncryption
                Public-Key: (2048 bit)
                Modulus:
                    00:c7:38:3c:f9:49:93:87:0e:19:b7:d7:03:04:92:
                    ba:9d:ad:05:1e:5d:71:f0:42:1a:15:29:aa:73:01:
                    89:96:7f:21:15:0e:60:d4:6f:80:e4:9b:54:d2:3e:
                    31:9a:6f:5a:ab:9e:83:87:4f:38:dd:8e:f9:49:a5:
                    77:e5:6b:52:a7:95:53:09:62:46:71:fe:52:a5:e2:
                    76:97:69:d6:2b:05:09:23:8e:9b:8f:87:1d:d4:86:
                    9a:d0:01:3c:72:67:7d:a2:b3:1e:d9:e5:db:f2:7a:
                    64:1f:43:9b:c0:7d:5d:ca:0d:90:e1:0f:dd:76:50:
                    10:82:1e:e9:bb:d1:ea:b6:37:a7:72:2b:26:f5:1a:
                    06:6d:e9:25:3d:00:5d:65:4e:44:4c:3f:94:1b:e5:
                    f8:6f:55:c1:ca:c2:8a:fc:a5:b7:c8:8b:7a:0f:5e:
                    a9:e2:86:ba:e9:60:60:32:32:84:ee:06:23:df:16:
                    60:21:1b:c5:7a:14:ca:bb:68:f0:7d:82:9f:6d:d7:
                    75:4f:4a:f3:57:1b:3c:3a:92:ad:df:88:94:eb:b4:
                    4b:0f:00:3d:45:7a:3d:3d:ec:ee:a0:3e:29:94:a0:
                    83:6c:0c:72:3d:fc:79:ee:b0:54:cb:ee:04:90:fc:
                    2f:db:10:a2:2a:4b:60:19:72:8b:52:ac:55:54:b8:
                    11:ad
                Exponent: 65537 (0x10001)
        X509v3 extensions:
            X509v3 Key Usage: 
                Digital Signature, Key Encipherment
            X509v3 Basic Constraints: 
                CA:FALSE
            Netscape Cert Type: 
                SSL Server
            Netscape Comment: 
                OpenSSL Generated Server Certificate
            X509v3 Subject Key Identifier: 
                A4:5A:C4:7F:55:F9:A1:22:DC:39:80:44:6E:B6:06:B1:0E:24:A6:24
            X509v3 Authority Key Identifier: 
                keyid:F4:A7:C0:CC:91:46:AF:64:F3:91:F2:27:F8:C8:B2:6F:8A:87:32:73
                DirName:/C=DE/ST=Hessen/O=privacyidea/CN=CA001
                serial:FB:C8:EB:AC:83:CD:12:07

            X509v3 Extended Key Usage: 
                TLS Web Server Authentication
    Signature Algorithm: sha1WithRSAEncryption
         7e:86:4d:55:9c:a8:26:f2:28:08:41:50:76:bf:7f:1b:82:1c:
         1f:fd:c2:a2:17:9e:11:34:a9:6f:a9:06:46:62:99:89:f3:3b:
         f6:3e:4c:d9:7d:9f:9e:c5:05:3a:eb:ed:79:de:5c:34:ea:fc:
         b8:5f:a3:8b:b6:50:c6:49:ae:d9:1d:4c:8d:0a:14:5f:ab:f4:
         97:45:c3:bd:f0:b5:3f:06:ed:81:c2:4b:83:80:ec:34:17:f3:
         19:65:62:7c:69:46:91:8e:b2:bf:64:c2:6e:7d:72:65:dc:b6:
         29:0f:23:a3:12:7d:46:0e:97:e3:66:3b:ea:de:d8:36:6c:e6:
         3b:77:03:af:67:65:59:70:2d:19:41:5d:91:74:ad:7c:5e:69:
         e9:56:03:e6:16:af:ef:04:42:ee:92:64:bf:c8:73:bb:20:39:
         3f:f1:2e:fc:41:31:c4:e0:a1:f1:47:2d:c7:64:0d:0c:1a:91:
         42:e7:1e:03:9a:3d:af:93:11:4d:d2:b4:3c:be:9b:1f:ac:85:
         67:59:71:47:a7:85:b9:37:8a:78:69:a2:d8:8d:8c:2f:d1:c8:
         7b:be:5f:47:3c:98:73:6d:e3:4f:9e:d2:09:71:e2:05:c1:2d:
         e9:7d:a0:fe:10:92:12:d0:55:ec:ed:9b:8b:f5:b1:0a:3c:67:
         c6:bf:81:79
-----BEGIN CERTIFICATE-----
MIIEBDCCAuygAwIBAgIEEAAArDANBgkqhkiG9w0BAQUFADBEMQswCQYDVQQGEwJE
RTEPMA0GA1UECAwGSGVzc2VuMRQwEgYDVQQKDAtwcml2YWN5aWRlYTEOMAwGA1UE
AwwFQ0EwMDEwHhcNMTUwNjE4MTQwOTQwWhcNMTYwNjE3MTQwOTQwWjAyMRowGAYD
VQQDExFhZG1pbixDTj1hZG1pbixPPTEUMBIGCSqGSIb3DQEJARYFbWVpbmUwggEi
MA0GCSqGSIb3DQEBAQUAA4IBDwAwggEKAoIBAQDHODz5SZOHDhm31wMEkrqdrQUe
XXHwQhoVKapzAYmWfyEVDmDUb4Dkm1TSPjGab1qrnoOHTzjdjvlJpXfla1KnlVMJ
YkZx/lKl4naXadYrBQkjjpuPhx3UhprQATxyZ32isx7Z5dvyemQfQ5vAfV3KDZDh
D912UBCCHum70eq2N6dyKyb1GgZt6SU9AF1lTkRMP5Qb5fhvVcHKwor8pbfIi3oP
XqnihrrpYGAyMoTuBiPfFmAhG8V6FMq7aPB9gp9t13VPSvNXGzw6kq3fiJTrtEsP
AD1Fej097O6gPimUoINsDHI9/HnusFTL7gSQ/C/bEKIqS2AZcotSrFVUuBGtAgMB
AAGjggEOMIIBCjALBgNVHQ8EBAMCBaAwCQYDVR0TBAIwADARBglghkgBhvhCAQEE
BAMCBkAwMwYJYIZIAYb4QgENBCYWJE9wZW5TU0wgR2VuZXJhdGVkIFNlcnZlciBD
ZXJ0aWZpY2F0ZTAdBgNVHQ4EFgQUpFrEf1X5oSLcOYBEbrYGsQ4kpiQwdAYDVR0j
BG0wa4AU9KfAzJFGr2TzkfIn+Miyb4qHMnOhSKRGMEQxCzAJBgNVBAYTAkRFMQ8w
DQYDVQQIDAZIZXNzZW4xFDASBgNVBAoMC3ByaXZhY3lpZGVhMQ4wDAYDVQQDDAVD
QTAwMYIJAPvI66yDzRIHMBMGA1UdJQQMMAoGCCsGAQUFBwMBMA0GCSqGSIb3DQEB
BQUAA4IBAQB+hk1VnKgm8igIQVB2v38bghwf/cKiF54RNKlvqQZGYpmJ8zv2PkzZ
fZ+exQU66+153lw06vy4X6OLtlDGSa7ZHUyNChRfq/SXRcO98LU/Bu2BwkuDgOw0
F/MZZWJ8aUaRjrK/ZMJufXJl3LYpDyOjEn1GDpfjZjvq3tg2bOY7dwOvZ2VZcC0Z
QV2RdK18XmnpVgPmFq/vBELukmS/yHO7IDk/8S78QTHE4KHxRy3HZA0MGpFC5x4D
mj2vkxFN0rQ8vpsfrIVnWXFHp4W5N4p4aaLYjYwv0ch7vl9HPJhzbeNPntIJceIF
wS3pfaD+EJIS0FXs7ZuL9bEKPGfGv4F5
-----END CERTIFICATE-----
