Certificate:
    Data:
        Version: 3 (0x2)
        Serial Number: 268435629 (0x100000ad)
    Signature Algorithm: sha1WithRSAEncryption
        Issuer: C=DE, ST=Hessen, O=privacyidea, CN=CA001
        Validity
            Not Before: Jun 18 14:10:36 2015 GMT
            Not After : Jun 17 14:10:36 2016 GMT
        Subject: CN=admin,CN=admin,O=/emailAddress=meine
        Subject Public Key Info:
            Public Key Algorithm: rsaEncryption
                Public-Key: (2048 bit)
                Modulus:
                    00:99:8d:17:a9:c2:e3:dd:0d:f6:82:b9:80:d4:fb:
                    ee:79:e9:fe:72:3c:4a:81:95:95:2a:61:43:98:36:
                    eb:e0:e7:c1:d6:58:1f:d9:50:e3:3b:85:a4:5a:d4:
                    e0:11:3f:6c:f5:f3:4d:8f:8a:23:f4:a7:db:48:27:
                    fb:aa:2d:79:b3:81:ae:6e:c1:f8:5d:c6:77:88:01:
                    49:77:22:62:55:a8:06:15:66:c9:51:fb:80:ce:b5:
                    95:0d:fe:8d:7a:7e:40:00:20:07:ad:32:b5:d3:05:
                    e3:5f:78:e8:13:9a:25:f0:10:dc:bd:34:e8:4f:11:
                    47:64:45:37:d6:84:2a:79:e0:dd:f5:f2:5a:02:6d:
                    03:a5:fd:46:87:89:67:35:0a:72:be:c8:d3:94:3a:
                    12:20:08:c6:d9:69:8a:d8:68:73:36:35:c5:30:92:
                    98:17:82:b5:94:ef:70:c9:bb:42:e2:db:62:53:9d:
                    33:d4:b1:5a:b3:8e:40:81:83:49:de:e8:79:92:30:
                    2c:ba:e9:7d:5c:37:04:38:93:db:89:fb:62:ab:cb:
                    4a:c7:20:2c:80:a9:16:cf:a7:60:b5:49:0e:fc:66:
                    0c:0f:34:ae:e4:5b:42:06:5b:45:a4:27:e8:d3:4d:
                    ee:32:a0:1a:51:bd:36:0c:62:54:e0:c0:ba:4e:e6:
                    95:3d
                Exponent: 65537 (0x10001)
        X509v3 extensions:
            X509v3 Key Usage: 
                Digital Signature, Key Encipherment
            X509v3 Basic Constraints: 
                CA:FALSE
            Netscape Cert Type: 
                SSL Server
            Netscape Comment: 
                OpenSSL Generated Server Certificate
            X509v3 Subject Key Identifier: 
                CB:6D:F0:7E:45:0A:14:8B:E6:A8:7F:57:CF:B5:07:5C:DA:6D:7B:5A
            X509v3 Authority Key Identifier: 
                keyid:F4:A7:C0:CC:91:46:AF:64:F3:91:F2:27:F8:C8:B2:6F:8A:87:32:73
                DirName:/C=DE/ST=Hessen/O=privacyidea/CN=CA001
                serial:FB:C8:EB:AC:83:CD:12:07

            X509v3 Extended Key Usage: 
                TLS Web Server Authentication
    Signature Algorithm: sha1WithRSAEncryption
         11:96:19:7e:42:69:56:d4:d3:02:e1:27:62:bd:f9:bc:a8:50:
         50:a6:e0:30:3a:bf:69:b6:3d:7b:d3:1c:dc:69:ce:94:3b:a8:
         4a:ba:93:ac:6d:95:b9:de:fe:ce:15:9e:c0:cc:ff:cb:78:8a:
         03:cc:25:f3:7f:e7:38:bf:3f:4f:de:f8:9a:0d:f7:99:1d:21:
         d8:18:cc:a5:17:e1:89:8a:e9:cc:bf:3d:29:8d:85:de:28:1e:
         d5:35:82:38:8f:1e:e1:71:48:9b:d0:0c:48:de:bf:67:aa:52:
         07:4d:8d:1f:ba:2c:9b:c6:ba:bc:29:8a:82:d0:2b:22:4b:01:
         58:07:1c:4d:30:3d:7d:73:89:94:ac:76:b2:53:a9:91:08:63:
         b8:74:ef:e6:29:46:76:e6:ad:3e:ce:85:e6:e1:4a:10:9a:6f:
         6c:c0:e5:dd:c2:0c:60:f5:fc:85:db:33:99:0d:ab:43:88:40:
         72:f7:9c:76:42:1f:7c:c8:95:d3:bd:bc:62:11:ff:4c:3b:b9:
         db:68:de:ae:1d:91:97:d8:65:c0:00:99:3c:49:34:44:68:f9:
         65:78:3c:a9:35:51:61:3c:74:f1:5f:17:ef:78:9c:33:8b:2b:
         8b:09:77:87:13:dc:3b:5e:92:31:51:a0:ec:ae:9e:16:9f:60:
         6d:46:14:67
-----BEGIN CERTIFICATE-----
MIIEBDCCAuygAwIBAgIEEAAArTANBgkqhkiG9w0BAQUFADBEMQswCQYDVQQGEwJE
RTEPMA0GA1UECAwGSGVzc2VuMRQwEgYDVQQKDAtwcml2YWN5aWRlYTEOMAwGA1UE
AwwFQ0EwMDEwHhcNMTUwNjE4MTQxMDM2WhcNMTYwNjE3MTQxMDM2WjAyMRowGAYD
VQQDExFhZG1pbixDTj1hZG1pbixPPTEUMBIGCSqGSIb3DQEJARYFbWVpbmUwggEi
MA0GCSqGSIb3DQEBAQUAA4IBDwAwggEKAoIBAQCZjRepwuPdDfaCuYDU++556f5y
PEqBlZUqYUOYNuvg58HWWB/ZUOM7haRa1OARP2z1802PiiP0p9tIJ/uqLXmzga5u
wfhdxneIAUl3ImJVqAYVZslR+4DOtZUN/o16fkAAIAetMrXTBeNfeOgTmiXwENy9
NOhPEUdkRTfWhCp54N318loCbQOl/UaHiWc1CnK+yNOUOhIgCMbZaYrYaHM2NcUw
kpgXgrWU73DJu0Li22JTnTPUsVqzjkCBg0ne6HmSMCy66X1cNwQ4k9uJ+2Kry0rH
ICyAqRbPp2C1SQ78ZgwPNK7kW0IGW0WkJ+jTTe4yoBpRvTYMYlTgwLpO5pU9AgMB
AAGjggEOMIIBCjALBgNVHQ8EBAMCBaAwCQYDVR0TBAIwADARBglghkgBhvhCAQEE
BAMCBkAwMwYJYIZIAYb4QgENBCYWJE9wZW5TU0wgR2VuZXJhdGVkIFNlcnZlciBD
ZXJ0aWZpY2F0ZTAdBgNVHQ4EFgQUy23wfkUKFIvmqH9Xz7UHXNpte1owdAYDVR0j
BG0wa4AU9KfAzJFGr2TzkfIn+Miyb4qHMnOhSKRGMEQxCzAJBgNVBAYTAkRFMQ8w
DQYDVQQIDAZIZXNzZW4xFDASBgNVBAoMC3ByaXZhY3lpZGVhMQ4wDAYDVQQDDAVD
QTAwMYIJAPvI66yDzRIHMBMGA1UdJQQMMAoGCCsGAQUFBwMBMA0GCSqGSIb3DQEB
BQUAA4IBAQARlhl+QmlW1NMC4Sdivfm8qFBQpuAwOr9ptj170xzcac6UO6hKupOs
bZW53v7OFZ7AzP/LeIoDzCXzf+c4vz9P3viaDfeZHSHYGMylF+GJiunMvz0pjYXe
KB7VNYI4jx7hcUib0AxI3r9nqlIHTY0fuiybxrq8KYqC0CsiSwFYBxxNMD19c4mU
rHayU6mRCGO4dO/mKUZ25q0+zoXm4UoQmm9swOXdwgxg9fyF2zOZDatDiEBy95x2
Qh98yJXTvbxiEf9MO7nbaN6uHZGX2GXAAJk8STREaPlleDypNVFhPHTxXxfveJwz
iyuLCXeHE9w7XpIxUaDsrp4Wn2BtRhRn
-----END CERTIFICATE-----
