Certificate:
    Data:
        Version: 3 (0x2)
        Serial Number: 268435627 (0x100000ab)
    Signature Algorithm: sha1WithRSAEncryption
        Issuer: C=DE, ST=Hessen, O=privacyidea, CN=CA001
        Validity
            Not Before: Jun 18 14:07:52 2015 GMT
            Not After : Jun 17 14:07:52 2016 GMT
        Subject: CN=admin,CN=admin,O=/emailAddress=meine
        Subject Public Key Info:
            Public Key Algorithm: rsaEncryption
                Public-Key: (2048 bit)
                Modulus:
                    00:9d:64:1a:d8:5b:c2:b3:91:c5:20:09:53:bd:77:
                    af:fd:f8:54:e0:ac:62:3c:24:5b:ab:c8:18:2c:ba:
                    4f:ea:03:6a:74:44:f3:04:c1:d7:5b:3c:71:9c:2b:
                    6f:c9:38:29:73:6c:41:e3:84:81:0f:60:d0:fd:7b:
                    27:12:a6:c9:11:e7:1d:a0:b9:59:8c:56:a0:85:14:
                    80:aa:8b:9f:87:56:67:e8:ae:47:c2:4d:7c:4e:7b:
                    c2:78:f5:bb:6c:f2:7d:ce:dc:43:ae:74:f4:cb:89:
                    40:2c:53:a9:b0:60:ac:12:f4:37:6e:9a:6b:23:88:
                    3a:93:a3:f1:19:2e:56:06:bb:bd:c4:3a:61:3f:94:
                    3a:88:2e:cd:2b:15:1f:59:40:aa:da:6d:37:f9:89:
                    67:ed:b4:bd:65:31:52:4f:46:fe:b9:8c:eb:a6:e2:
                    8c:ba:44:b9:75:12:56:55:76:df:7c:6c:5d:26:e6:
                    ed:3e:ee:ed:b1:5f:12:39:84:ce:de:9c:b2:d5:be:
                    a3:f7:e4:44:24:a0:ef:79:ee:65:47:e7:3c:98:dd:
                    3e:7b:bb:2d:09:14:85:3c:2f:ca:ff:4c:ac:c5:b8:
                    fe:9f:c1:b2:6d:c6:bc:8d:a0:ca:03:09:2d:c7:0f:
                    58:9c:08:ad:ac:c7:aa:20:d6:7d:72:bc:2f:2d:61:
                    82:5f
                Exponent: 65537 (0x10001)
        X509v3 extensions:
            X509v3 Key Usage: 
                Digital Signature, Key Encipherment
            X509v3 Basic Constraints: 
                CA:FALSE
            Netscape Cert Type: 
                SSL Server
            Netscape Comment: 
                OpenSSL Generated Server Certificate
            X509v3 Subject Key Identifier: 
                C9:0F:7A:F8:EF:5C:53:DC:6D:34:C4:E0:C0:76:ED:B2:2E:47:90:F3
            X509v3 Authority Key Identifier: 
                keyid:F4:A7:C0:CC:91:46:AF:64:F3:91:F2:27:F8:C8:B2:6F:8A:87:32:73
                DirName:/C=DE/ST=Hessen/O=privacyidea/CN=CA001
                serial:FB:C8:EB:AC:83:CD:12:07

            X509v3 Extended Key Usage: 
                TLS Web Server Authentication
    Signature Algorithm: sha1WithRSAEncryption
         16:d7:e8:fe:9e:6d:cd:43:85:c0:00:42:26:72:3e:26:9b:52:
         ea:b1:0a:35:0d:90:eb:37:4c:0d:06:2a:0b:73:c4:42:ab:63:
         36:61:a0:56:df:16:33:d1:53:04:c3:a8:ce:1d:21:26:eb:8c:
         66:77:52:53:ae:95:17:b8:b4:2b:b7:98:65:31:e8:4b:cc:87:
         57:ef:75:6a:a2:1b:76:ef:7a:15:24:67:f5:8a:6a:be:6a:c7:
         96:e1:cb:56:fe:98:eb:fe:28:9e:cb:47:85:fe:d3:e7:7b:45:
         e9:53:bb:5a:8e:65:e7:89:25:a6:88:19:24:0f:c7:5f:67:79:
         fe:ef:a8:03:3e:d1:93:3c:7d:d7:b4:99:bf:3d:aa:fd:e9:fd:
         54:48:5b:2d:65:54:6e:46:06:c9:65:88:31:64:e1:d3:e7:be:
         24:68:fa:fd:70:db:4a:d5:59:b9:e4:1b:9e:b5:55:d1:ec:08:
         c8:87:44:4a:d5:49:00:c5:88:6f:55:b0:de:7a:f4:09:b9:66:
         fe:05:98:d9:0c:f5:0e:3a:ba:78:ce:07:17:46:47:e6:84:5e:
         88:51:3f:bd:fd:f4:a4:e7:b9:93:25:01:b0:4b:2d:1b:5b:32:
         07:5c:d1:e4:8e:a3:23:9a:5a:df:42:9e:3e:fa:44:ad:16:05:
         20:40:32:6c
-----BEGIN CERTIFICATE-----
MIIEBDCCAuygAwIBAgIEEAAAqzANBgkqhkiG9w0BAQUFADBEMQswCQYDVQQGEwJE
RTEPMA0GA1UECAwGSGVzc2VuMRQwEgYDVQQKDAtwcml2YWN5aWRlYTEOMAwGA1UE
AwwFQ0EwMDEwHhcNMTUwNjE4MTQwNzUyWhcNMTYwNjE3MTQwNzUyWjAyMRowGAYD
VQQDExFhZG1pbixDTj1hZG1pbixPPTEUMBIGCSqGSIb3DQEJARYFbWVpbmUwggEi
MA0GCSqGSIb3DQEBAQUAA4IBDwAwggEKAoIBAQCdZBrYW8KzkcUgCVO9d6/9+FTg
rGI8JFuryBgsuk/qA2p0RPMEwddbPHGcK2/JOClzbEHjhIEPYND9eycSpskR5x2g
uVmMVqCFFICqi5+HVmforkfCTXxOe8J49bts8n3O3EOudPTLiUAsU6mwYKwS9Ddu
mmsjiDqTo/EZLlYGu73EOmE/lDqILs0rFR9ZQKrabTf5iWfttL1lMVJPRv65jOum
4oy6RLl1ElZVdt98bF0m5u0+7u2xXxI5hM7enLLVvqP35EQkoO957mVH5zyY3T57
uy0JFIU8L8r/TKzFuP6fwbJtxryNoMoDCS3HD1icCK2sx6og1n1yvC8tYYJfAgMB
AAGjggEOMIIBCjALBgNVHQ8EBAMCBaAwCQYDVR0TBAIwADARBglghkgBhvhCAQEE
BAMCBkAwMwYJYIZIAYb4QgENBCYWJE9wZW5TU0wgR2VuZXJhdGVkIFNlcnZlciBD
ZXJ0aWZpY2F0ZTAdBgNVHQ4EFgQUyQ96+O9cU9xtNMTgwHbtsi5HkPMwdAYDVR0j
BG0wa4AU9KfAzJFGr2TzkfIn+Miyb4qHMnOhSKRGMEQxCzAJBgNVBAYTAkRFMQ8w
DQYDVQQIDAZIZXNzZW4xFDASBgNVBAoMC3ByaXZhY3lpZGVhMQ4wDAYDVQQDDAVD
QTAwMYIJAPvI66yDzRIHMBMGA1UdJQQMMAoGCCsGAQUFBwMBMA0GCSqGSIb3DQEB
BQUAA4IBAQAW1+j+nm3NQ4XAAEImcj4mm1LqsQo1DZDrN0wNBioLc8RCq2M2YaBW
3xYz0VMEw6jOHSEm64xmd1JTrpUXuLQrt5hlMehLzIdX73Vqoht273oVJGf1imq+
aseW4ctW/pjr/iiey0eF/tPne0XpU7tajmXniSWmiBkkD8dfZ3n+76gDPtGTPH3X
tJm/Par96f1USFstZVRuRgbJZYgxZOHT574kaPr9cNtK1Vm55BuetVXR7AjIh0RK
1UkAxYhvVbDeevQJuWb+BZjZDPUOOrp4zgcXRkfmhF6IUT+9/fSk57mTJQGwSy0b
WzIHXNHkjqMjmlrfQp4++kStFgUgQDJs
-----END CERTIFICATE-----
