Certificate:
    Data:
        Version: 3 (0x2)
        Serial Number: 268435623 (0x100000a7)
    Signature Algorithm: sha1WithRSAEncryption
        Issuer: C=DE, ST=Hessen, O=privacyidea, CN=CA001
        Validity
            Not Before: Jun 18 13:52:39 2015 GMT
            Not After : Jun 17 13:52:39 2016 GMT
        Subject: CN=admin,CN=admin,O=/emailAddress=meine
        Subject Public Key Info:
            Public Key Algorithm: rsaEncryption
                Public-Key: (2048 bit)
                Modulus:
                    00:aa:b9:e1:ed:b7:ee:3e:c2:73:d4:ac:80:8c:e0:
                    3b:e3:cd:05:e2:1c:68:83:28:1f:ab:a4:c7:0a:77:
                    fb:33:85:5e:bf:84:9a:c7:6f:db:2d:a7:07:d9:23:
                    02:10:48:35:4c:47:aa:51:74:7c:a5:31:f8:2f:94:
                    f1:41:e2:e1:e5:f1:cf:99:37:d1:e4:65:70:f1:4d:
                    4e:68:7c:42:29:4f:05:fa:77:f4:55:6e:d4:12:1a:
                    11:60:a1:f7:fb:59:ce:e1:ee:40:58:81:56:87:81:
                    74:ff:a6:c9:15:47:01:ce:ee:52:8e:a1:0b:2c:bc:
                    68:e6:d6:b8:b7:37:39:7d:df:21:f0:2c:41:0b:35:
                    f6:38:2b:3d:e8:ca:d0:5f:fd:4f:6d:4c:a1:b0:39:
                    2e:2e:ff:ef:e4:75:fa:6b:4b:35:f0:4e:4a:70:44:
                    fb:2d:96:84:cc:3c:39:31:e6:0a:2a:9a:da:a5:83:
                    88:20:a9:b2:47:e9:14:1f:65:36:b1:a0:1e:ec:a0:
                    9d:66:d7:3e:9a:56:12:97:61:22:9f:86:2b:e8:31:
                    d4:88:d5:6f:55:0d:07:3f:12:a8:06:32:f5:9d:44:
                    d2:25:7d:26:7f:ba:f8:ab:8a:e0:de:bc:76:4e:44:
                    39:94:c1:4f:2a:58:bd:f8:6f:b0:35:d8:a9:24:52:
                    59:29
                Exponent: 65537 (0x10001)
        X509v3 extensions:
            X509v3 Key Usage: 
                Digital Signature, Key Encipherment
            X509v3 Basic Constraints: 
                CA:FALSE
            Netscape Cert Type: 
                SSL Server
            Netscape Comment: 
                OpenSSL Generated Server Certificate
            X509v3 Subject Key Identifier: 
                3C:D9:B1:C3:51:E4:6A:E8:20:6C:B0:0D:DF:A2:88:FA:AA:46:F1:F9
            X509v3 Authority Key Identifier: 
                keyid:F4:A7:C0:CC:91:46:AF:64:F3:91:F2:27:F8:C8:B2:6F:8A:87:32:73
                DirName:/C=DE/ST=Hessen/O=privacyidea/CN=CA001
                serial:FB:C8:EB:AC:83:CD:12:07

            X509v3 Extended Key Usage: 
                TLS Web Server Authentication
    Signature Algorithm: sha1WithRSAEncryption
         25:15:5c:5e:2c:99:33:6d:13:a2:a1:ea:ee:7a:71:58:9a:fb:
         89:57:84:3f:25:5e:11:a4:22:ca:85:ad:82:62:60:93:7c:89:
         91:45:54:a6:9a:82:02:24:65:4c:07:ca:77:44:eb:3a:6e:87:
         9e:42:a5:69:cc:9d:39:7a:52:73:f7:a3:69:b7:aa:e1:91:8e:
         95:44:83:b6:5d:d3:68:24:3c:de:34:d8:88:11:b1:2f:eb:34:
         2c:4c:c2:a2:ec:59:06:81:ac:d1:71:99:2d:ba:d3:3c:48:07:
         c1:ac:7e:56:e4:dc:d7:49:46:99:49:5d:60:8e:5d:e2:36:3f:
         80:be:54:fa:81:6c:72:af:18:e4:8e:34:25:12:6a:d8:83:b7:
         8d:eb:f8:ba:e4:54:d1:8d:75:ba:b5:4c:a5:46:a5:55:3a:b2:
         f1:65:48:5d:16:2d:86:4d:0f:f2:15:9d:b9:e4:f6:9b:d4:28:
         e3:9b:d0:50:06:c1:08:94:41:14:c1:e6:00:d7:39:5c:db:5a:
         c8:e3:18:53:5b:bb:d4:fb:b5:34:53:99:8b:0a:58:25:e3:5b:
         59:21:a0:49:86:ae:93:c8:5e:3d:aa:12:d8:92:04:f1:8a:47:
         c9:66:e5:86:15:f4:d2:39:a3:86:6a:de:c9:5d:56:18:5e:14:
         cd:42:11:8f
-----BEGIN CERTIFICATE-----
MIIEBDCCAuygAwIBAgIEEAAApzANBgkqhkiG9w0BAQUFADBEMQswCQYDVQQGEwJE
RTEPMA0GA1UECAwGSGVzc2VuMRQwEgYDVQQKDAtwcml2YWN5aWRlYTEOMAwGA1UE
AwwFQ0EwMDEwHhcNMTUwNjE4MTM1MjM5WhcNMTYwNjE3MTM1MjM5WjAyMRowGAYD
VQQDExFhZG1pbixDTj1hZG1pbixPPTEUMBIGCSqGSIb3DQEJARYFbWVpbmUwggEi
MA0GCSqGSIb3DQEBAQUAA4IBDwAwggEKAoIBAQCqueHtt+4+wnPUrICM4DvjzQXi
HGiDKB+rpMcKd/szhV6/hJrHb9stpwfZIwIQSDVMR6pRdHylMfgvlPFB4uHl8c+Z
N9HkZXDxTU5ofEIpTwX6d/RVbtQSGhFgoff7Wc7h7kBYgVaHgXT/pskVRwHO7lKO
oQssvGjm1ri3Nzl93yHwLEELNfY4Kz3oytBf/U9tTKGwOS4u/+/kdfprSzXwTkpw
RPstloTMPDkx5goqmtqlg4ggqbJH6RQfZTaxoB7soJ1m1z6aVhKXYSKfhivoMdSI
1W9VDQc/EqgGMvWdRNIlfSZ/uviriuDevHZORDmUwU8qWL34b7A12KkkUlkpAgMB
AAGjggEOMIIBCjALBgNVHQ8EBAMCBaAwCQYDVR0TBAIwADARBglghkgBhvhCAQEE
BAMCBkAwMwYJYIZIAYb4QgENBCYWJE9wZW5TU0wgR2VuZXJhdGVkIFNlcnZlciBD
ZXJ0aWZpY2F0ZTAdBgNVHQ4EFgQUPNmxw1HkauggbLAN36KI+qpG8fkwdAYDVR0j
BG0wa4AU9KfAzJFGr2TzkfIn+Miyb4qHMnOhSKRGMEQxCzAJBgNVBAYTAkRFMQ8w
DQYDVQQIDAZIZXNzZW4xFDASBgNVBAoMC3ByaXZhY3lpZGVhMQ4wDAYDVQQDDAVD
QTAwMYIJAPvI66yDzRIHMBMGA1UdJQQMMAoGCCsGAQUFBwMBMA0GCSqGSIb3DQEB
BQUAA4IBAQAlFVxeLJkzbROioeruenFYmvuJV4Q/JV4RpCLKha2CYmCTfImRRVSm
moICJGVMB8p3ROs6boeeQqVpzJ05elJz96Npt6rhkY6VRIO2XdNoJDzeNNiIEbEv
6zQsTMKi7FkGgazRcZktutM8SAfBrH5W5NzXSUaZSV1gjl3iNj+AvlT6gWxyrxjk
jjQlEmrYg7eN6/i65FTRjXW6tUylRqVVOrLxZUhdFi2GTQ/yFZ255Pab1Cjjm9BQ
BsEIlEEUweYA1zlc21rI4xhTW7vU+7U0U5mLClgl41tZIaBJhq6TyF49qhLYkgTx
ikfJZuWGFfTSOaOGat7JXVYYXhTNQhGP
-----END CERTIFICATE-----
