Certificate:
    Data:
        Version: 3 (0x2)
        Serial Number: 268435613 (0x1000009d)
    Signature Algorithm: sha1WithRSAEncryption
        Issuer: C=DE, ST=Hessen, O=privacyidea, CN=CA001
        Validity
            Not Before: Jun 19 09:06:07 2015 GMT
            Not After : Jun 18 09:06:07 2016 GMT
        Subject: CN=Steve Test/emailAddress=steve@openssl.org
        Subject Public Key Info:
            Public Key Algorithm: rsaEncryption
                Public-Key: (2048 bit)
                Modulus:
                    00:d2:81:89:20:51:48:0f:73:f4:11:32:24:d5:1f:
                    1c:fd:5c:f5:b6:e6:c5:f0:52:81:dc:d2:af:66:4a:
                    7c:93:31:61:5c:af:d1:6d:06:70:03:60:7c:72:0c:
                    88:dd:49:cd:9e:02:6c:d2:5a:d7:53:0f:f3:da:be:
                    69:64:b5:0f:0c:00:e3:b3:50:47:a3:b3:9b:ba:13:
                    50:d6:58:5a:4b:ab:39:e0:11:ca:0a:27:67:03:78:
                    22:66:6d:92:1e:1b:5c:49:ae:e6:6b:d1:8e:3b:9d:
                    06:d3:c6:ac:4d:53:43:10:ab:e8:96:c1:87:82:97:
                    99:8f:20:d3:99:12:37:31:84:e1:8a:ff:29:03:5f:
                    22:90:3e:7f:9b:e0:20:c1:ad:dc:ae:4c:39:1a:31:
                    96:17:02:8c:b2:d9:b4:0d:20:12:9b:7d:86:54:fd:
                    33:fd:c1:2a:62:46:f8:60:96:cf:6e:01:6f:22:df:
                    13:47:e7:97:ec:05:72:23:a3:62:f8:fa:ef:ac:9c:
                    72:f0:37:cb:2f:37:cf:90:a8:27:51:86:c6:d7:78:
                    08:8f:7e:25:a2:15:70:a2:fb:1c:b6:15:5e:a0:97:
                    8b:81:4c:09:28:8a:27:3b:94:bc:71:db:5b:71:37:
                    9a:2b:16:e0:6f:b5:c9:f5:4b:4f:20:ba:65:cf:af:
                    ad:ad
                Exponent: 65537 (0x10001)
        X509v3 extensions:
            X509v3 Key Usage: 
                Digital Signature, Key Encipherment
            X509v3 Basic Constraints: 
                CA:FALSE
            Netscape Cert Type: 
                SSL Server
            Netscape Comment: 
                OpenSSL Generated Server Certificate
            X509v3 Subject Key Identifier: 
                E5:25:6D:3E:AF:0D:DD:3F:4C:F2:45:19:39:D5:14:DB:7E:9C:C0:AD
            X509v3 Authority Key Identifier: 
                keyid:F4:A7:C0:CC:91:46:AF:64:F3:91:F2:27:F8:C8:B2:6F:8A:87:32:73
                DirName:/C=DE/ST=Hessen/O=privacyidea/CN=CA001
                serial:FB:C8:EB:AC:83:CD:12:07

            X509v3 Extended Key Usage: 
                TLS Web Server Authentication
    Signature Algorithm: sha1WithRSAEncryption
         86:bb:fc:41:c5:77:f5:36:52:9f:8d:0a:55:2f:42:7d:ae:92:
         41:7c:09:15:9d:be:0c:0d:8a:0f:17:98:33:3f:41:3f:aa:87:
         65:36:0d:da:c6:92:9a:fd:de:41:0c:2f:0a:3b:d8:da:36:de:
         42:bf:0e:f6:57:b3:15:97:c6:c6:37:e7:6e:2a:22:9a:ee:b0:
         c8:3c:04:dc:16:45:7b:f0:cd:f1:3a:c2:2d:be:48:55:07:77:
         ad:06:69:1a:c3:0e:c7:2d:2c:31:0c:2a:13:cf:d5:00:5d:85:
         02:5a:f0:4e:0c:18:3c:08:5e:4a:bb:b6:60:0a:89:f0:59:94:
         c7:ac:88:11:3a:3a:02:70:b7:a7:3a:8c:0f:bf:d3:88:d8:5f:
         3e:0c:03:d8:ac:41:52:1c:33:67:a2:34:f9:4c:a7:25:0e:2f:
         ae:aa:d1:d4:9f:58:d7:6f:5c:de:61:3b:ee:3b:c3:f6:1c:bc:
         7d:97:2e:8d:e9:93:94:9d:26:92:97:52:dc:db:1d:34:43:b6:
         42:fc:5c:8c:10:42:ef:9b:75:e7:95:ae:6e:7d:77:01:5e:8c:
         1b:b7:48:db:ab:03:38:1c:cc:18:cd:a4:dd:78:dd:c2:d8:ff:
         67:e9:e6:00:a3:07:ce:d2:96:00:d4:a4:0b:ec:fd:b0:e8:2c:
         f2:99:8d:47
-----BEGIN CERTIFICATE-----
MIIECTCCAvGgAwIBAgIEEAAAnTANBgkqhkiG9w0BAQUFADBEMQswCQYDVQQGEwJE
RTEPMA0GA1UECAwGSGVzc2VuMRQwEgYDVQQKDAtwcml2YWN5aWRlYTEOMAwGA1UE
AwwFQ0EwMDEwHhcNMTUwNjE5MDkwNjA3WhcNMTYwNjE4MDkwNjA3WjA3MRMwEQYD
VQQDEwpTdGV2ZSBUZXN0MSAwHgYJKoZIhvcNAQkBFhFzdGV2ZUBvcGVuc3NsLm9y
ZzCCASIwDQYJKoZIhvcNAQEBBQADggEPADCCAQoCggEBANKBiSBRSA9z9BEyJNUf
HP1c9bbmxfBSgdzSr2ZKfJMxYVyv0W0GcANgfHIMiN1JzZ4CbNJa11MP89q+aWS1
DwwA47NQR6Ozm7oTUNZYWkurOeARygonZwN4ImZtkh4bXEmu5mvRjjudBtPGrE1T
QxCr6JbBh4KXmY8g05kSNzGE4Yr/KQNfIpA+f5vgIMGt3K5MORoxlhcCjLLZtA0g
Ept9hlT9M/3BKmJG+GCWz24BbyLfE0fnl+wFciOjYvj676yccvA3yy83z5CoJ1GG
xtd4CI9+JaIVcKL7HLYVXqCXi4FMCSiKJzuUvHHbW3E3misW4G+1yfVLTyC6Zc+v
ra0CAwEAAaOCAQ4wggEKMAsGA1UdDwQEAwIFoDAJBgNVHRMEAjAAMBEGCWCGSAGG
+EIBAQQEAwIGQDAzBglghkgBhvhCAQ0EJhYkT3BlblNTTCBHZW5lcmF0ZWQgU2Vy
dmVyIENlcnRpZmljYXRlMB0GA1UdDgQWBBTlJW0+rw3dP0zyRRk51RTbfpzArTB0
BgNVHSMEbTBrgBT0p8DMkUavZPOR8if4yLJviocyc6FIpEYwRDELMAkGA1UEBhMC
REUxDzANBgNVBAgMBkhlc3NlbjEUMBIGA1UECgwLcHJpdmFjeWlkZWExDjAMBgNV
BAMMBUNBMDAxggkA+8jrrIPNEgcwEwYDVR0lBAwwCgYIKwYBBQUHAwEwDQYJKoZI
hvcNAQEFBQADggEBAIa7/EHFd/U2Up+NClUvQn2ukkF8CRWdvgwNig8XmDM/QT+q
h2U2DdrGkpr93kEMLwo72No23kK/DvZXsxWXxsY3524qIprusMg8BNwWRXvwzfE6
wi2+SFUHd60GaRrDDsctLDEMKhPP1QBdhQJa8E4MGDwIXkq7tmAKifBZlMesiBE6
OgJwt6c6jA+/04jYXz4MA9isQVIcM2eiNPlMpyUOL66q0dSfWNdvXN5hO+47w/Yc
vH2XLo3pk5SdJpKXUtzbHTRDtkL8XIwQQu+bdeeVrm59dwFejBu3SNurAzgczBjN
pN143cLY/2fp5gCjB87SlgDUpAvs/bDoLPKZjUc=
-----END CERTIFICATE-----
