Certificate:
    Data:
        Version: 3 (0x2)
        Serial Number: 268435616 (0x100000a0)
    Signature Algorithm: sha1WithRSAEncryption
        Issuer: C=DE, ST=Hessen, O=privacyidea, CN=CA001
        Validity
            Not Before: Jun 18 13:38:22 2015 GMT
            Not After : Jun 17 13:38:22 2016 GMT
        Subject: CN=admin,CN=admin,O=/emailAddress=meine
        Subject Public Key Info:
            Public Key Algorithm: rsaEncryption
                Public-Key: (2048 bit)
                Modulus:
                    00:b4:46:cd:7c:ce:52:38:1f:78:4a:4e:5c:48:e8:
                    ab:34:b6:47:18:18:3c:4d:54:17:54:86:72:ac:1b:
                    1f:62:f4:18:26:68:77:64:94:65:f7:93:02:8d:48:
                    f1:ae:97:cb:49:ed:1a:2b:ce:fa:72:57:96:55:a6:
                    2a:d2:e6:31:16:72:8a:ad:cc:7a:7a:0d:68:3f:9f:
                    4a:a9:53:97:91:81:bc:72:10:76:6e:df:57:0d:ce:
                    93:2a:97:12:ef:b5:a6:79:eb:34:72:3c:3d:0b:07:
                    d9:f0:00:9a:64:fb:76:02:bf:34:ec:b3:b5:e2:08:
                    71:fe:7b:f0:cf:0e:c4:4b:61:b9:29:cc:b5:11:f9:
                    e1:0c:59:20:d4:22:30:69:99:2e:c1:f8:4b:95:00:
                    29:2c:00:a1:36:bf:7f:fe:33:2f:37:0f:60:4e:69:
                    83:e6:c5:35:57:04:17:34:84:1f:40:3c:4d:18:6b:
                    fe:92:05:b0:7f:86:07:65:92:9c:9e:75:20:8c:b1:
                    b3:03:65:23:eb:8b:9b:1e:0e:72:73:0c:a6:af:f4:
                    f0:ae:1b:0b:c7:86:48:f2:ed:ee:6b:57:3b:49:42:
                    56:e8:57:d3:2f:04:08:37:65:85:49:34:b3:3b:6f:
                    e2:93:21:85:e2:f5:f1:b5:b7:a4:8e:32:6c:4b:3d:
                    cb:bb
                Exponent: 65537 (0x10001)
        X509v3 extensions:
            X509v3 Key Usage: 
                Digital Signature, Key Encipherment
            X509v3 Basic Constraints: 
                CA:FALSE
            Netscape Cert Type: 
                SSL Server
            Netscape Comment: 
                OpenSSL Generated Server Certificate
            X509v3 Subject Key Identifier: 
                D0:B4:EB:A3:96:41:9D:B5:F9:7C:0D:C0:D0:2B:78:FC:F7:17:AD:F4
            X509v3 Authority Key Identifier: 
                keyid:F4:A7:C0:CC:91:46:AF:64:F3:91:F2:27:F8:C8:B2:6F:8A:87:32:73
                DirName:/C=DE/ST=Hessen/O=privacyidea/CN=CA001
                serial:FB:C8:EB:AC:83:CD:12:07

            X509v3 Extended Key Usage: 
                TLS Web Server Authentication
    Signature Algorithm: sha1WithRSAEncryption
         41:b4:bf:62:00:aa:4d:26:b5:ab:a6:c3:9f:c0:df:bc:bd:45:
         a7:1e:73:20:e7:b5:eb:37:5c:a7:fb:50:26:1a:fd:9f:12:55:
         f0:18:ff:9f:1f:6c:dc:7e:46:7f:3a:86:0d:bd:e0:09:1e:39:
         b5:60:8e:b3:d9:32:34:9e:be:af:01:83:71:56:2b:05:c5:91:
         a7:a8:bc:e5:12:dc:e3:23:c6:f8:23:40:01:68:62:39:57:b8:
         95:52:92:92:a3:01:eb:2d:4e:2c:ba:51:2d:5c:a5:5b:e4:4d:
         44:b0:e0:c5:31:3d:5e:30:55:8b:68:39:8d:71:c4:74:27:18:
         36:0e:ce:ba:ac:ec:8c:54:09:71:9f:6f:b9:91:4b:76:b6:7d:
         3e:e5:7b:80:f9:a7:f1:cb:d8:f5:6f:69:67:67:da:a2:54:d3:
         79:26:17:1a:43:e8:d3:4a:54:15:51:ce:52:a5:49:b8:cb:f7:
         28:d6:65:09:a4:a4:cb:23:49:5c:5f:6b:e1:bc:1a:e7:19:af:
         d4:c2:bc:34:19:97:7e:30:d8:8a:6d:a7:81:e5:a1:c4:bb:ee:
         3e:58:ee:12:ae:1b:b1:7f:9e:05:d9:b4:e3:25:75:a5:f6:5a:
         17:fc:15:fe:40:1d:37:7f:b7:93:cf:fd:0f:1c:02:a8:66:74:
         37:e7:09:8d
-----BEGIN CERTIFICATE-----
MIIEBDCCAuygAwIBAgIEEAAAoDANBgkqhkiG9w0BAQUFADBEMQswCQYDVQQGEwJE
RTEPMA0GA1UECAwGSGVzc2VuMRQwEgYDVQQKDAtwcml2YWN5aWRlYTEOMAwGA1UE
AwwFQ0EwMDEwHhcNMTUwNjE4MTMzODIyWhcNMTYwNjE3MTMzODIyWjAyMRowGAYD
VQQDExFhZG1pbixDTj1hZG1pbixPPTEUMBIGCSqGSIb3DQEJARYFbWVpbmUwggEi
MA0GCSqGSIb3DQEBAQUAA4IBDwAwggEKAoIBAQC0Rs18zlI4H3hKTlxI6Ks0tkcY
GDxNVBdUhnKsGx9i9BgmaHdklGX3kwKNSPGul8tJ7RorzvpyV5ZVpirS5jEWcoqt
zHp6DWg/n0qpU5eRgbxyEHZu31cNzpMqlxLvtaZ56zRyPD0LB9nwAJpk+3YCvzTs
s7XiCHH+e/DPDsRLYbkpzLUR+eEMWSDUIjBpmS7B+EuVACksAKE2v3/+My83D2BO
aYPmxTVXBBc0hB9APE0Ya/6SBbB/hgdlkpyedSCMsbMDZSPri5seDnJzDKav9PCu
GwvHhkjy7e5rVztJQlboV9MvBAg3ZYVJNLM7b+KTIYXi9fG1t6SOMmxLPcu7AgMB
AAGjggEOMIIBCjALBgNVHQ8EBAMCBaAwCQYDVR0TBAIwADARBglghkgBhvhCAQEE
BAMCBkAwMwYJYIZIAYb4QgENBCYWJE9wZW5TU0wgR2VuZXJhdGVkIFNlcnZlciBD
ZXJ0aWZpY2F0ZTAdBgNVHQ4EFgQU0LTro5ZBnbX5fA3A0Ct4/PcXrfQwdAYDVR0j
BG0wa4AU9KfAzJFGr2TzkfIn+Miyb4qHMnOhSKRGMEQxCzAJBgNVBAYTAkRFMQ8w
DQYDVQQIDAZIZXNzZW4xFDASBgNVBAoMC3ByaXZhY3lpZGVhMQ4wDAYDVQQDDAVD
QTAwMYIJAPvI66yDzRIHMBMGA1UdJQQMMAoGCCsGAQUFBwMBMA0GCSqGSIb3DQEB
BQUAA4IBAQBBtL9iAKpNJrWrpsOfwN+8vUWnHnMg57XrN1yn+1AmGv2fElXwGP+f
H2zcfkZ/OoYNveAJHjm1YI6z2TI0nr6vAYNxVisFxZGnqLzlEtzjI8b4I0ABaGI5
V7iVUpKSowHrLU4sulEtXKVb5E1EsODFMT1eMFWLaDmNccR0Jxg2Ds66rOyMVAlx
n2+5kUt2tn0+5XuA+afxy9j1b2lnZ9qiVNN5JhcaQ+jTSlQVUc5SpUm4y/co1mUJ
pKTLI0lcX2vhvBrnGa/Uwrw0GZd+MNiKbaeB5aHEu+4+WO4Srhuxf54F2bTjJXWl
9loX/BX+QB03f7eTz/0PHAKoZnQ35wmN
-----END CERTIFICATE-----
