Certificate:
    Data:
        Version: 3 (0x2)
        Serial Number: 268435621 (0x100000a5)
    Signature Algorithm: sha1WithRSAEncryption
        Issuer: C=DE, ST=Hessen, O=privacyidea, CN=CA001
        Validity
            Not Before: Jun 18 13:48:10 2015 GMT
            Not After : Jun 17 13:48:10 2016 GMT
        Subject: CN=admin,CN=admin,O=/emailAddress=meine
        Subject Public Key Info:
            Public Key Algorithm: rsaEncryption
                Public-Key: (2048 bit)
                Modulus:
                    00:ad:66:c4:a8:9c:82:d2:f7:a5:d4:3d:8e:2c:35:
                    96:4d:27:be:f4:6b:ab:dc:ac:b3:36:cb:7f:39:ea:
                    07:4b:aa:97:8a:89:a0:e5:d7:13:31:0d:6d:3c:5f:
                    13:98:ee:c9:33:6f:07:a2:08:8c:e8:58:5b:e7:d5:
                    45:19:fa:55:cc:d3:94:55:c3:9d:73:d1:fe:78:7a:
                    6f:cc:a4:93:d2:e9:7e:a8:f0:f4:4f:69:6f:87:85:
                    75:c1:b5:be:1c:ec:f7:b6:6c:c7:73:05:35:b8:1d:
                    d3:f7:e1:00:90:ed:1c:94:c3:c8:bd:ba:b1:f4:36:
                    3d:09:ea:fc:ab:1b:b9:34:34:75:e4:e3:59:37:e8:
                    2c:52:08:26:98:e1:84:d5:09:1e:77:d6:98:9c:d9:
                    7d:14:c5:d9:18:a1:4f:4e:61:d5:90:ed:9d:66:47:
                    37:8b:be:cf:03:a6:08:96:55:bd:9e:17:c5:0a:ed:
                    c9:0d:e0:48:e1:f8:a6:b4:96:fb:ae:88:19:b6:ad:
                    81:0e:31:54:8c:c5:5f:15:df:bb:3e:11:df:38:ff:
                    a0:38:43:1f:d6:b4:3c:5a:7b:03:70:3b:a3:f4:de:
                    02:28:7a:b9:5e:0b:c1:f2:e9:bd:1e:99:d6:0d:31:
                    46:09:07:a7:24:64:e5:07:e8:46:82:7b:6d:e5:2b:
                    5c:bf
                Exponent: 65537 (0x10001)
        X509v3 extensions:
            X509v3 Key Usage: 
                Digital Signature, Key Encipherment
            X509v3 Basic Constraints: 
                CA:FALSE
            Netscape Cert Type: 
                SSL Server
            Netscape Comment: 
                OpenSSL Generated Server Certificate
            X509v3 Subject Key Identifier: 
                F2:4F:49:31:BF:5C:D5:9F:99:61:77:A8:0C:52:AE:7F:63:FC:4E:30
            X509v3 Authority Key Identifier: 
                keyid:F4:A7:C0:CC:91:46:AF:64:F3:91:F2:27:F8:C8:B2:6F:8A:87:32:73
                DirName:/C=DE/ST=Hessen/O=privacyidea/CN=CA001
                serial:FB:C8:EB:AC:83:CD:12:07

            X509v3 Extended Key Usage: 
                TLS Web Server Authentication
    Signature Algorithm: sha1WithRSAEncryption
         5d:1f:35:35:6f:64:ea:e5:79:f3:da:0d:c5:b7:66:04:e5:e2:
         62:8a:7d:9f:87:30:7d:57:c2:8b:80:97:b9:b2:9e:da:fd:4a:
         c2:19:10:2e:39:0b:29:19:be:23:21:cd:f3:9d:cc:37:b7:5e:
         08:18:d3:c9:ca:9c:57:5a:df:54:04:c5:5a:e6:47:f6:0a:83:
         4f:1a:fa:a0:1d:83:30:28:ec:1c:f3:14:84:62:91:b0:52:d9:
         f9:23:db:fc:32:c9:0e:c6:10:e3:99:4e:19:b1:09:2a:22:03:
         a2:79:e1:54:87:37:80:ce:ab:3b:72:fa:70:e7:dc:c3:f9:b9:
         16:69:f8:26:1e:25:c8:8a:c1:4a:22:4b:7e:8a:f5:03:1f:cd:
         70:50:ab:ca:79:64:4f:ca:ac:40:3b:9a:50:d5:ac:31:6b:8d:
         7c:fe:ad:50:ca:ff:81:1e:19:70:91:a4:a7:77:0e:6b:8d:f7:
         64:ed:e2:86:4e:ab:97:b3:2c:ca:f9:83:00:bf:b0:d3:a8:ff:
         df:fa:2a:a2:23:eb:2a:de:41:a4:c1:6b:c7:75:ec:72:c0:29:
         98:00:86:f6:8a:24:bf:e6:d2:26:b4:f3:57:84:a4:ca:c1:bc:
         cf:a5:5d:03:d5:09:af:55:04:3c:13:9d:88:9b:30:26:3c:48:
         ed:25:f4:34
-----BEGIN CERTIFICATE-----
MIIEBDCCAuygAwIBAgIEEAAApTANBgkqhkiG9w0BAQUFADBEMQswCQYDVQQGEwJE
RTEPMA0GA1UECAwGSGVzc2VuMRQwEgYDVQQKDAtwcml2YWN5aWRlYTEOMAwGA1UE
AwwFQ0EwMDEwHhcNMTUwNjE4MTM0ODEwWhcNMTYwNjE3MTM0ODEwWjAyMRowGAYD
VQQDExFhZG1pbixDTj1hZG1pbixPPTEUMBIGCSqGSIb3DQEJARYFbWVpbmUwggEi
MA0GCSqGSIb3DQEBAQUAA4IBDwAwggEKAoIBAQCtZsSonILS96XUPY4sNZZNJ770
a6vcrLM2y3856gdLqpeKiaDl1xMxDW08XxOY7skzbweiCIzoWFvn1UUZ+lXM05RV
w51z0f54em/MpJPS6X6o8PRPaW+HhXXBtb4c7Pe2bMdzBTW4HdP34QCQ7RyUw8i9
urH0Nj0J6vyrG7k0NHXk41k36CxSCCaY4YTVCR531pic2X0UxdkYoU9OYdWQ7Z1m
RzeLvs8DpgiWVb2eF8UK7ckN4Ejh+Ka0lvuuiBm2rYEOMVSMxV8V37s+Ed84/6A4
Qx/WtDxaewNwO6P03gIoerleC8Hy6b0emdYNMUYJB6ckZOUH6EaCe23lK1y/AgMB
AAGjggEOMIIBCjALBgNVHQ8EBAMCBaAwCQYDVR0TBAIwADARBglghkgBhvhCAQEE
BAMCBkAwMwYJYIZIAYb4QgENBCYWJE9wZW5TU0wgR2VuZXJhdGVkIFNlcnZlciBD
ZXJ0aWZpY2F0ZTAdBgNVHQ4EFgQU8k9JMb9c1Z+ZYXeoDFKuf2P8TjAwdAYDVR0j
BG0wa4AU9KfAzJFGr2TzkfIn+Miyb4qHMnOhSKRGMEQxCzAJBgNVBAYTAkRFMQ8w
DQYDVQQIDAZIZXNzZW4xFDASBgNVBAoMC3ByaXZhY3lpZGVhMQ4wDAYDVQQDDAVD
QTAwMYIJAPvI66yDzRIHMBMGA1UdJQQMMAoGCCsGAQUFBwMBMA0GCSqGSIb3DQEB
BQUAA4IBAQBdHzU1b2Tq5Xnz2g3Ft2YE5eJiin2fhzB9V8KLgJe5sp7a/UrCGRAu
OQspGb4jIc3zncw3t14IGNPJypxXWt9UBMVa5kf2CoNPGvqgHYMwKOwc8xSEYpGw
Utn5I9v8MskOxhDjmU4ZsQkqIgOieeFUhzeAzqs7cvpw59zD+bkWafgmHiXIisFK
Ikt+ivUDH81wUKvKeWRPyqxAO5pQ1awxa418/q1Qyv+BHhlwkaSndw5rjfdk7eKG
TquXsyzK+YMAv7DTqP/f+iqiI+sq3kGkwWvHdexywCmYAIb2iiS/5tImtPNXhKTK
wbzPpV0D1QmvVQQ8E52ImzAmPEjtJfQ0
-----END CERTIFICATE-----
