Certificate:
    Data:
        Version: 3 (0x2)
        Serial Number: 268435617 (0x100000a1)
    Signature Algorithm: sha1WithRSAEncryption
        Issuer: C=DE, ST=Hessen, O=privacyidea, CN=CA001
        Validity
            Not Before: Jun 18 13:39:22 2015 GMT
            Not After : Jun 17 13:39:22 2016 GMT
        Subject: CN=admin,CN=admin,O=/emailAddress=meine
        Subject Public Key Info:
            Public Key Algorithm: rsaEncryption
                Public-Key: (2048 bit)
                Modulus:
                    00:e0:95:01:c7:03:24:45:f2:3b:74:39:8f:23:cc:
                    68:67:6f:b3:8c:3b:c4:4e:70:c1:44:83:d5:25:26:
                    4e:b6:1f:78:3e:8a:1f:69:ae:6b:56:10:65:8a:50:
                    3b:fa:7b:2d:8a:91:de:a8:e4:22:ba:2a:1d:9b:00:
                    60:4f:24:be:d8:fb:5d:55:a9:fb:82:ae:84:8f:b8:
                    32:6f:4b:c1:42:c9:d6:4f:1d:0c:b5:da:34:f9:75:
                    e8:46:e9:1b:9c:a5:18:57:80:e4:91:8b:5a:90:c6:
                    50:6a:96:cd:05:44:6b:e5:e2:68:1e:2a:fc:15:40:
                    a3:ec:8b:d5:f3:df:ab:bf:13:c0:f0:b7:9a:08:4a:
                    02:a8:88:6c:8c:55:83:ff:80:9b:78:c9:c9:f3:fc:
                    72:2c:46:96:b7:fe:a8:3b:39:67:31:5d:6d:8c:73:
                    61:c9:c7:50:65:a4:7f:44:2f:b6:c7:03:a0:3c:3a:
                    70:15:fc:10:83:a7:62:96:14:62:c2:5c:fb:0c:73:
                    e5:5d:47:59:0d:7b:a2:58:25:b0:1a:61:57:8a:99:
                    93:00:e1:11:c1:b2:87:cb:b8:6d:a0:91:db:92:79:
                    d5:b7:25:c9:11:85:2e:7a:dd:48:42:d7:b5:b8:c3:
                    22:a9:d1:24:fc:dd:14:82:9f:53:62:54:b1:eb:ee:
                    d6:f7
                Exponent: 65537 (0x10001)
        X509v3 extensions:
            X509v3 Key Usage: 
                Digital Signature, Key Encipherment
            X509v3 Basic Constraints: 
                CA:FALSE
            Netscape Cert Type: 
                SSL Server
            Netscape Comment: 
                OpenSSL Generated Server Certificate
            X509v3 Subject Key Identifier: 
                9B:8C:80:C3:1B:73:5E:58:18:50:34:B1:CA:CD:99:39:79:40:2A:08
            X509v3 Authority Key Identifier: 
                keyid:F4:A7:C0:CC:91:46:AF:64:F3:91:F2:27:F8:C8:B2:6F:8A:87:32:73
                DirName:/C=DE/ST=Hessen/O=privacyidea/CN=CA001
                serial:FB:C8:EB:AC:83:CD:12:07

            X509v3 Extended Key Usage: 
                TLS Web Server Authentication
    Signature Algorithm: sha1WithRSAEncryption
         bf:fb:ac:71:11:42:c7:5a:fa:df:40:cb:bb:5e:bb:a5:c6:4e:
         a9:fc:2d:02:8b:d8:c8:b1:89:09:0a:28:7b:f9:af:e6:65:f8:
         17:38:e8:cb:fe:f3:bf:1e:e6:d9:c7:6e:d1:63:42:d7:9e:7b:
         4d:44:cb:20:06:9c:71:39:17:d6:c8:79:07:d4:11:41:3e:81:
         c0:83:a8:f1:f6:01:cf:67:81:cf:c4:c5:72:ae:3b:9b:36:59:
         28:80:1e:ea:58:7c:7c:c9:d9:c5:5b:41:ef:fa:22:c3:4c:b1:
         25:db:cd:29:55:bf:e4:97:58:7e:64:d2:0c:ad:87:1c:7e:2d:
         f2:87:23:5a:f4:56:42:52:12:33:2c:e8:34:64:f0:6b:d6:d7:
         91:1b:dc:d0:2d:b0:f4:1b:9a:22:27:da:49:21:64:d3:38:5a:
         8e:c9:cd:6e:d4:ea:54:df:ef:e5:01:4b:31:94:bb:53:a9:6a:
         2b:02:43:f1:ad:03:29:7b:3c:d1:3b:bb:1c:9d:db:02:30:ea:
         7b:94:d6:b7:f6:ec:54:51:6e:e7:72:19:e7:11:f9:88:dd:e8:
         b7:4c:5a:ea:f8:a0:a0:cb:77:60:7e:e5:85:3e:6a:75:22:68:
         5b:b5:26:ec:a0:5c:b8:9d:34:aa:05:3a:3c:58:f8:c9:2a:20:
         2c:9c:11:c7
-----BEGIN CERTIFICATE-----
MIIEBDCCAuygAwIBAgIEEAAAoTANBgkqhkiG9w0BAQUFADBEMQswCQYDVQQGEwJE
RTEPMA0GA1UECAwGSGVzc2VuMRQwEgYDVQQKDAtwcml2YWN5aWRlYTEOMAwGA1UE
AwwFQ0EwMDEwHhcNMTUwNjE4MTMzOTIyWhcNMTYwNjE3MTMzOTIyWjAyMRowGAYD
VQQDExFhZG1pbixDTj1hZG1pbixPPTEUMBIGCSqGSIb3DQEJARYFbWVpbmUwggEi
MA0GCSqGSIb3DQEBAQUAA4IBDwAwggEKAoIBAQDglQHHAyRF8jt0OY8jzGhnb7OM
O8ROcMFEg9UlJk62H3g+ih9prmtWEGWKUDv6ey2Kkd6o5CK6Kh2bAGBPJL7Y+11V
qfuCroSPuDJvS8FCydZPHQy12jT5dehG6RucpRhXgOSRi1qQxlBqls0FRGvl4mge
KvwVQKPsi9Xz36u/E8Dwt5oISgKoiGyMVYP/gJt4ycnz/HIsRpa3/qg7OWcxXW2M
c2HJx1BlpH9EL7bHA6A8OnAV/BCDp2KWFGLCXPsMc+VdR1kNe6JYJbAaYVeKmZMA
4RHBsofLuG2gkduSedW3JckRhS563UhC17W4wyKp0ST83RSCn1NiVLHr7tb3AgMB
AAGjggEOMIIBCjALBgNVHQ8EBAMCBaAwCQYDVR0TBAIwADARBglghkgBhvhCAQEE
BAMCBkAwMwYJYIZIAYb4QgENBCYWJE9wZW5TU0wgR2VuZXJhdGVkIFNlcnZlciBD
ZXJ0aWZpY2F0ZTAdBgNVHQ4EFgQUm4yAwxtzXlgYUDSxys2ZOXlAKggwdAYDVR0j
BG0wa4AU9KfAzJFGr2TzkfIn+Miyb4qHMnOhSKRGMEQxCzAJBgNVBAYTAkRFMQ8w
DQYDVQQIDAZIZXNzZW4xFDASBgNVBAoMC3ByaXZhY3lpZGVhMQ4wDAYDVQQDDAVD
QTAwMYIJAPvI66yDzRIHMBMGA1UdJQQMMAoGCCsGAQUFBwMBMA0GCSqGSIb3DQEB
BQUAA4IBAQC/+6xxEULHWvrfQMu7Xrulxk6p/C0Ci9jIsYkJCih7+a/mZfgXOOjL
/vO/HubZx27RY0LXnntNRMsgBpxxORfWyHkH1BFBPoHAg6jx9gHPZ4HPxMVyrjub
NlkogB7qWHx8ydnFW0Hv+iLDTLEl280pVb/kl1h+ZNIMrYccfi3yhyNa9FZCUhIz
LOg0ZPBr1teRG9zQLbD0G5oiJ9pJIWTTOFqOyc1u1OpU3+/lAUsxlLtTqWorAkPx
rQMpezzRO7scndsCMOp7lNa39uxUUW7nchnnEfmI3ei3TFrq+KCgy3dgfuWFPmp1
ImhbtSbsoFy4nTSqBTo8WPjJKiAsnBHH
-----END CERTIFICATE-----
