Certificate:
    Data:
        Version: 3 (0x2)
        Serial Number: 268435619 (0x100000a3)
    Signature Algorithm: sha1WithRSAEncryption
        Issuer: C=DE, ST=Hessen, O=privacyidea, CN=CA001
        Validity
            Not Before: Jun 18 13:47:16 2015 GMT
            Not After : Jun 17 13:47:16 2016 GMT
        Subject: CN=admin,CN=admin,O=/emailAddress=meine
        Subject Public Key Info:
            Public Key Algorithm: rsaEncryption
                Public-Key: (2048 bit)
                Modulus:
                    00:c2:4e:a2:d7:18:b2:45:f2:2b:04:4a:53:15:83:
                    cd:cc:a8:a0:c6:eb:c6:77:25:d2:e7:33:ae:fe:14:
                    59:69:0f:32:a3:3d:8b:8a:9b:08:cd:21:ce:23:bc:
                    c5:f5:4b:73:ac:0b:bc:de:e0:e8:24:10:14:bf:c7:
                    5a:e5:81:53:32:6a:11:ed:4b:b7:7b:29:1d:91:69:
                    19:69:f6:05:6d:d3:16:c6:e1:31:6d:85:cd:3f:53:
                    57:ff:f3:c6:58:7b:55:fa:a6:32:0d:25:5e:93:a6:
                    e2:09:00:24:87:c9:f8:64:e0:90:b1:8b:0d:f7:d5:
                    80:c3:27:50:e1:07:94:d1:27:08:9f:d7:e5:d1:b0:
                    4f:e4:ba:92:25:b3:c4:35:72:a5:5d:b5:d5:bf:83:
                    62:c7:cf:46:ac:7a:f0:e3:88:c8:cb:6b:bf:8e:26:
                    db:27:7b:8c:2f:07:52:a8:5e:60:57:aa:11:cf:1b:
                    41:d9:9a:7e:5c:3c:22:6e:a7:b4:81:35:6e:93:ca:
                    55:51:a5:11:38:ef:9c:a5:74:a4:cb:9b:bc:37:81:
                    3c:90:80:3b:31:53:f5:8c:dd:3a:4d:90:1c:fa:73:
                    79:01:85:96:6f:8c:07:91:cc:96:fd:75:f9:d4:2e:
                    31:b2:fe:34:87:82:99:75:50:25:41:e5:a6:37:da:
                    ca:75
                Exponent: 65537 (0x10001)
        X509v3 extensions:
            X509v3 Key Usage: 
                Digital Signature, Key Encipherment
            X509v3 Basic Constraints: 
                CA:FALSE
            Netscape Cert Type: 
                SSL Server
            Netscape Comment: 
                OpenSSL Generated Server Certificate
            X509v3 Subject Key Identifier: 
                E3:13:DB:DA:C2:1C:36:23:19:54:87:A6:A4:5D:BB:C4:80:B6:61:8D
            X509v3 Authority Key Identifier: 
                keyid:F4:A7:C0:CC:91:46:AF:64:F3:91:F2:27:F8:C8:B2:6F:8A:87:32:73
                DirName:/C=DE/ST=Hessen/O=privacyidea/CN=CA001
                serial:FB:C8:EB:AC:83:CD:12:07

            X509v3 Extended Key Usage: 
                TLS Web Server Authentication
    Signature Algorithm: sha1WithRSAEncryption
         27:6e:e3:cc:2f:40:91:2c:74:66:4c:e3:7f:04:ed:e8:bb:74:
         5e:f8:f1:f3:cd:ee:59:b1:5c:69:3b:97:67:c5:a3:d9:d6:a2:
         d7:ba:f1:92:97:58:d1:c5:cf:3b:e6:6f:57:45:31:ca:b3:f3:
         d9:c4:9f:1b:e9:ec:54:f5:37:aa:a2:98:cf:a3:cf:20:43:c1:
         f4:7f:16:0c:5b:8d:72:42:12:2c:3d:24:96:b7:ca:77:7b:5e:
         31:69:dd:fa:28:c1:32:20:35:9e:08:2d:6d:d0:aa:1d:72:9f:
         d3:d9:45:74:bf:88:d8:95:66:4a:04:06:b0:7c:7e:b1:6b:9f:
         c7:94:9c:0f:50:89:b4:c2:9f:7a:72:5e:c8:e3:91:9f:fc:30:
         17:de:1f:c7:e9:0a:74:5c:e4:8a:9a:8d:25:61:ab:b8:2c:b5:
         ca:38:0e:02:2d:c2:e4:f7:04:4c:45:e0:80:2a:33:4a:5d:ec:
         73:d2:ed:d1:45:64:16:b8:63:de:b5:2a:93:4f:c5:05:8f:04:
         92:ba:ef:9f:4f:05:85:ba:c1:05:f8:1f:0f:9d:ca:ad:b8:e0:
         3e:65:8f:75:88:7c:0b:c7:3c:f8:49:c7:1f:f6:6d:1c:3d:28:
         f9:a5:1c:47:7a:89:f5:1e:70:6a:eb:6b:d0:3e:ed:d9:ce:a6:
         37:96:a3:6c
-----BEGIN CERTIFICATE-----
MIIEBDCCAuygAwIBAgIEEAAAozANBgkqhkiG9w0BAQUFADBEMQswCQYDVQQGEwJE
RTEPMA0GA1UECAwGSGVzc2VuMRQwEgYDVQQKDAtwcml2YWN5aWRlYTEOMAwGA1UE
AwwFQ0EwMDEwHhcNMTUwNjE4MTM0NzE2WhcNMTYwNjE3MTM0NzE2WjAyMRowGAYD
VQQDExFhZG1pbixDTj1hZG1pbixPPTEUMBIGCSqGSIb3DQEJARYFbWVpbmUwggEi
MA0GCSqGSIb3DQEBAQUAA4IBDwAwggEKAoIBAQDCTqLXGLJF8isESlMVg83MqKDG
68Z3JdLnM67+FFlpDzKjPYuKmwjNIc4jvMX1S3OsC7ze4OgkEBS/x1rlgVMyahHt
S7d7KR2RaRlp9gVt0xbG4TFthc0/U1f/88ZYe1X6pjINJV6TpuIJACSHyfhk4JCx
iw331YDDJ1DhB5TRJwif1+XRsE/kupIls8Q1cqVdtdW/g2LHz0asevDjiMjLa7+O
Jtsne4wvB1KoXmBXqhHPG0HZmn5cPCJup7SBNW6TylVRpRE475yldKTLm7w3gTyQ
gDsxU/WM3TpNkBz6c3kBhZZvjAeRzJb9dfnULjGy/jSHgpl1UCVB5aY32sp1AgMB
AAGjggEOMIIBCjALBgNVHQ8EBAMCBaAwCQYDVR0TBAIwADARBglghkgBhvhCAQEE
BAMCBkAwMwYJYIZIAYb4QgENBCYWJE9wZW5TU0wgR2VuZXJhdGVkIFNlcnZlciBD
ZXJ0aWZpY2F0ZTAdBgNVHQ4EFgQU4xPb2sIcNiMZVIempF27xIC2YY0wdAYDVR0j
BG0wa4AU9KfAzJFGr2TzkfIn+Miyb4qHMnOhSKRGMEQxCzAJBgNVBAYTAkRFMQ8w
DQYDVQQIDAZIZXNzZW4xFDASBgNVBAoMC3ByaXZhY3lpZGVhMQ4wDAYDVQQDDAVD
QTAwMYIJAPvI66yDzRIHMBMGA1UdJQQMMAoGCCsGAQUFBwMBMA0GCSqGSIb3DQEB
BQUAA4IBAQAnbuPML0CRLHRmTON/BO3ou3Re+PHzze5ZsVxpO5dnxaPZ1qLXuvGS
l1jRxc875m9XRTHKs/PZxJ8b6exU9TeqopjPo88gQ8H0fxYMW41yQhIsPSSWt8p3
e14xad36KMEyIDWeCC1t0Kodcp/T2UV0v4jYlWZKBAawfH6xa5/HlJwPUIm0wp96
cl7I45Gf/DAX3h/H6Qp0XOSKmo0lYau4LLXKOA4CLcLk9wRMReCAKjNKXexz0u3R
RWQWuGPetSqTT8UFjwSSuu+fTwWFusEF+B8PncqtuOA+ZY91iHwLxzz4Sccf9m0c
PSj5pRxHeon1HnBq62vQPu3ZzqY3lqNs
-----END CERTIFICATE-----
