Certificate:
    Data:
        Version: 3 (0x2)
        Serial Number: 268435618 (0x100000a2)
    Signature Algorithm: sha1WithRSAEncryption
        Issuer: C=DE, ST=Hessen, O=privacyidea, CN=CA001
        Validity
            Not Before: Jun 18 13:43:53 2015 GMT
            Not After : Jun 17 13:43:53 2016 GMT
        Subject: CN=admin,CN=admin,O=/emailAddress=meine
        Subject Public Key Info:
            Public Key Algorithm: rsaEncryption
                Public-Key: (2048 bit)
                Modulus:
                    00:de:0b:18:69:81:a8:0d:fb:9c:05:b2:2e:e0:10:
                    31:0c:db:a8:37:05:8a:3a:1e:00:0b:4d:9e:d7:87:
                    29:c4:ff:06:c2:a1:7c:8e:37:72:5f:ad:25:72:c4:
                    49:80:db:95:ec:4d:75:6b:12:87:21:95:11:79:b3:
                    34:0d:a1:ae:2e:8e:20:82:97:96:32:1b:ea:2c:46:
                    c4:8f:bf:21:2a:e0:c6:28:38:94:18:63:0e:1b:3e:
                    14:99:95:cc:f4:6d:6f:34:36:c0:10:bf:31:fb:2c:
                    03:6b:58:30:36:dd:6a:a8:61:11:d0:b1:30:ee:74:
                    2e:d9:46:59:57:31:7e:b7:71:aa:bd:27:3a:ee:1e:
                    aa:08:8e:6e:1e:15:c1:57:ab:73:3b:1a:15:a6:6e:
                    d5:17:c0:04:44:df:c3:74:97:88:49:1f:4b:b9:be:
                    73:79:a2:98:79:cf:df:6f:80:ff:36:00:59:7a:61:
                    b8:af:96:09:04:cf:78:8d:06:5f:26:0e:ee:6a:78:
                    05:ff:12:5d:95:d7:09:68:84:38:a7:86:c8:22:f6:
                    c4:d4:df:d9:1d:82:76:32:21:a9:01:4f:aa:e7:66:
                    a4:db:d2:bd:17:7e:74:36:34:81:a6:d8:be:86:e4:
                    a5:4d:a1:2d:4e:b1:1a:88:03:ab:56:a1:39:e5:8d:
                    69:d3
                Exponent: 65537 (0x10001)
        X509v3 extensions:
            X509v3 Key Usage: 
                Digital Signature, Key Encipherment
            X509v3 Basic Constraints: 
                CA:FALSE
            Netscape Cert Type: 
                SSL Server
            Netscape Comment: 
                OpenSSL Generated Server Certificate
            X509v3 Subject Key Identifier: 
                1B:AD:C7:84:84:A1:FF:1D:B5:37:74:B3:8E:48:73:50:03:7B:11:CB
            X509v3 Authority Key Identifier: 
                keyid:F4:A7:C0:CC:91:46:AF:64:F3:91:F2:27:F8:C8:B2:6F:8A:87:32:73
                DirName:/C=DE/ST=Hessen/O=privacyidea/CN=CA001
                serial:FB:C8:EB:AC:83:CD:12:07

            X509v3 Extended Key Usage: 
                TLS Web Server Authentication
    Signature Algorithm: sha1WithRSAEncryption
         27:78:95:03:10:39:07:e8:71:7c:4b:d7:0e:91:e8:f7:81:da:
         65:30:c4:7b:11:32:6c:36:cd:db:38:3e:f5:20:8a:90:5d:6f:
         a4:ff:62:d1:9f:de:95:10:89:a5:38:25:4a:ed:cc:3a:3d:24:
         87:38:cc:79:65:9a:99:49:4e:13:92:84:41:d7:81:2e:79:7f:
         9b:17:ec:73:e9:ca:0d:ab:db:25:c1:9a:a9:97:4d:27:c4:a6:
         e4:be:ff:2a:6e:3e:ee:66:21:d8:34:86:9e:df:b4:50:c3:d2:
         49:07:b2:e7:a5:d1:be:73:67:98:2a:b2:fe:9c:4e:e5:70:07:
         44:22:c6:53:53:eb:a0:31:98:66:cb:58:00:c7:35:9f:eb:93:
         68:22:4a:4a:02:b5:68:52:30:8b:3c:88:8a:cc:27:e7:1a:18:
         c7:74:07:02:b5:46:e0:21:17:e6:90:b4:53:a4:bc:ea:18:f5:
         fc:41:ac:39:9d:25:e4:ae:46:ed:7f:48:ef:c2:b2:c1:ad:9a:
         54:a8:37:d4:17:5c:c5:56:4e:30:a2:69:c4:c4:87:01:15:15:
         ff:ff:67:0b:69:94:9d:d5:12:22:e2:de:2d:20:b7:61:15:b9:
         d5:30:b2:33:3e:ea:04:92:85:c4:7b:ce:9c:72:a5:2c:61:89:
         1c:04:84:54
-----BEGIN CERTIFICATE-----
MIIEBDCCAuygAwIBAgIEEAAAojANBgkqhkiG9w0BAQUFADBEMQswCQYDVQQGEwJE
RTEPMA0GA1UECAwGSGVzc2VuMRQwEgYDVQQKDAtwcml2YWN5aWRlYTEOMAwGA1UE
AwwFQ0EwMDEwHhcNMTUwNjE4MTM0MzUzWhcNMTYwNjE3MTM0MzUzWjAyMRowGAYD
VQQDExFhZG1pbixDTj1hZG1pbixPPTEUMBIGCSqGSIb3DQEJARYFbWVpbmUwggEi
MA0GCSqGSIb3DQEBAQUAA4IBDwAwggEKAoIBAQDeCxhpgagN+5wFsi7gEDEM26g3
BYo6HgALTZ7XhynE/wbCoXyON3JfrSVyxEmA25XsTXVrEochlRF5szQNoa4ujiCC
l5YyG+osRsSPvyEq4MYoOJQYYw4bPhSZlcz0bW80NsAQvzH7LANrWDA23WqoYRHQ
sTDudC7ZRllXMX63caq9JzruHqoIjm4eFcFXq3M7GhWmbtUXwARE38N0l4hJH0u5
vnN5oph5z99vgP82AFl6YbivlgkEz3iNBl8mDu5qeAX/El2V1wlohDinhsgi9sTU
39kdgnYyIakBT6rnZqTb0r0XfnQ2NIGm2L6G5KVNoS1OsRqIA6tWoTnljWnTAgMB
AAGjggEOMIIBCjALBgNVHQ8EBAMCBaAwCQYDVR0TBAIwADARBglghkgBhvhCAQEE
BAMCBkAwMwYJYIZIAYb4QgENBCYWJE9wZW5TU0wgR2VuZXJhdGVkIFNlcnZlciBD
ZXJ0aWZpY2F0ZTAdBgNVHQ4EFgQUG63HhISh/x21N3SzjkhzUAN7EcswdAYDVR0j
BG0wa4AU9KfAzJFGr2TzkfIn+Miyb4qHMnOhSKRGMEQxCzAJBgNVBAYTAkRFMQ8w
DQYDVQQIDAZIZXNzZW4xFDASBgNVBAoMC3ByaXZhY3lpZGVhMQ4wDAYDVQQDDAVD
QTAwMYIJAPvI66yDzRIHMBMGA1UdJQQMMAoGCCsGAQUFBwMBMA0GCSqGSIb3DQEB
BQUAA4IBAQAneJUDEDkH6HF8S9cOkej3gdplMMR7ETJsNs3bOD71IIqQXW+k/2LR
n96VEImlOCVK7cw6PSSHOMx5ZZqZSU4TkoRB14EueX+bF+xz6coNq9slwZqpl00n
xKbkvv8qbj7uZiHYNIae37RQw9JJB7LnpdG+c2eYKrL+nE7lcAdEIsZTU+ugMZhm
y1gAxzWf65NoIkpKArVoUjCLPIiKzCfnGhjHdAcCtUbgIRfmkLRTpLzqGPX8Qaw5
nSXkrkbtf0jvwrLBrZpUqDfUF1zFVk4womnExIcBFRX//2cLaZSd1RIi4t4tILdh
FbnVMLIzPuoEkoXEe86ccqUsYYkcBIRU
-----END CERTIFICATE-----
