Certificate:
    Data:
        Version: 3 (0x2)
        Serial Number: 268435609 (0x10000099)
    Signature Algorithm: sha1WithRSAEncryption
        Issuer: C=DE, ST=Hessen, O=privacyidea, CN=CA001
        Validity
            Not Before: Jun 24 07:41:50 2015 GMT
            Not After : Jun 23 07:41:50 2016 GMT
        Subject: C=DE, ST=Hessen, O=privacyidea, CN=usercert
        Subject Public Key Info:
            Public Key Algorithm: rsaEncryption
                Public-Key: (2048 bit)
                Modulus:
                    00:dc:2f:d1:5f:29:97:d4:7c:c3:53:c8:30:bd:4b:
                    67:70:2c:24:6b:b8:5e:eb:21:7a:48:12:56:7c:81:
                    5c:48:75:b6:68:eb:f6:f2:98:4e:50:51:d1:7f:6c:
                    73:f3:0a:a7:ae:be:48:5e:e5:d6:e1:d9:2a:7c:32:
                    6e:4e:fd:08:f6:5a:54:49:23:73:c3:b9:07:18:d1:
                    ef:b3:ac:f8:8a:dc:94:96:a4:90:3a:8e:74:df:e6:
                    0d:37:1b:bd:5b:b7:25:1a:56:39:da:6f:91:aa:5e:
                    1c:74:f3:f9:7c:14:01:83:12:65:76:c7:bb:fe:36:
                    5b:95:e9:72:65:83:ed:3e:98:30:71:fa:87:dd:a3:
                    36:5a:30:03:2e:26:e0:61:d1:bf:02:3f:b6:06:1f:
                    4a:89:28:1c:5c:a2:ff:4e:be:94:e6:8c:e0:da:82:
                    f1:9d:29:32:48:30:73:b4:04:f6:42:1e:be:f7:e2:
                    32:32:27:3c:9d:89:2f:70:3e:85:9a:6f:5c:c5:09:
                    c0:8c:32:2f:72:22:c9:d2:95:1f:b6:ac:72:60:72:
                    b7:82:4d:6b:ce:5b:e3:00:d0:d2:2f:58:c6:e0:10:
                    e5:51:ca:4d:3b:2e:e6:7e:ab:84:d6:56:f1:93:35:
                    a0:93:64:26:81:75:2f:91:b5:16:06:38:0b:db:cc:
                    2d:07
                Exponent: 65537 (0x10001)
        X509v3 extensions:
            X509v3 Key Usage: 
                Digital Signature, Key Encipherment
            X509v3 Basic Constraints: 
                CA:FALSE
            Netscape Cert Type: 
                SSL Server
            Netscape Comment: 
                OpenSSL Generated Server Certificate
            X509v3 Subject Key Identifier: 
                FC:14:D1:F0:4B:8D:00:90:F2:F5:B8:71:9E:4E:97:C3:92:54:AD:0B
            X509v3 Authority Key Identifier: 
                keyid:F4:A7:C0:CC:91:46:AF:64:F3:91:F2:27:F8:C8:B2:6F:8A:87:32:73
                DirName:/C=DE/ST=Hessen/O=privacyidea/CN=CA001
                serial:FB:C8:EB:AC:83:CD:12:07

            X509v3 Extended Key Usage: 
                TLS Web Server Authentication
    Signature Algorithm: sha1WithRSAEncryption
         40:61:b9:ae:37:a3:58:3b:f4:0b:d9:6f:b1:30:5b:69:29:5e:
         10:64:e3:4a:f4:59:f8:ba:c1:28:6a:cb:27:63:5e:e6:32:ba:
         16:77:82:dc:3e:8a:fb:18:57:24:95:f5:09:0a:f5:97:98:9d:
         a0:66:1d:f1:9d:f3:67:54:63:ee:d2:0a:f5:30:ee:a0:f5:f3:
         b9:a0:5e:ae:20:6b:55:97:3d:cf:db:c0:c4:61:ca:a4:53:45:
         01:d9:88:01:29:50:7f:82:8a:54:27:cb:08:fc:cf:e0:d3:2f:
         47:64:cf:21:81:af:24:54:30:81:d2:76:30:83:60:c5:be:5f:
         37:62:09:1e:c5:47:18:e0:a9:b1:46:8c:a8:5e:14:6a:a4:b9:
         38:64:87:8b:07:45:63:f0:ef:0a:de:15:f1:c1:20:10:7e:bf:
         3a:48:e8:b3:d5:18:f9:af:46:31:e1:e8:ed:e8:04:47:01:5d:
         c9:e7:af:f9:a2:7f:f5:4a:d4:11:60:12:77:b2:bf:7e:b7:82:
         3f:dd:5f:98:b0:23:38:63:d5:4a:f3:1f:cf:f1:09:37:b8:ee:
         ce:bc:b1:40:7a:31:7f:f6:8f:26:dc:2e:2a:81:8b:44:38:cc:
         6b:55:cf:5a:22:2b:6c:75:7c:69:ad:28:77:64:d8:a1:1f:45:
         25:05:da:da
-----BEGIN CERTIFICATE-----
MIIEGTCCAwGgAwIBAgIEEAAAmTANBgkqhkiG9w0BAQUFADBEMQswCQYDVQQGEwJE
RTEPMA0GA1UECAwGSGVzc2VuMRQwEgYDVQQKDAtwcml2YWN5aWRlYTEOMAwGA1UE
AwwFQ0EwMDEwHhcNMTUwNjI0MDc0MTUwWhcNMTYwNjIzMDc0MTUwWjBHMQswCQYD
VQQGEwJERTEPMA0GA1UECAwGSGVzc2VuMRQwEgYDVQQKDAtwcml2YWN5aWRlYTER
MA8GA1UEAwwIdXNlcmNlcnQwggEiMA0GCSqGSIb3DQEBAQUAA4IBDwAwggEKAoIB
AQDcL9FfKZfUfMNTyDC9S2dwLCRruF7rIXpIElZ8gVxIdbZo6/bymE5QUdF/bHPz
Cqeuvkhe5dbh2Sp8Mm5O/Qj2WlRJI3PDuQcY0e+zrPiK3JSWpJA6jnTf5g03G71b
tyUaVjnab5GqXhx08/l8FAGDEmV2x7v+NluV6XJlg+0+mDBx+ofdozZaMAMuJuBh
0b8CP7YGH0qJKBxcov9OvpTmjODagvGdKTJIMHO0BPZCHr734jIyJzydiS9wPoWa
b1zFCcCMMi9yIsnSlR+2rHJgcreCTWvOW+MA0NIvWMbgEOVRyk07LuZ+q4TWVvGT
NaCTZCaBdS+RtRYGOAvbzC0HAgMBAAGjggEOMIIBCjALBgNVHQ8EBAMCBaAwCQYD
VR0TBAIwADARBglghkgBhvhCAQEEBAMCBkAwMwYJYIZIAYb4QgENBCYWJE9wZW5T
U0wgR2VuZXJhdGVkIFNlcnZlciBDZXJ0aWZpY2F0ZTAdBgNVHQ4EFgQU/BTR8EuN
AJDy9bhxnk6Xw5JUrQswdAYDVR0jBG0wa4AU9KfAzJFGr2TzkfIn+Miyb4qHMnOh
SKRGMEQxCzAJBgNVBAYTAkRFMQ8wDQYDVQQIDAZIZXNzZW4xFDASBgNVBAoMC3By
aXZhY3lpZGVhMQ4wDAYDVQQDDAVDQTAwMYIJAPvI66yDzRIHMBMGA1UdJQQMMAoG
CCsGAQUFBwMBMA0GCSqGSIb3DQEBBQUAA4IBAQBAYbmuN6NYO/QL2W+xMFtpKV4Q
ZONK9Fn4usEoassnY17mMroWd4LcPor7GFcklfUJCvWXmJ2gZh3xnfNnVGPu0gr1
MO6g9fO5oF6uIGtVlz3P28DEYcqkU0UB2YgBKVB/gopUJ8sI/M/g0y9HZM8hga8k
VDCB0nYwg2DFvl83YgkexUcY4KmxRoyoXhRqpLk4ZIeLB0Vj8O8K3hXxwSAQfr86
SOiz1Rj5r0Yx4ejt6ARHAV3J56/5on/1StQRYBJ3sr9+t4I/3V+YsCM4Y9VK8x/P
8Qk3uO7OvLFAejF/9o8m3C4qgYtEOMxrVc9aIitsdXxprSh3ZNihH0UlBdra
-----END CERTIFICATE-----
