Certificate:
    Data:
        Version: 3 (0x2)
        Serial Number: 268435611 (0x1000009b)
    Signature Algorithm: sha1WithRSAEncryption
        Issuer: C=DE, ST=Hessen, O=privacyidea, CN=CA001
        Validity
            Not Before: Jun 24 07:42:38 2015 GMT
            Not After : Jun 23 07:42:38 2016 GMT
        Subject: C=DE, ST=Hessen, O=privacyidea, CN=requester.localdomain
        Subject Public Key Info:
            Public Key Algorithm: rsaEncryption
                Public-Key: (2048 bit)
                Modulus:
                    00:cd:be:14:4f:fa:ce:01:3f:42:22:1b:1d:9c:af:
                    dd:92:d2:7f:db:6c:b7:3e:39:43:43:6b:13:03:f1:
                    05:f4:07:74:bc:76:69:28:0b:af:19:8e:d7:fc:e3:
                    cd:c6:58:f2:ca:7f:08:6d:53:fc:07:02:44:24:c6:
                    b4:34:4c:8c:04:fe:33:0e:40:e2:20:ba:02:73:5a:
                    f7:f5:4f:63:6e:cc:c6:b6:df:54:1d:37:39:7d:51:
                    36:26:5f:bd:dc:3f:a8:8b:6b:a2:ae:b6:9d:d6:21:
                    e7:df:41:b8:7a:28:2a:68:48:ca:a8:2d:ed:e1:e9:
                    46:5e:5a:72:6d:b4:84:38:87:91:fd:94:11:0b:28:
                    84:c6:c2:2f:2a:fb:01:f9:36:7a:09:75:d1:33:88:
                    3c:73:41:5b:c8:bf:94:89:70:a1:f0:c0:b9:2e:50:
                    53:1e:b1:17:64:69:f4:2d:81:e0:a9:0d:0e:32:e9:
                    ba:55:8a:85:f1:1b:6f:49:79:b4:7f:88:c3:0d:3e:
                    54:88:9b:3d:1f:38:8c:04:f3:ee:6a:63:2b:f5:c6:
                    db:b4:83:aa:c4:78:41:3a:7d:4b:e1:c8:3e:71:ca:
                    1b:61:59:ea:c6:c4:ca:32:5e:c9:e9:bf:12:29:e6:
                    c6:c3:63:fe:a0:55:da:7a:f1:60:98:4d:26:ed:fa:
                    70:2d
                Exponent: 65537 (0x10001)
        X509v3 extensions:
            X509v3 Key Usage: 
                Digital Signature, Key Encipherment
            X509v3 Basic Constraints: 
                CA:FALSE
            Netscape Cert Type: 
                SSL Server
            Netscape Comment: 
                OpenSSL Generated Server Certificate
            X509v3 Subject Key Identifier: 
                53:3F:ED:5D:09:07:B3:65:7B:AB:45:C9:24:5B:09:77:80:0A:96:ED
            X509v3 Authority Key Identifier: 
                keyid:F4:A7:C0:CC:91:46:AF:64:F3:91:F2:27:F8:C8:B2:6F:8A:87:32:73
                DirName:/C=DE/ST=Hessen/O=privacyidea/CN=CA001
                serial:FB:C8:EB:AC:83:CD:12:07

            X509v3 Extended Key Usage: 
                TLS Web Server Authentication
    Signature Algorithm: sha1WithRSAEncryption
         24:39:b1:bb:db:84:83:11:a3:47:f5:3e:45:0e:61:34:ea:3b:
         ff:e4:09:72:db:98:f6:0b:26:37:18:e5:84:27:f8:33:24:5f:
         6a:a4:61:82:bb:66:ae:6e:8f:3f:b5:06:12:83:87:a3:ed:95:
         bf:d1:2d:28:44:ff:de:53:ff:93:ed:e8:94:cb:40:28:9d:58:
         77:0d:de:1b:be:90:18:4b:e3:66:08:fe:20:f7:03:bc:d8:9f:
         cd:3a:e8:81:1e:9f:0c:e9:8d:f3:9c:26:c0:43:9e:46:a8:22:
         fe:e7:85:af:3c:b0:d6:d3:9b:ee:49:d9:33:97:66:69:cd:2f:
         4f:f5:c5:f6:bb:cb:74:c9:dc:4b:24:c4:3c:f8:3d:dc:bc:d1:
         40:7b:eb:46:40:48:be:f0:36:61:07:be:a3:72:fe:e8:03:54:
         f8:3a:42:53:00:81:f9:e3:8a:08:8e:2c:ef:b2:cb:c3:7c:bd:
         06:2d:74:76:32:00:dd:20:a0:69:51:7b:1d:f9:6d:9e:33:d4:
         53:45:c3:4b:3d:42:75:79:20:36:52:52:7f:bc:d9:b8:df:85:
         0e:de:4a:f3:76:9b:cd:bd:ea:5d:8e:15:ec:01:24:de:f5:61:
         4b:62:e8:9f:7f:53:9a:81:30:0c:b3:4a:fa:20:97:02:6d:b7:
         c6:b1:bb:ee
-----BEGIN CERTIFICATE-----
MIIEJjCCAw6gAwIBAgIEEAAAmzANBgkqhkiG9w0BAQUFADBEMQswCQYDVQQGEwJE
RTEPMA0GA1UECAwGSGVzc2VuMRQwEgYDVQQKDAtwcml2YWN5aWRlYTEOMAwGA1UE
AwwFQ0EwMDEwHhcNMTUwNjI0MDc0MjM4WhcNMTYwNjIzMDc0MjM4WjBUMQswCQYD
VQQGEwJERTEPMA0GA1UECAwGSGVzc2VuMRQwEgYDVQQKDAtwcml2YWN5aWRlYTEe
MBwGA1UEAwwVcmVxdWVzdGVyLmxvY2FsZG9tYWluMIIBIjANBgkqhkiG9w0BAQEF
AAOCAQ8AMIIBCgKCAQEAzb4UT/rOAT9CIhsdnK/dktJ/22y3PjlDQ2sTA/EF9Ad0
vHZpKAuvGY7X/OPNxljyyn8IbVP8BwJEJMa0NEyMBP4zDkDiILoCc1r39U9jbszG
tt9UHTc5fVE2Jl+93D+oi2uirrad1iHn30G4eigqaEjKqC3t4elGXlpybbSEOIeR
/ZQRCyiExsIvKvsB+TZ6CXXRM4g8c0FbyL+UiXCh8MC5LlBTHrEXZGn0LYHgqQ0O
Mum6VYqF8RtvSXm0f4jDDT5UiJs9HziMBPPuamMr9cbbtIOqxHhBOn1L4cg+ccob
YVnqxsTKMl7J6b8SKebGw2P+oFXaevFgmE0m7fpwLQIDAQABo4IBDjCCAQowCwYD
VR0PBAQDAgWgMAkGA1UdEwQCMAAwEQYJYIZIAYb4QgEBBAQDAgZAMDMGCWCGSAGG
+EIBDQQmFiRPcGVuU1NMIEdlbmVyYXRlZCBTZXJ2ZXIgQ2VydGlmaWNhdGUwHQYD
VR0OBBYEFFM/7V0JB7Nle6tFySRbCXeACpbtMHQGA1UdIwRtMGuAFPSnwMyRRq9k
85HyJ/jIsm+KhzJzoUikRjBEMQswCQYDVQQGEwJERTEPMA0GA1UECAwGSGVzc2Vu
MRQwEgYDVQQKDAtwcml2YWN5aWRlYTEOMAwGA1UEAwwFQ0EwMDGCCQD7yOusg80S
BzATBgNVHSUEDDAKBggrBgEFBQcDATANBgkqhkiG9w0BAQUFAAOCAQEAJDmxu9uE
gxGjR/U+RQ5hNOo7/+QJctuY9gsmNxjlhCf4MyRfaqRhgrtmrm6PP7UGEoOHo+2V
v9EtKET/3lP/k+3olMtAKJ1Ydw3eG76QGEvjZgj+IPcDvNifzTrogR6fDOmN85wm
wEOeRqgi/ueFrzyw1tOb7knZM5dmac0vT/XF9rvLdMncSyTEPPg93LzRQHvrRkBI
vvA2YQe+o3L+6ANU+DpCUwCB+eOKCI4s77LLw3y9Bi10djIA3SCgaVF7HfltnjPU
U0XDSz1CdXkgNlJSf7zZuN+FDt5K83abzb3qXY4V7AEk3vVhS2Lon39TmoEwDLNK
+iCXAm23xrG77g==
-----END CERTIFICATE-----
