Certificate:
    Data:
        Version: 3 (0x2)
        Serial Number: 268435605 (0x10000095)
    Signature Algorithm: sha1WithRSAEncryption
        Issuer: C=DE, ST=Hessen, O=privacyidea, CN=CA001
        Validity
            Not Before: Jun 10 16:31:39 2015 GMT
            Not After : Jun  9 16:31:39 2016 GMT
        Subject: C=DE, ST=Hessen, O=privacyidea, CN=requester.localdomain
        Subject Public Key Info:
            Public Key Algorithm: rsaEncryption
                Public-Key: (2048 bit)
                Modulus:
                    00:cd:be:14:4f:fa:ce:01:3f:42:22:1b:1d:9c:af:
                    dd:92:d2:7f:db:6c:b7:3e:39:43:43:6b:13:03:f1:
                    05:f4:07:74:bc:76:69:28:0b:af:19:8e:d7:fc:e3:
                    cd:c6:58:f2:ca:7f:08:6d:53:fc:07:02:44:24:c6:
                    b4:34:4c:8c:04:fe:33:0e:40:e2:20:ba:02:73:5a:
                    f7:f5:4f:63:6e:cc:c6:b6:df:54:1d:37:39:7d:51:
                    36:26:5f:bd:dc:3f:a8:8b:6b:a2:ae:b6:9d:d6:21:
                    e7:df:41:b8:7a:28:2a:68:48:ca:a8:2d:ed:e1:e9:
                    46:5e:5a:72:6d:b4:84:38:87:91:fd:94:11:0b:28:
                    84:c6:c2:2f:2a:fb:01:f9:36:7a:09:75:d1:33:88:
                    3c:73:41:5b:c8:bf:94:89:70:a1:f0:c0:b9:2e:50:
                    53:1e:b1:17:64:69:f4:2d:81:e0:a9:0d:0e:32:e9:
                    ba:55:8a:85:f1:1b:6f:49:79:b4:7f:88:c3:0d:3e:
                    54:88:9b:3d:1f:38:8c:04:f3:ee:6a:63:2b:f5:c6:
                    db:b4:83:aa:c4:78:41:3a:7d:4b:e1:c8:3e:71:ca:
                    1b:61:59:ea:c6:c4:ca:32:5e:c9:e9:bf:12:29:e6:
                    c6:c3:63:fe:a0:55:da:7a:f1:60:98:4d:26:ed:fa:
                    70:2d
                Exponent: 65537 (0x10001)
        X509v3 extensions:
            X509v3 Key Usage: 
                Digital Signature, Key Encipherment
            X509v3 Basic Constraints: 
                CA:FALSE
            Netscape Cert Type: 
                SSL Server
            Netscape Comment: 
                OpenSSL Generated Server Certificate
            X509v3 Subject Key Identifier: 
                53:3F:ED:5D:09:07:B3:65:7B:AB:45:C9:24:5B:09:77:80:0A:96:ED
            X509v3 Authority Key Identifier: 
                keyid:F4:A7:C0:CC:91:46:AF:64:F3:91:F2:27:F8:C8:B2:6F:8A:87:32:73
                DirName:/C=DE/ST=Hessen/O=privacyidea/CN=CA001
                serial:FB:C8:EB:AC:83:CD:12:07

            X509v3 Extended Key Usage: 
                TLS Web Server Authentication
    Signature Algorithm: sha1WithRSAEncryption
         42:6c:a0:15:8c:04:0c:68:d6:47:9f:61:79:56:98:76:18:42:
         b0:9f:77:68:7c:7b:b2:ea:ea:2b:98:04:19:86:9f:14:fb:06:
         fc:e5:8f:54:6c:b2:e3:7a:93:20:0f:f7:ef:27:87:76:10:d8:
         0d:29:a2:28:dd:97:b6:d1:5d:4b:c4:2c:7b:49:a5:08:04:51:
         a2:61:be:db:89:49:0d:54:81:19:97:3e:b5:82:55:bd:8e:d5:
         6a:b4:a7:7c:26:f7:93:b2:83:4e:18:08:94:2e:71:06:62:00:
         43:80:60:85:5e:1b:5d:51:32:ad:83:7f:28:c3:69:bc:f6:d0:
         ae:7b:5f:e7:81:ea:5e:24:37:9c:da:b5:68:7b:75:d7:ae:0d:
         3f:72:43:63:63:4b:69:75:b6:e9:4a:48:a6:99:f1:ad:75:b6:
         a7:3c:c3:bb:a6:6e:8a:59:3a:f7:24:c7:72:ab:8a:7e:a6:e8:
         a5:b8:b6:20:a2:46:db:32:2a:45:e6:43:b8:b0:09:1d:a2:e6:
         1c:c6:1b:19:0c:5c:b6:6a:00:c9:fd:fa:2c:67:a2:ca:32:fe:
         d6:4a:29:4f:80:0c:33:74:31:7d:31:8d:94:e7:39:d6:96:3a:
         8e:cc:cd:31:58:0f:04:ea:f8:5d:4e:4d:66:c4:e0:9c:95:07:
         bc:e4:a9:c2
-----BEGIN CERTIFICATE-----
MIIEJjCCAw6gAwIBAgIEEAAAlTANBgkqhkiG9w0BAQUFADBEMQswCQYDVQQGEwJE
RTEPMA0GA1UECAwGSGVzc2VuMRQwEgYDVQQKDAtwcml2YWN5aWRlYTEOMAwGA1UE
AwwFQ0EwMDEwHhcNMTUwNjEwMTYzMTM5WhcNMTYwNjA5MTYzMTM5WjBUMQswCQYD
VQQGEwJERTEPMA0GA1UECAwGSGVzc2VuMRQwEgYDVQQKDAtwcml2YWN5aWRlYTEe
MBwGA1UEAwwVcmVxdWVzdGVyLmxvY2FsZG9tYWluMIIBIjANBgkqhkiG9w0BAQEF
AAOCAQ8AMIIBCgKCAQEAzb4UT/rOAT9CIhsdnK/dktJ/22y3PjlDQ2sTA/EF9Ad0
vHZpKAuvGY7X/OPNxljyyn8IbVP8BwJEJMa0NEyMBP4zDkDiILoCc1r39U9jbszG
tt9UHTc5fVE2Jl+93D+oi2uirrad1iHn30G4eigqaEjKqC3t4elGXlpybbSEOIeR
/ZQRCyiExsIvKvsB+TZ6CXXRM4g8c0FbyL+UiXCh8MC5LlBTHrEXZGn0LYHgqQ0O
Mum6VYqF8RtvSXm0f4jDDT5UiJs9HziMBPPuamMr9cbbtIOqxHhBOn1L4cg+ccob
YVnqxsTKMl7J6b8SKebGw2P+oFXaevFgmE0m7fpwLQIDAQABo4IBDjCCAQowCwYD
VR0PBAQDAgWgMAkGA1UdEwQCMAAwEQYJYIZIAYb4QgEBBAQDAgZAMDMGCWCGSAGG
+EIBDQQmFiRPcGVuU1NMIEdlbmVyYXRlZCBTZXJ2ZXIgQ2VydGlmaWNhdGUwHQYD
VR0OBBYEFFM/7V0JB7Nle6tFySRbCXeACpbtMHQGA1UdIwRtMGuAFPSnwMyRRq9k
85HyJ/jIsm+KhzJzoUikRjBEMQswCQYDVQQGEwJERTEPMA0GA1UECAwGSGVzc2Vu
MRQwEgYDVQQKDAtwcml2YWN5aWRlYTEOMAwGA1UEAwwFQ0EwMDGCCQD7yOusg80S
BzATBgNVHSUEDDAKBggrBgEFBQcDATANBgkqhkiG9w0BAQUFAAOCAQEAQmygFYwE
DGjWR59heVaYdhhCsJ93aHx7surqK5gEGYafFPsG/OWPVGyy43qTIA/37yeHdhDY
DSmiKN2XttFdS8Qse0mlCARRomG+24lJDVSBGZc+tYJVvY7VarSnfCb3k7KDThgI
lC5xBmIAQ4BghV4bXVEyrYN/KMNpvPbQrntf54HqXiQ3nNq1aHt1164NP3JDY2NL
aXW26UpIppnxrXW2pzzDu6Zuilk69yTHcquKfqbopbi2IKJG2zIqReZDuLAJHaLm
HMYbGQxctmoAyf36LGeiyjL+1kopT4AMM3QxfTGNlOc51pY6jszNMVgPBOr4XU5N
ZsTgnJUHvOSpwg==
-----END CERTIFICATE-----
