Certificate:
    Data:
        Version: 3 (0x2)
        Serial Number: 268435601 (0x10000091)
    Signature Algorithm: sha1WithRSAEncryption
        Issuer: C=DE, ST=Hessen, O=privacyidea, CN=CA001
        Validity
            Not Before: Jun 10 16:26:39 2015 GMT
            Not After : Jun  9 16:26:39 2016 GMT
        Subject: C=DE, ST=Hessen, O=privacyidea, CN=requester.localdomain
        Subject Public Key Info:
            Public Key Algorithm: rsaEncryption
                Public-Key: (2048 bit)
                Modulus:
                    00:cd:be:14:4f:fa:ce:01:3f:42:22:1b:1d:9c:af:
                    dd:92:d2:7f:db:6c:b7:3e:39:43:43:6b:13:03:f1:
                    05:f4:07:74:bc:76:69:28:0b:af:19:8e:d7:fc:e3:
                    cd:c6:58:f2:ca:7f:08:6d:53:fc:07:02:44:24:c6:
                    b4:34:4c:8c:04:fe:33:0e:40:e2:20:ba:02:73:5a:
                    f7:f5:4f:63:6e:cc:c6:b6:df:54:1d:37:39:7d:51:
                    36:26:5f:bd:dc:3f:a8:8b:6b:a2:ae:b6:9d:d6:21:
                    e7:df:41:b8:7a:28:2a:68:48:ca:a8:2d:ed:e1:e9:
                    46:5e:5a:72:6d:b4:84:38:87:91:fd:94:11:0b:28:
                    84:c6:c2:2f:2a:fb:01:f9:36:7a:09:75:d1:33:88:
                    3c:73:41:5b:c8:bf:94:89:70:a1:f0:c0:b9:2e:50:
                    53:1e:b1:17:64:69:f4:2d:81:e0:a9:0d:0e:32:e9:
                    ba:55:8a:85:f1:1b:6f:49:79:b4:7f:88:c3:0d:3e:
                    54:88:9b:3d:1f:38:8c:04:f3:ee:6a:63:2b:f5:c6:
                    db:b4:83:aa:c4:78:41:3a:7d:4b:e1:c8:3e:71:ca:
                    1b:61:59:ea:c6:c4:ca:32:5e:c9:e9:bf:12:29:e6:
                    c6:c3:63:fe:a0:55:da:7a:f1:60:98:4d:26:ed:fa:
                    70:2d
                Exponent: 65537 (0x10001)
        X509v3 extensions:
            X509v3 Key Usage: 
                Digital Signature, Key Encipherment
            X509v3 Basic Constraints: 
                CA:FALSE
            Netscape Cert Type: 
                SSL Server
            Netscape Comment: 
                OpenSSL Generated Server Certificate
            X509v3 Subject Key Identifier: 
                53:3F:ED:5D:09:07:B3:65:7B:AB:45:C9:24:5B:09:77:80:0A:96:ED
            X509v3 Authority Key Identifier: 
                keyid:F4:A7:C0:CC:91:46:AF:64:F3:91:F2:27:F8:C8:B2:6F:8A:87:32:73
                DirName:/C=DE/ST=Hessen/O=privacyidea/CN=CA001
                serial:FB:C8:EB:AC:83:CD:12:07

            X509v3 Extended Key Usage: 
                TLS Web Server Authentication
    Signature Algorithm: sha1WithRSAEncryption
         1c:6b:3f:bd:78:97:84:b9:b9:46:ca:7f:57:a2:ea:94:9f:c7:
         46:cb:c9:bb:e2:2b:d8:cb:76:43:24:3b:c6:3e:f2:94:61:32:
         87:3c:24:b1:2c:8b:94:07:14:92:c9:fe:76:2c:7e:13:14:1d:
         22:7a:fd:1f:a1:40:16:56:a7:20:b3:22:ab:33:22:c5:d2:45:
         e6:c8:4f:b2:01:2c:06:fb:09:f3:59:ed:7f:b9:27:c0:54:a5:
         7f:41:18:22:14:4c:bd:f7:27:0d:0a:6d:24:09:5c:2a:e7:cb:
         be:f4:a6:36:b8:10:ba:29:dd:b9:df:84:62:e3:ac:48:70:d1:
         bf:1b:be:f6:00:60:13:ce:58:1e:19:a6:ba:4a:85:19:3f:f4:
         6a:85:bb:79:e1:a7:00:2a:ea:b5:b4:e5:ed:92:e8:53:23:13:
         ba:fb:9d:cb:0c:ae:a8:25:ea:e9:6c:3f:62:48:b6:98:1d:19:
         57:31:3a:11:b6:98:a2:5b:9d:f1:39:16:79:fd:3c:1d:cf:72:
         72:6a:56:17:3a:4f:fe:83:12:7f:b8:be:33:45:a2:56:86:63:
         85:d5:00:70:06:35:b4:21:34:44:90:29:72:fb:cc:15:4a:77:
         ab:20:22:44:c7:31:73:ca:cb:d3:5c:bc:6b:c6:5b:c7:98:1b:
         23:01:a2:7a
-----BEGIN CERTIFICATE-----
MIIEJjCCAw6gAwIBAgIEEAAAkTANBgkqhkiG9w0BAQUFADBEMQswCQYDVQQGEwJE
RTEPMA0GA1UECAwGSGVzc2VuMRQwEgYDVQQKDAtwcml2YWN5aWRlYTEOMAwGA1UE
AwwFQ0EwMDEwHhcNMTUwNjEwMTYyNjM5WhcNMTYwNjA5MTYyNjM5WjBUMQswCQYD
VQQGEwJERTEPMA0GA1UECAwGSGVzc2VuMRQwEgYDVQQKDAtwcml2YWN5aWRlYTEe
MBwGA1UEAwwVcmVxdWVzdGVyLmxvY2FsZG9tYWluMIIBIjANBgkqhkiG9w0BAQEF
AAOCAQ8AMIIBCgKCAQEAzb4UT/rOAT9CIhsdnK/dktJ/22y3PjlDQ2sTA/EF9Ad0
vHZpKAuvGY7X/OPNxljyyn8IbVP8BwJEJMa0NEyMBP4zDkDiILoCc1r39U9jbszG
tt9UHTc5fVE2Jl+93D+oi2uirrad1iHn30G4eigqaEjKqC3t4elGXlpybbSEOIeR
/ZQRCyiExsIvKvsB+TZ6CXXRM4g8c0FbyL+UiXCh8MC5LlBTHrEXZGn0LYHgqQ0O
Mum6VYqF8RtvSXm0f4jDDT5UiJs9HziMBPPuamMr9cbbtIOqxHhBOn1L4cg+ccob
YVnqxsTKMl7J6b8SKebGw2P+oFXaevFgmE0m7fpwLQIDAQABo4IBDjCCAQowCwYD
VR0PBAQDAgWgMAkGA1UdEwQCMAAwEQYJYIZIAYb4QgEBBAQDAgZAMDMGCWCGSAGG
+EIBDQQmFiRPcGVuU1NMIEdlbmVyYXRlZCBTZXJ2ZXIgQ2VydGlmaWNhdGUwHQYD
VR0OBBYEFFM/7V0JB7Nle6tFySRbCXeACpbtMHQGA1UdIwRtMGuAFPSnwMyRRq9k
85HyJ/jIsm+KhzJzoUikRjBEMQswCQYDVQQGEwJERTEPMA0GA1UECAwGSGVzc2Vu
MRQwEgYDVQQKDAtwcml2YWN5aWRlYTEOMAwGA1UEAwwFQ0EwMDGCCQD7yOusg80S
BzATBgNVHSUEDDAKBggrBgEFBQcDATANBgkqhkiG9w0BAQUFAAOCAQEAHGs/vXiX
hLm5Rsp/V6LqlJ/HRsvJu+Ir2Mt2QyQ7xj7ylGEyhzwksSyLlAcUksn+dix+ExQd
Inr9H6FAFlanILMiqzMixdJF5shPsgEsBvsJ81ntf7knwFSlf0EYIhRMvfcnDQpt
JAlcKufLvvSmNrgQuindud+EYuOsSHDRvxu+9gBgE85YHhmmukqFGT/0aoW7eeGn
ACrqtbTl7ZLoUyMTuvudywyuqCXq6Ww/Yki2mB0ZVzE6EbaYolud8TkWef08Hc9y
cmpWFzpP/oMSf7i+M0WiVoZjhdUAcAY1tCE0RJApcvvMFUp3qyAiRMcxc8rL01y8
a8Zbx5gbIwGieg==
-----END CERTIFICATE-----
