Certificate:
    Data:
        Version: 3 (0x2)
        Serial Number: 268435608 (0x10000098)
    Signature Algorithm: sha1WithRSAEncryption
        Issuer: C=DE, ST=Hessen, O=privacyidea, CN=CA001
        Validity
            Not Before: Jun 10 16:42:58 2015 GMT
            Not After : Jun  9 16:42:58 2016 GMT
        Subject: C=DE, ST=Hessen, O=privacyidea, CN=requester.localdomain
        Subject Public Key Info:
            Public Key Algorithm: rsaEncryption
                Public-Key: (2048 bit)
                Modulus:
                    00:cd:be:14:4f:fa:ce:01:3f:42:22:1b:1d:9c:af:
                    dd:92:d2:7f:db:6c:b7:3e:39:43:43:6b:13:03:f1:
                    05:f4:07:74:bc:76:69:28:0b:af:19:8e:d7:fc:e3:
                    cd:c6:58:f2:ca:7f:08:6d:53:fc:07:02:44:24:c6:
                    b4:34:4c:8c:04:fe:33:0e:40:e2:20:ba:02:73:5a:
                    f7:f5:4f:63:6e:cc:c6:b6:df:54:1d:37:39:7d:51:
                    36:26:5f:bd:dc:3f:a8:8b:6b:a2:ae:b6:9d:d6:21:
                    e7:df:41:b8:7a:28:2a:68:48:ca:a8:2d:ed:e1:e9:
                    46:5e:5a:72:6d:b4:84:38:87:91:fd:94:11:0b:28:
                    84:c6:c2:2f:2a:fb:01:f9:36:7a:09:75:d1:33:88:
                    3c:73:41:5b:c8:bf:94:89:70:a1:f0:c0:b9:2e:50:
                    53:1e:b1:17:64:69:f4:2d:81:e0:a9:0d:0e:32:e9:
                    ba:55:8a:85:f1:1b:6f:49:79:b4:7f:88:c3:0d:3e:
                    54:88:9b:3d:1f:38:8c:04:f3:ee:6a:63:2b:f5:c6:
                    db:b4:83:aa:c4:78:41:3a:7d:4b:e1:c8:3e:71:ca:
                    1b:61:59:ea:c6:c4:ca:32:5e:c9:e9:bf:12:29:e6:
                    c6:c3:63:fe:a0:55:da:7a:f1:60:98:4d:26:ed:fa:
                    70:2d
                Exponent: 65537 (0x10001)
        X509v3 extensions:
            X509v3 Key Usage: 
                Digital Signature, Key Encipherment
            X509v3 Basic Constraints: 
                CA:FALSE
            Netscape Cert Type: 
                SSL Server
            Netscape Comment: 
                OpenSSL Generated Server Certificate
            X509v3 Subject Key Identifier: 
                53:3F:ED:5D:09:07:B3:65:7B:AB:45:C9:24:5B:09:77:80:0A:96:ED
            X509v3 Authority Key Identifier: 
                keyid:F4:A7:C0:CC:91:46:AF:64:F3:91:F2:27:F8:C8:B2:6F:8A:87:32:73
                DirName:/C=DE/ST=Hessen/O=privacyidea/CN=CA001
                serial:FB:C8:EB:AC:83:CD:12:07

            X509v3 Extended Key Usage: 
                TLS Web Server Authentication
    Signature Algorithm: sha1WithRSAEncryption
         b4:d7:8f:69:b9:87:7b:8c:a9:84:d1:73:c6:8b:13:11:4e:4d:
         48:7d:ea:ef:04:7f:db:6f:32:f8:72:6c:39:f1:5d:a6:af:9b:
         e9:a2:fd:eb:50:32:a9:0e:ba:88:85:0c:ca:de:b5:d8:8c:bc:
         6f:1e:47:25:d2:51:f5:2b:8a:8d:9d:10:e4:4c:40:b9:cc:63:
         fe:1b:dd:2e:46:0d:d1:c4:65:c2:b5:a5:af:54:b0:18:10:52:
         74:ce:17:f5:c9:9d:d1:23:d8:17:68:34:ab:e8:91:4f:36:fc:
         d2:84:1f:a1:d7:58:4e:a6:e6:13:82:6e:c1:aa:90:dd:4d:ba:
         99:52:56:20:40:25:e9:8f:b2:1f:8b:83:e9:d3:97:15:6c:31:
         49:79:3f:0a:68:02:0e:5c:44:e2:83:a2:1a:7f:ab:4a:bf:04:
         1d:d6:18:5e:4b:32:6f:e5:96:e6:86:16:e5:9b:21:18:47:01:
         d6:e0:4d:f7:92:c8:95:bf:38:3d:12:f0:b3:69:b4:24:bb:92:
         75:61:27:6e:40:c7:34:bc:cf:3c:83:c5:ed:92:b1:e2:cb:72:
         f6:6e:26:af:0e:10:c4:a8:86:8e:17:00:1b:d8:28:7e:2d:42:
         b9:7d:84:4e:c1:a9:5f:30:86:8b:78:6d:47:de:56:8d:70:88:
         d4:dc:f3:76
-----BEGIN CERTIFICATE-----
MIIEJjCCAw6gAwIBAgIEEAAAmDANBgkqhkiG9w0BAQUFADBEMQswCQYDVQQGEwJE
RTEPMA0GA1UECAwGSGVzc2VuMRQwEgYDVQQKDAtwcml2YWN5aWRlYTEOMAwGA1UE
AwwFQ0EwMDEwHhcNMTUwNjEwMTY0MjU4WhcNMTYwNjA5MTY0MjU4WjBUMQswCQYD
VQQGEwJERTEPMA0GA1UECAwGSGVzc2VuMRQwEgYDVQQKDAtwcml2YWN5aWRlYTEe
MBwGA1UEAwwVcmVxdWVzdGVyLmxvY2FsZG9tYWluMIIBIjANBgkqhkiG9w0BAQEF
AAOCAQ8AMIIBCgKCAQEAzb4UT/rOAT9CIhsdnK/dktJ/22y3PjlDQ2sTA/EF9Ad0
vHZpKAuvGY7X/OPNxljyyn8IbVP8BwJEJMa0NEyMBP4zDkDiILoCc1r39U9jbszG
tt9UHTc5fVE2Jl+93D+oi2uirrad1iHn30G4eigqaEjKqC3t4elGXlpybbSEOIeR
/ZQRCyiExsIvKvsB+TZ6CXXRM4g8c0FbyL+UiXCh8MC5LlBTHrEXZGn0LYHgqQ0O
Mum6VYqF8RtvSXm0f4jDDT5UiJs9HziMBPPuamMr9cbbtIOqxHhBOn1L4cg+ccob
YVnqxsTKMl7J6b8SKebGw2P+oFXaevFgmE0m7fpwLQIDAQABo4IBDjCCAQowCwYD
VR0PBAQDAgWgMAkGA1UdEwQCMAAwEQYJYIZIAYb4QgEBBAQDAgZAMDMGCWCGSAGG
+EIBDQQmFiRPcGVuU1NMIEdlbmVyYXRlZCBTZXJ2ZXIgQ2VydGlmaWNhdGUwHQYD
VR0OBBYEFFM/7V0JB7Nle6tFySRbCXeACpbtMHQGA1UdIwRtMGuAFPSnwMyRRq9k
85HyJ/jIsm+KhzJzoUikRjBEMQswCQYDVQQGEwJERTEPMA0GA1UECAwGSGVzc2Vu
MRQwEgYDVQQKDAtwcml2YWN5aWRlYTEOMAwGA1UEAwwFQ0EwMDGCCQD7yOusg80S
BzATBgNVHSUEDDAKBggrBgEFBQcDATANBgkqhkiG9w0BAQUFAAOCAQEAtNePabmH
e4yphNFzxosTEU5NSH3q7wR/228y+HJsOfFdpq+b6aL961AyqQ66iIUMyt612Iy8
bx5HJdJR9SuKjZ0Q5ExAucxj/hvdLkYN0cRlwrWlr1SwGBBSdM4X9cmd0SPYF2g0
q+iRTzb80oQfoddYTqbmE4JuwaqQ3U26mVJWIEAl6Y+yH4uD6dOXFWwxSXk/CmgC
DlxE4oOiGn+rSr8EHdYYXksyb+WW5oYW5ZshGEcB1uBN95LIlb84PRLws2m0JLuS
dWEnbkDHNLzPPIPF7ZKx4sty9m4mrw4QxKiGjhcAG9gofi1CuX2ETsGpXzCGi3ht
R95WjXCI1Nzzdg==
-----END CERTIFICATE-----
