Certificate:
    Data:
        Version: 3 (0x2)
        Serial Number: 268435614 (0x1000009e)
    Signature Algorithm: sha1WithRSAEncryption
        Issuer: C=DE, ST=Hessen, O=privacyidea, CN=CA001
        Validity
            Not Before: Jun  6 16:49:07 2015 GMT
            Not After : Jun  5 16:49:07 2016 GMT
        Subject: CN=selfservice,CN=user,O=realm1/emailAddress=meine
        Subject Public Key Info:
            Public Key Algorithm: rsaEncryption
                Public-Key: (2048 bit)
                Modulus:
                    00:cf:3c:d4:33:0e:12:c4:e6:da:cd:b6:56:a1:1c:
                    26:bb:26:1c:8a:4a:73:a8:58:8a:b6:1e:b3:8b:99:
                    d2:1d:07:c2:92:89:79:c0:69:d8:c8:df:28:61:98:
                    1e:b3:fe:ae:2b:bd:78:a9:f7:6e:47:dc:a3:a0:16:
                    8c:85:02:c1:4e:92:fd:72:6e:f0:c8:03:29:9b:b8:
                    00:6e:c0:83:95:c8:34:20:36:9c:b3:e5:e4:e6:76:
                    73:a3:1a:ad:40:96:e0:53:54:00:ec:76:79:9a:c6:
                    0d:7e:b6:bd:29:ec:83:f3:cb:89:a4:cb:6c:00:ba:
                    0c:c5:78:0f:ff:69:b8:94:f4:04:70:43:3f:d8:9e:
                    d7:a7:fb:5d:ce:75:8e:da:e7:c4:07:b1:9d:de:6f:
                    88:4b:b6:4d:9a:cf:f9:bc:fa:9f:cd:32:6d:f6:3a:
                    0b:0d:23:42:78:ec:97:42:bf:0e:4d:60:56:e1:d3:
                    02:f2:19:cb:84:57:90:e5:70:a1:a2:83:35:86:e2:
                    da:86:9f:f9:8a:c4:79:b3:52:28:da:cb:bb:34:ca:
                    d3:da:91:4a:cf:8d:76:a2:b2:6b:9b:f9:96:fd:09:
                    2a:da:11:23:4d:f0:cb:d6:b2:b1:0e:12:6c:9a:19:
                    65:98:87:ca:e4:ee:24:ce:44:ac:90:8f:9d:1b:c5:
                    2a:9d
                Exponent: 65537 (0x10001)
        X509v3 extensions:
            X509v3 Key Usage: 
                Digital Signature, Key Encipherment
            X509v3 Basic Constraints: 
                CA:FALSE
            Netscape Cert Type: 
                SSL Server
            Netscape Comment: 
                OpenSSL Generated Server Certificate
            X509v3 Subject Key Identifier: 
                4D:07:90:AD:FF:1D:0D:E7:1A:DD:D6:2E:FA:BA:34:CB:AA:1F:24:C6
            X509v3 Authority Key Identifier: 
                keyid:F4:A7:C0:CC:91:46:AF:64:F3:91:F2:27:F8:C8:B2:6F:8A:87:32:73
                DirName:/C=DE/ST=Hessen/O=privacyidea/CN=CA001
                serial:FB:C8:EB:AC:83:CD:12:07

            X509v3 Extended Key Usage: 
                TLS Web Server Authentication
    Signature Algorithm: sha1WithRSAEncryption
         88:76:39:2c:3f:cc:0c:7b:79:85:68:52:39:74:aa:d5:13:ba:
         57:46:94:c4:3f:30:75:f3:a8:57:53:85:6c:42:97:18:b5:05:
         76:cb:05:5f:69:0e:ec:e4:9a:d8:fc:b9:e1:ae:be:c8:b4:d9:
         93:e8:59:2e:05:92:33:58:76:ca:51:cc:99:51:37:4b:34:c8:
         f1:54:45:25:0f:19:80:d0:5b:1b:8b:20:cf:a1:ff:d1:f2:0e:
         c5:fd:3c:18:ee:4b:a1:08:77:ff:c1:1c:f4:7a:61:39:cc:51:
         a4:cf:52:c7:ea:3f:fb:bb:1e:6e:fa:2e:fe:88:99:2f:28:73:
         3f:13:d1:b3:4f:0f:85:26:18:b1:3d:e3:80:a5:44:5e:09:ae:
         96:d2:a4:2a:a0:5c:a0:97:34:07:b1:2f:b9:8e:ba:2a:8c:6c:
         5d:52:0a:d5:15:05:cf:96:35:6c:29:a5:29:b1:7f:24:ef:de:
         c8:c0:85:e5:1d:66:fc:70:01:48:86:5d:41:09:2d:56:a2:73:
         ac:aa:bf:08:35:95:f9:54:b4:29:fb:4c:15:2d:72:89:7e:be:
         32:be:c7:b2:e6:97:a4:b5:5a:23:50:e1:30:e4:df:c3:a3:16:
         94:dd:31:03:d4:0c:97:bb:e9:d6:5e:79:09:e1:3d:bd:5c:52:
         f9:7c:45:96
-----BEGIN CERTIFICATE-----
MIIEDzCCAvegAwIBAgIEEAAAnjANBgkqhkiG9w0BAQUFADBEMQswCQYDVQQGEwJE
RTEPMA0GA1UECAwGSGVzc2VuMRQwEgYDVQQKDAtwcml2YWN5aWRlYTEOMAwGA1UE
AwwFQ0EwMDEwHhcNMTUwNjA2MTY0OTA3WhcNMTYwNjA1MTY0OTA3WjA9MSUwIwYD
VQQDExxzZWxmc2VydmljZSxDTj11c2VyLE89cmVhbG0xMRQwEgYJKoZIhvcNAQkB
FgVtZWluZTCCASIwDQYJKoZIhvcNAQEBBQADggEPADCCAQoCggEBAM881DMOEsTm
2s22VqEcJrsmHIpKc6hYirYes4uZ0h0HwpKJecBp2MjfKGGYHrP+riu9eKn3bkfc
o6AWjIUCwU6S/XJu8MgDKZu4AG7Ag5XINCA2nLPl5OZ2c6MarUCW4FNUAOx2eZrG
DX62vSnsg/PLiaTLbAC6DMV4D/9puJT0BHBDP9ie16f7Xc51jtrnxAexnd5viEu2
TZrP+bz6n80ybfY6Cw0jQnjsl0K/Dk1gVuHTAvIZy4RXkOVwoaKDNYbi2oaf+YrE
ebNSKNrLuzTK09qRSs+NdqKya5v5lv0JKtoRI03wy9aysQ4SbJoZZZiHyuTuJM5E
rJCPnRvFKp0CAwEAAaOCAQ4wggEKMAsGA1UdDwQEAwIFoDAJBgNVHRMEAjAAMBEG
CWCGSAGG+EIBAQQEAwIGQDAzBglghkgBhvhCAQ0EJhYkT3BlblNTTCBHZW5lcmF0
ZWQgU2VydmVyIENlcnRpZmljYXRlMB0GA1UdDgQWBBRNB5Ct/x0N5xrd1i76ujTL
qh8kxjB0BgNVHSMEbTBrgBT0p8DMkUavZPOR8if4yLJviocyc6FIpEYwRDELMAkG
A1UEBhMCREUxDzANBgNVBAgMBkhlc3NlbjEUMBIGA1UECgwLcHJpdmFjeWlkZWEx
DjAMBgNVBAMMBUNBMDAxggkA+8jrrIPNEgcwEwYDVR0lBAwwCgYIKwYBBQUHAwEw
DQYJKoZIhvcNAQEFBQADggEBAIh2OSw/zAx7eYVoUjl0qtUTuldGlMQ/MHXzqFdT
hWxClxi1BXbLBV9pDuzkmtj8ueGuvsi02ZPoWS4FkjNYdspRzJlRN0s0yPFURSUP
GYDQWxuLIM+h/9HyDsX9PBjuS6EId//BHPR6YTnMUaTPUsfqP/u7Hm76Lv6ImS8o
cz8T0bNPD4UmGLE944ClRF4JrpbSpCqgXKCXNAexL7mOuiqMbF1SCtUVBc+WNWwp
pSmxfyTv3sjAheUdZvxwAUiGXUEJLVaic6yqvwg1lflUtCn7TBUtcol+vjK+x7Lm
l6S1WiNQ4TDk38OjFpTdMQPUDJe76dZeeQnhPb1cUvl8RZY=
-----END CERTIFICATE-----
