Certificate:
    Data:
        Version: 3 (0x2)
        Serial Number: 268435607 (0x10000097)
    Signature Algorithm: sha1WithRSAEncryption
        Issuer: C=DE, ST=Hessen, O=privacyidea, CN=CA001
        Validity
            Not Before: Jun 10 16:42:04 2015 GMT
            Not After : Jun  9 16:42:04 2016 GMT
        Subject: C=DE, ST=Hessen, O=privacyidea, CN=requester.localdomain
        Subject Public Key Info:
            Public Key Algorithm: rsaEncryption
                Public-Key: (2048 bit)
                Modulus:
                    00:cd:be:14:4f:fa:ce:01:3f:42:22:1b:1d:9c:af:
                    dd:92:d2:7f:db:6c:b7:3e:39:43:43:6b:13:03:f1:
                    05:f4:07:74:bc:76:69:28:0b:af:19:8e:d7:fc:e3:
                    cd:c6:58:f2:ca:7f:08:6d:53:fc:07:02:44:24:c6:
                    b4:34:4c:8c:04:fe:33:0e:40:e2:20:ba:02:73:5a:
                    f7:f5:4f:63:6e:cc:c6:b6:df:54:1d:37:39:7d:51:
                    36:26:5f:bd:dc:3f:a8:8b:6b:a2:ae:b6:9d:d6:21:
                    e7:df:41:b8:7a:28:2a:68:48:ca:a8:2d:ed:e1:e9:
                    46:5e:5a:72:6d:b4:84:38:87:91:fd:94:11:0b:28:
                    84:c6:c2:2f:2a:fb:01:f9:36:7a:09:75:d1:33:88:
                    3c:73:41:5b:c8:bf:94:89:70:a1:f0:c0:b9:2e:50:
                    53:1e:b1:17:64:69:f4:2d:81:e0:a9:0d:0e:32:e9:
                    ba:55:8a:85:f1:1b:6f:49:79:b4:7f:88:c3:0d:3e:
                    54:88:9b:3d:1f:38:8c:04:f3:ee:6a:63:2b:f5:c6:
                    db:b4:83:aa:c4:78:41:3a:7d:4b:e1:c8:3e:71:ca:
                    1b:61:59:ea:c6:c4:ca:32:5e:c9:e9:bf:12:29:e6:
                    c6:c3:63:fe:a0:55:da:7a:f1:60:98:4d:26:ed:fa:
                    70:2d
                Exponent: 65537 (0x10001)
        X509v3 extensions:
            X509v3 Key Usage: 
                Digital Signature, Key Encipherment
            X509v3 Basic Constraints: 
                CA:FALSE
            Netscape Cert Type: 
                SSL Server
            Netscape Comment: 
                OpenSSL Generated Server Certificate
            X509v3 Subject Key Identifier: 
                53:3F:ED:5D:09:07:B3:65:7B:AB:45:C9:24:5B:09:77:80:0A:96:ED
            X509v3 Authority Key Identifier: 
                keyid:F4:A7:C0:CC:91:46:AF:64:F3:91:F2:27:F8:C8:B2:6F:8A:87:32:73
                DirName:/C=DE/ST=Hessen/O=privacyidea/CN=CA001
                serial:FB:C8:EB:AC:83:CD:12:07

            X509v3 Extended Key Usage: 
                TLS Web Server Authentication
    Signature Algorithm: sha1WithRSAEncryption
         b0:1a:b0:2d:1c:78:18:62:d2:b6:66:2c:c5:81:a0:99:be:06:
         91:a6:80:f4:c0:ea:95:2f:38:de:dc:48:9a:28:04:75:6c:ba:
         f0:3c:16:26:6c:a9:bc:e9:31:c4:4c:ea:90:1b:17:e0:a6:1a:
         a3:14:53:4f:fd:00:52:c0:40:79:16:b4:26:a2:89:79:a7:40:
         09:7e:05:27:3b:c2:db:a9:20:81:06:81:64:0a:3f:3d:1c:0b:
         8e:c8:cf:b3:5b:a0:8c:48:78:57:4f:07:2c:89:3e:66:22:f0:
         02:22:28:c0:bd:85:36:33:79:e6:76:47:d7:d6:ee:6f:8b:14:
         86:5a:14:bf:36:5b:d3:28:33:2b:5e:e6:f5:bf:7e:cd:55:39:
         87:5b:33:24:f8:01:de:89:ea:6a:9e:13:d7:8a:48:a6:f1:ec:
         2c:01:96:a2:8f:3b:cc:01:ca:fa:3b:e3:da:8b:5b:c7:ae:64:
         20:76:c2:e0:85:62:bb:d7:3e:78:56:8c:37:3d:b6:e6:b7:56:
         7f:bb:d1:01:00:0b:18:3e:42:e3:01:26:f4:fd:74:bf:80:0f:
         5b:ad:db:08:ab:9d:91:05:23:90:35:5f:dc:94:5e:da:cd:22:
         98:7a:d8:26:9c:22:07:16:4e:9c:29:e6:a3:e8:6c:a8:d2:d1:
         6b:c9:14:6f
-----BEGIN CERTIFICATE-----
MIIEJjCCAw6gAwIBAgIEEAAAlzANBgkqhkiG9w0BAQUFADBEMQswCQYDVQQGEwJE
RTEPMA0GA1UECAwGSGVzc2VuMRQwEgYDVQQKDAtwcml2YWN5aWRlYTEOMAwGA1UE
AwwFQ0EwMDEwHhcNMTUwNjEwMTY0MjA0WhcNMTYwNjA5MTY0MjA0WjBUMQswCQYD
VQQGEwJERTEPMA0GA1UECAwGSGVzc2VuMRQwEgYDVQQKDAtwcml2YWN5aWRlYTEe
MBwGA1UEAwwVcmVxdWVzdGVyLmxvY2FsZG9tYWluMIIBIjANBgkqhkiG9w0BAQEF
AAOCAQ8AMIIBCgKCAQEAzb4UT/rOAT9CIhsdnK/dktJ/22y3PjlDQ2sTA/EF9Ad0
vHZpKAuvGY7X/OPNxljyyn8IbVP8BwJEJMa0NEyMBP4zDkDiILoCc1r39U9jbszG
tt9UHTc5fVE2Jl+93D+oi2uirrad1iHn30G4eigqaEjKqC3t4elGXlpybbSEOIeR
/ZQRCyiExsIvKvsB+TZ6CXXRM4g8c0FbyL+UiXCh8MC5LlBTHrEXZGn0LYHgqQ0O
Mum6VYqF8RtvSXm0f4jDDT5UiJs9HziMBPPuamMr9cbbtIOqxHhBOn1L4cg+ccob
YVnqxsTKMl7J6b8SKebGw2P+oFXaevFgmE0m7fpwLQIDAQABo4IBDjCCAQowCwYD
VR0PBAQDAgWgMAkGA1UdEwQCMAAwEQYJYIZIAYb4QgEBBAQDAgZAMDMGCWCGSAGG
+EIBDQQmFiRPcGVuU1NMIEdlbmVyYXRlZCBTZXJ2ZXIgQ2VydGlmaWNhdGUwHQYD
VR0OBBYEFFM/7V0JB7Nle6tFySRbCXeACpbtMHQGA1UdIwRtMGuAFPSnwMyRRq9k
85HyJ/jIsm+KhzJzoUikRjBEMQswCQYDVQQGEwJERTEPMA0GA1UECAwGSGVzc2Vu
MRQwEgYDVQQKDAtwcml2YWN5aWRlYTEOMAwGA1UEAwwFQ0EwMDGCCQD7yOusg80S
BzATBgNVHSUEDDAKBggrBgEFBQcDATANBgkqhkiG9w0BAQUFAAOCAQEAsBqwLRx4
GGLStmYsxYGgmb4GkaaA9MDqlS843txImigEdWy68DwWJmypvOkxxEzqkBsX4KYa
oxRTT/0AUsBAeRa0JqKJeadACX4FJzvC26kggQaBZAo/PRwLjsjPs1ugjEh4V08H
LIk+ZiLwAiIowL2FNjN55nZH19bub4sUhloUvzZb0ygzK17m9b9+zVU5h1szJPgB
3onqap4T14pIpvHsLAGWoo87zAHK+jvj2otbx65kIHbC4IViu9c+eFaMNz225rdW
f7vRAQALGD5C4wEm9P10v4APW63bCKudkQUjkDVf3JRe2s0imHrYJpwiBxZOnCnm
o+hsqNLRa8kUbw==
-----END CERTIFICATE-----
