Certificate:
    Data:
        Version: 3 (0x2)
        Serial Number: 268435603 (0x10000093)
    Signature Algorithm: sha1WithRSAEncryption
        Issuer: C=DE, ST=Hessen, O=privacyidea, CN=CA001
        Validity
            Not Before: Jun 10 16:27:34 2015 GMT
            Not After : Jun  9 16:27:34 2016 GMT
        Subject: C=DE, ST=Hessen, O=privacyidea, CN=usercert
        Subject Public Key Info:
            Public Key Algorithm: rsaEncryption
                Public-Key: (2048 bit)
                Modulus:
                    00:dc:2f:d1:5f:29:97:d4:7c:c3:53:c8:30:bd:4b:
                    67:70:2c:24:6b:b8:5e:eb:21:7a:48:12:56:7c:81:
                    5c:48:75:b6:68:eb:f6:f2:98:4e:50:51:d1:7f:6c:
                    73:f3:0a:a7:ae:be:48:5e:e5:d6:e1:d9:2a:7c:32:
                    6e:4e:fd:08:f6:5a:54:49:23:73:c3:b9:07:18:d1:
                    ef:b3:ac:f8:8a:dc:94:96:a4:90:3a:8e:74:df:e6:
                    0d:37:1b:bd:5b:b7:25:1a:56:39:da:6f:91:aa:5e:
                    1c:74:f3:f9:7c:14:01:83:12:65:76:c7:bb:fe:36:
                    5b:95:e9:72:65:83:ed:3e:98:30:71:fa:87:dd:a3:
                    36:5a:30:03:2e:26:e0:61:d1:bf:02:3f:b6:06:1f:
                    4a:89:28:1c:5c:a2:ff:4e:be:94:e6:8c:e0:da:82:
                    f1:9d:29:32:48:30:73:b4:04:f6:42:1e:be:f7:e2:
                    32:32:27:3c:9d:89:2f:70:3e:85:9a:6f:5c:c5:09:
                    c0:8c:32:2f:72:22:c9:d2:95:1f:b6:ac:72:60:72:
                    b7:82:4d:6b:ce:5b:e3:00:d0:d2:2f:58:c6:e0:10:
                    e5:51:ca:4d:3b:2e:e6:7e:ab:84:d6:56:f1:93:35:
                    a0:93:64:26:81:75:2f:91:b5:16:06:38:0b:db:cc:
                    2d:07
                Exponent: 65537 (0x10001)
        X509v3 extensions:
            X509v3 Key Usage: 
                Digital Signature, Key Encipherment
            X509v3 Basic Constraints: 
                CA:FALSE
            Netscape Cert Type: 
                SSL Server
            Netscape Comment: 
                OpenSSL Generated Server Certificate
            X509v3 Subject Key Identifier: 
                FC:14:D1:F0:4B:8D:00:90:F2:F5:B8:71:9E:4E:97:C3:92:54:AD:0B
            X509v3 Authority Key Identifier: 
                keyid:F4:A7:C0:CC:91:46:AF:64:F3:91:F2:27:F8:C8:B2:6F:8A:87:32:73
                DirName:/C=DE/ST=Hessen/O=privacyidea/CN=CA001
                serial:FB:C8:EB:AC:83:CD:12:07

            X509v3 Extended Key Usage: 
                TLS Web Server Authentication
    Signature Algorithm: sha1WithRSAEncryption
         9c:cd:39:23:01:cb:6e:9a:ff:46:3f:d8:c9:68:f9:5b:7c:7a:
         f0:6b:08:cf:11:64:46:45:f4:11:77:3e:7b:ca:84:dc:f6:dc:
         85:98:1d:42:63:33:f4:c8:13:95:66:02:90:c0:15:3b:55:0b:
         30:8b:c4:b0:7c:e0:7d:33:fb:ea:f2:a4:b7:ec:4f:60:af:9e:
         f6:57:3d:7b:f9:8f:fa:e1:42:0d:35:3d:82:d4:c3:af:ae:bb:
         80:fa:24:65:c5:95:af:12:b3:1f:0b:b0:d3:7c:b2:44:33:31:
         14:05:d0:f9:21:d4:4f:2f:0d:a4:89:2f:d3:a7:5b:1a:db:53:
         11:d7:51:0b:21:7f:3a:45:82:ff:84:3d:7b:70:04:a6:49:c9:
         94:c8:3f:30:0e:fd:36:4d:f9:ac:b1:43:ce:a7:34:16:76:ba:
         dc:ba:f3:a9:96:62:ab:9a:0e:a0:c4:e5:fb:f3:8a:da:6a:63:
         a8:b8:68:ba:73:1b:e4:15:cb:66:2f:db:71:1d:a7:32:62:8b:
         3b:06:10:9b:69:cf:3b:1c:29:e5:5c:5a:2e:e3:52:10:8e:51:
         f4:69:8b:a7:44:e6:02:e6:cb:8a:69:3a:eb:6a:95:6a:e6:c1:
         62:1a:1b:ca:f7:12:a1:ba:9f:47:f7:06:6b:bd:72:28:7e:22:
         2b:d6:f7:a5
-----BEGIN CERTIFICATE-----
MIIEGTCCAwGgAwIBAgIEEAAAkzANBgkqhkiG9w0BAQUFADBEMQswCQYDVQQGEwJE
RTEPMA0GA1UECAwGSGVzc2VuMRQwEgYDVQQKDAtwcml2YWN5aWRlYTEOMAwGA1UE
AwwFQ0EwMDEwHhcNMTUwNjEwMTYyNzM0WhcNMTYwNjA5MTYyNzM0WjBHMQswCQYD
VQQGEwJERTEPMA0GA1UECAwGSGVzc2VuMRQwEgYDVQQKDAtwcml2YWN5aWRlYTER
MA8GA1UEAwwIdXNlcmNlcnQwggEiMA0GCSqGSIb3DQEBAQUAA4IBDwAwggEKAoIB
AQDcL9FfKZfUfMNTyDC9S2dwLCRruF7rIXpIElZ8gVxIdbZo6/bymE5QUdF/bHPz
Cqeuvkhe5dbh2Sp8Mm5O/Qj2WlRJI3PDuQcY0e+zrPiK3JSWpJA6jnTf5g03G71b
tyUaVjnab5GqXhx08/l8FAGDEmV2x7v+NluV6XJlg+0+mDBx+ofdozZaMAMuJuBh
0b8CP7YGH0qJKBxcov9OvpTmjODagvGdKTJIMHO0BPZCHr734jIyJzydiS9wPoWa
b1zFCcCMMi9yIsnSlR+2rHJgcreCTWvOW+MA0NIvWMbgEOVRyk07LuZ+q4TWVvGT
NaCTZCaBdS+RtRYGOAvbzC0HAgMBAAGjggEOMIIBCjALBgNVHQ8EBAMCBaAwCQYD
VR0TBAIwADARBglghkgBhvhCAQEEBAMCBkAwMwYJYIZIAYb4QgENBCYWJE9wZW5T
U0wgR2VuZXJhdGVkIFNlcnZlciBDZXJ0aWZpY2F0ZTAdBgNVHQ4EFgQU/BTR8EuN
AJDy9bhxnk6Xw5JUrQswdAYDVR0jBG0wa4AU9KfAzJFGr2TzkfIn+Miyb4qHMnOh
SKRGMEQxCzAJBgNVBAYTAkRFMQ8wDQYDVQQIDAZIZXNzZW4xFDASBgNVBAoMC3By
aXZhY3lpZGVhMQ4wDAYDVQQDDAVDQTAwMYIJAPvI66yDzRIHMBMGA1UdJQQMMAoG
CCsGAQUFBwMBMA0GCSqGSIb3DQEBBQUAA4IBAQCczTkjActumv9GP9jJaPlbfHrw
awjPEWRGRfQRdz57yoTc9tyFmB1CYzP0yBOVZgKQwBU7VQswi8SwfOB9M/vq8qS3
7E9gr572Vz17+Y/64UINNT2C1MOvrruA+iRlxZWvErMfC7DTfLJEMzEUBdD5IdRP
Lw2kiS/Tp1sa21MR11ELIX86RYL/hD17cASmScmUyD8wDv02TfmssUPOpzQWdrrc
uvOplmKrmg6gxOX784raamOouGi6cxvkFctmL9txHacyYos7BhCbac87HCnlXFou
41IQjlH0aYunROYC5suKaTrrapVq5sFiGhvK9xKhup9H9wZrvXIofiIr1vel
-----END CERTIFICATE-----
