Certificate:
    Data:
        Version: 3 (0x2)
        Serial Number: 268435604 (0x10000094)
    Signature Algorithm: sha1WithRSAEncryption
        Issuer: C=DE, ST=Hessen, O=privacyidea, CN=CA001
        Validity
            Not Before: Jun 10 16:27:34 2015 GMT
            Not After : Jun  9 16:27:34 2016 GMT
        Subject: CN=Steve Test/emailAddress=steve@openssl.org
        Subject Public Key Info:
            Public Key Algorithm: rsaEncryption
                Public-Key: (2048 bit)
                Modulus:
                    00:d2:81:89:20:51:48:0f:73:f4:11:32:24:d5:1f:
                    1c:fd:5c:f5:b6:e6:c5:f0:52:81:dc:d2:af:66:4a:
                    7c:93:31:61:5c:af:d1:6d:06:70:03:60:7c:72:0c:
                    88:dd:49:cd:9e:02:6c:d2:5a:d7:53:0f:f3:da:be:
                    69:64:b5:0f:0c:00:e3:b3:50:47:a3:b3:9b:ba:13:
                    50:d6:58:5a:4b:ab:39:e0:11:ca:0a:27:67:03:78:
                    22:66:6d:92:1e:1b:5c:49:ae:e6:6b:d1:8e:3b:9d:
                    06:d3:c6:ac:4d:53:43:10:ab:e8:96:c1:87:82:97:
                    99:8f:20:d3:99:12:37:31:84:e1:8a:ff:29:03:5f:
                    22:90:3e:7f:9b:e0:20:c1:ad:dc:ae:4c:39:1a:31:
                    96:17:02:8c:b2:d9:b4:0d:20:12:9b:7d:86:54:fd:
                    33:fd:c1:2a:62:46:f8:60:96:cf:6e:01:6f:22:df:
                    13:47:e7:97:ec:05:72:23:a3:62:f8:fa:ef:ac:9c:
                    72:f0:37:cb:2f:37:cf:90:a8:27:51:86:c6:d7:78:
                    08:8f:7e:25:a2:15:70:a2:fb:1c:b6:15:5e:a0:97:
                    8b:81:4c:09:28:8a:27:3b:94:bc:71:db:5b:71:37:
                    9a:2b:16:e0:6f:b5:c9:f5:4b:4f:20:ba:65:cf:af:
                    ad:ad
                Exponent: 65537 (0x10001)
        X509v3 extensions:
            X509v3 Key Usage: 
                Digital Signature, Key Encipherment
            X509v3 Basic Constraints: 
                CA:FALSE
            Netscape Cert Type: 
                SSL Server
            Netscape Comment: 
                OpenSSL Generated Server Certificate
            X509v3 Subject Key Identifier: 
                E5:25:6D:3E:AF:0D:DD:3F:4C:F2:45:19:39:D5:14:DB:7E:9C:C0:AD
            X509v3 Authority Key Identifier: 
                keyid:F4:A7:C0:CC:91:46:AF:64:F3:91:F2:27:F8:C8:B2:6F:8A:87:32:73
                DirName:/C=DE/ST=Hessen/O=privacyidea/CN=CA001
                serial:FB:C8:EB:AC:83:CD:12:07

            X509v3 Extended Key Usage: 
                TLS Web Server Authentication
    Signature Algorithm: sha1WithRSAEncryption
         18:75:e6:03:21:5f:53:d0:03:7c:d7:d5:06:03:9f:12:48:bc:
         41:5b:93:83:5a:57:68:76:cb:eb:7e:1d:92:93:0d:e1:a5:1e:
         b0:0a:7a:39:c5:81:d4:05:ca:98:77:53:ab:20:ea:46:9a:62:
         0e:4f:e0:ac:de:83:3e:70:dc:dc:b8:36:37:1e:b0:6f:69:56:
         4f:23:72:04:54:3e:5c:cc:07:07:8d:fd:e8:fa:36:04:d8:b0:
         ad:85:60:8c:1a:62:ad:fb:90:c4:87:62:c8:fe:ab:54:d0:7a:
         25:ed:85:06:5b:05:bf:b7:2f:dd:ff:d6:80:0d:91:e6:2e:84:
         1a:54:c5:7d:7f:54:10:31:5a:64:f2:73:77:f5:10:56:a9:f4:
         2f:41:34:36:3a:57:4c:27:44:01:87:b4:ef:c1:7f:d2:6b:1a:
         87:69:3b:f7:86:72:38:70:95:89:b8:be:ed:cf:0f:f6:8d:6d:
         f6:6d:ef:79:5f:8d:48:26:98:2a:b4:31:42:ed:40:23:0b:a9:
         4f:26:08:54:fd:f1:bc:62:24:27:81:b7:72:ab:6a:d3:89:78:
         64:fc:7f:67:cd:f8:f4:e7:1d:a7:90:c7:9f:1d:09:9e:1e:8f:
         e4:cc:bd:67:0e:20:c1:ba:8b:43:a2:2c:63:c9:50:1e:bb:dd:
         b4:63:0c:06
-----BEGIN CERTIFICATE-----
MIIECTCCAvGgAwIBAgIEEAAAlDANBgkqhkiG9w0BAQUFADBEMQswCQYDVQQGEwJE
RTEPMA0GA1UECAwGSGVzc2VuMRQwEgYDVQQKDAtwcml2YWN5aWRlYTEOMAwGA1UE
AwwFQ0EwMDEwHhcNMTUwNjEwMTYyNzM0WhcNMTYwNjA5MTYyNzM0WjA3MRMwEQYD
VQQDEwpTdGV2ZSBUZXN0MSAwHgYJKoZIhvcNAQkBFhFzdGV2ZUBvcGVuc3NsLm9y
ZzCCASIwDQYJKoZIhvcNAQEBBQADggEPADCCAQoCggEBANKBiSBRSA9z9BEyJNUf
HP1c9bbmxfBSgdzSr2ZKfJMxYVyv0W0GcANgfHIMiN1JzZ4CbNJa11MP89q+aWS1
DwwA47NQR6Ozm7oTUNZYWkurOeARygonZwN4ImZtkh4bXEmu5mvRjjudBtPGrE1T
QxCr6JbBh4KXmY8g05kSNzGE4Yr/KQNfIpA+f5vgIMGt3K5MORoxlhcCjLLZtA0g
Ept9hlT9M/3BKmJG+GCWz24BbyLfE0fnl+wFciOjYvj676yccvA3yy83z5CoJ1GG
xtd4CI9+JaIVcKL7HLYVXqCXi4FMCSiKJzuUvHHbW3E3misW4G+1yfVLTyC6Zc+v
ra0CAwEAAaOCAQ4wggEKMAsGA1UdDwQEAwIFoDAJBgNVHRMEAjAAMBEGCWCGSAGG
+EIBAQQEAwIGQDAzBglghkgBhvhCAQ0EJhYkT3BlblNTTCBHZW5lcmF0ZWQgU2Vy
dmVyIENlcnRpZmljYXRlMB0GA1UdDgQWBBTlJW0+rw3dP0zyRRk51RTbfpzArTB0
BgNVHSMEbTBrgBT0p8DMkUavZPOR8if4yLJviocyc6FIpEYwRDELMAkGA1UEBhMC
REUxDzANBgNVBAgMBkhlc3NlbjEUMBIGA1UECgwLcHJpdmFjeWlkZWExDjAMBgNV
BAMMBUNBMDAxggkA+8jrrIPNEgcwEwYDVR0lBAwwCgYIKwYBBQUHAwEwDQYJKoZI
hvcNAQEFBQADggEBABh15gMhX1PQA3zX1QYDnxJIvEFbk4NaV2h2y+t+HZKTDeGl
HrAKejnFgdQFyph3U6sg6kaaYg5P4Kzegz5w3Ny4NjcesG9pVk8jcgRUPlzMBweN
/ej6NgTYsK2FYIwaYq37kMSHYsj+q1TQeiXthQZbBb+3L93/1oANkeYuhBpUxX1/
VBAxWmTyc3f1EFap9C9BNDY6V0wnRAGHtO/Bf9JrGodpO/eGcjhwlYm4vu3PD/aN
bfZt73lfjUgmmCq0MULtQCMLqU8mCFT98bxiJCeBt3KratOJeGT8f2fN+PTnHaeQ
x58dCZ4ej+TMvWcOIMG6i0OiLGPJUB673bRjDAY=
-----END CERTIFICATE-----
