Certificate:
    Data:
        Version: 3 (0x2)
        Serial Number: 268435613 (0x1000009d)
    Signature Algorithm: sha1WithRSAEncryption
        Issuer: C=DE, ST=Hessen, O=privacyidea, CN=CA001
        Validity
            Not Before: Jun  6 16:45:34 2015 GMT
            Not After : Jun  5 16:45:34 2016 GMT
        Subject: C=DE, ST=Hessen, O=privacyidea, CN=requester.localdomain
        Subject Public Key Info:
            Public Key Algorithm: rsaEncryption
                Public-Key: (2048 bit)
                Modulus:
                    00:cd:be:14:4f:fa:ce:01:3f:42:22:1b:1d:9c:af:
                    dd:92:d2:7f:db:6c:b7:3e:39:43:43:6b:13:03:f1:
                    05:f4:07:74:bc:76:69:28:0b:af:19:8e:d7:fc:e3:
                    cd:c6:58:f2:ca:7f:08:6d:53:fc:07:02:44:24:c6:
                    b4:34:4c:8c:04:fe:33:0e:40:e2:20:ba:02:73:5a:
                    f7:f5:4f:63:6e:cc:c6:b6:df:54:1d:37:39:7d:51:
                    36:26:5f:bd:dc:3f:a8:8b:6b:a2:ae:b6:9d:d6:21:
                    e7:df:41:b8:7a:28:2a:68:48:ca:a8:2d:ed:e1:e9:
                    46:5e:5a:72:6d:b4:84:38:87:91:fd:94:11:0b:28:
                    84:c6:c2:2f:2a:fb:01:f9:36:7a:09:75:d1:33:88:
                    3c:73:41:5b:c8:bf:94:89:70:a1:f0:c0:b9:2e:50:
                    53:1e:b1:17:64:69:f4:2d:81:e0:a9:0d:0e:32:e9:
                    ba:55:8a:85:f1:1b:6f:49:79:b4:7f:88:c3:0d:3e:
                    54:88:9b:3d:1f:38:8c:04:f3:ee:6a:63:2b:f5:c6:
                    db:b4:83:aa:c4:78:41:3a:7d:4b:e1:c8:3e:71:ca:
                    1b:61:59:ea:c6:c4:ca:32:5e:c9:e9:bf:12:29:e6:
                    c6:c3:63:fe:a0:55:da:7a:f1:60:98:4d:26:ed:fa:
                    70:2d
                Exponent: 65537 (0x10001)
        X509v3 extensions:
            X509v3 Key Usage: 
                Digital Signature, Key Encipherment
            X509v3 Basic Constraints: 
                CA:FALSE
            Netscape Cert Type: 
                SSL Server
            Netscape Comment: 
                OpenSSL Generated Server Certificate
            X509v3 Subject Key Identifier: 
                53:3F:ED:5D:09:07:B3:65:7B:AB:45:C9:24:5B:09:77:80:0A:96:ED
            X509v3 Authority Key Identifier: 
                keyid:F4:A7:C0:CC:91:46:AF:64:F3:91:F2:27:F8:C8:B2:6F:8A:87:32:73
                DirName:/C=DE/ST=Hessen/O=privacyidea/CN=CA001
                serial:FB:C8:EB:AC:83:CD:12:07

            X509v3 Extended Key Usage: 
                TLS Web Server Authentication
    Signature Algorithm: sha1WithRSAEncryption
         9b:a3:19:b0:15:60:e1:49:7d:06:1f:ea:af:4b:ee:10:d8:45:
         04:f2:fa:cd:34:9a:d2:e8:1d:af:a1:45:b5:5a:88:2d:67:ba:
         9d:ab:d6:24:7b:32:d4:10:d2:ee:77:f0:7e:1c:02:80:b0:23:
         04:3d:fb:7f:e1:86:63:a2:e9:f6:f2:e2:22:81:d8:ab:b7:d2:
         53:18:79:3a:1e:c1:32:60:83:ff:80:06:b9:e6:ac:9a:3d:ae:
         dd:15:4d:27:32:11:af:65:5f:d8:0f:f2:f3:d9:42:b3:6b:4e:
         3a:20:7e:4b:f1:17:0a:2a:4b:4a:3c:15:c1:a3:a3:d3:6e:66:
         db:e7:c8:8b:79:2f:2f:08:be:27:e2:23:19:f0:ea:2e:ee:35:
         fd:63:03:df:7d:bc:e9:01:82:44:81:8a:4a:f4:6e:58:b6:f4:
         3a:80:68:62:4b:ae:08:83:8f:72:51:fc:c3:7c:98:b4:65:5e:
         44:ab:7a:c8:80:54:c6:dc:06:1b:0c:2a:81:81:fc:67:2a:c9:
         81:72:01:37:7d:32:86:a6:63:db:22:6b:2e:07:88:fd:90:62:
         c0:9c:e2:d5:58:9f:42:ca:89:81:8f:95:1d:23:e6:fe:5a:3a:
         c1:ed:7c:f3:73:a9:29:cb:4e:ec:d9:5b:f9:0f:98:8a:94:6c:
         7b:83:97:95
-----BEGIN CERTIFICATE-----
MIIEJjCCAw6gAwIBAgIEEAAAnTANBgkqhkiG9w0BAQUFADBEMQswCQYDVQQGEwJE
RTEPMA0GA1UECAwGSGVzc2VuMRQwEgYDVQQKDAtwcml2YWN5aWRlYTEOMAwGA1UE
AwwFQ0EwMDEwHhcNMTUwNjA2MTY0NTM0WhcNMTYwNjA1MTY0NTM0WjBUMQswCQYD
VQQGEwJERTEPMA0GA1UECAwGSGVzc2VuMRQwEgYDVQQKDAtwcml2YWN5aWRlYTEe
MBwGA1UEAwwVcmVxdWVzdGVyLmxvY2FsZG9tYWluMIIBIjANBgkqhkiG9w0BAQEF
AAOCAQ8AMIIBCgKCAQEAzb4UT/rOAT9CIhsdnK/dktJ/22y3PjlDQ2sTA/EF9Ad0
vHZpKAuvGY7X/OPNxljyyn8IbVP8BwJEJMa0NEyMBP4zDkDiILoCc1r39U9jbszG
tt9UHTc5fVE2Jl+93D+oi2uirrad1iHn30G4eigqaEjKqC3t4elGXlpybbSEOIeR
/ZQRCyiExsIvKvsB+TZ6CXXRM4g8c0FbyL+UiXCh8MC5LlBTHrEXZGn0LYHgqQ0O
Mum6VYqF8RtvSXm0f4jDDT5UiJs9HziMBPPuamMr9cbbtIOqxHhBOn1L4cg+ccob
YVnqxsTKMl7J6b8SKebGw2P+oFXaevFgmE0m7fpwLQIDAQABo4IBDjCCAQowCwYD
VR0PBAQDAgWgMAkGA1UdEwQCMAAwEQYJYIZIAYb4QgEBBAQDAgZAMDMGCWCGSAGG
+EIBDQQmFiRPcGVuU1NMIEdlbmVyYXRlZCBTZXJ2ZXIgQ2VydGlmaWNhdGUwHQYD
VR0OBBYEFFM/7V0JB7Nle6tFySRbCXeACpbtMHQGA1UdIwRtMGuAFPSnwMyRRq9k
85HyJ/jIsm+KhzJzoUikRjBEMQswCQYDVQQGEwJERTEPMA0GA1UECAwGSGVzc2Vu
MRQwEgYDVQQKDAtwcml2YWN5aWRlYTEOMAwGA1UEAwwFQ0EwMDGCCQD7yOusg80S
BzATBgNVHSUEDDAKBggrBgEFBQcDATANBgkqhkiG9w0BAQUFAAOCAQEAm6MZsBVg
4Ul9Bh/qr0vuENhFBPL6zTSa0ugdr6FFtVqILWe6navWJHsy1BDS7nfwfhwCgLAj
BD37f+GGY6Lp9vLiIoHYq7fSUxh5Oh7BMmCD/4AGueasmj2u3RVNJzIRr2Vf2A/y
89lCs2tOOiB+S/EXCipLSjwVwaOj025m2+fIi3kvLwi+J+IjGfDqLu41/WMD3328
6QGCRIGKSvRuWLb0OoBoYkuuCIOPclH8w3yYtGVeRKt6yIBUxtwGGwwqgYH8ZyrJ
gXIBN30yhqZj2yJrLgeI/ZBiwJzi1VifQsqJgY+VHSPm/lo6we1883OpKctO7Nlb
+Q+YipRse4OXlQ==
-----END CERTIFICATE-----
