Certificate:
    Data:
        Version: 3 (0x2)
        Serial Number: 268435612 (0x1000009c)
    Signature Algorithm: sha1WithRSAEncryption
        Issuer: C=DE, ST=Hessen, O=privacyidea, CN=CA001
        Validity
            Not Before: Jun 10 16:50:42 2015 GMT
            Not After : Jun  9 16:50:42 2016 GMT
        Subject: CN=selfservice,CN=user,O=realm1/emailAddress=meine
        Subject Public Key Info:
            Public Key Algorithm: rsaEncryption
                Public-Key: (2048 bit)
                Modulus:
                    00:cf:3c:d4:33:0e:12:c4:e6:da:cd:b6:56:a1:1c:
                    26:bb:26:1c:8a:4a:73:a8:58:8a:b6:1e:b3:8b:99:
                    d2:1d:07:c2:92:89:79:c0:69:d8:c8:df:28:61:98:
                    1e:b3:fe:ae:2b:bd:78:a9:f7:6e:47:dc:a3:a0:16:
                    8c:85:02:c1:4e:92:fd:72:6e:f0:c8:03:29:9b:b8:
                    00:6e:c0:83:95:c8:34:20:36:9c:b3:e5:e4:e6:76:
                    73:a3:1a:ad:40:96:e0:53:54:00:ec:76:79:9a:c6:
                    0d:7e:b6:bd:29:ec:83:f3:cb:89:a4:cb:6c:00:ba:
                    0c:c5:78:0f:ff:69:b8:94:f4:04:70:43:3f:d8:9e:
                    d7:a7:fb:5d:ce:75:8e:da:e7:c4:07:b1:9d:de:6f:
                    88:4b:b6:4d:9a:cf:f9:bc:fa:9f:cd:32:6d:f6:3a:
                    0b:0d:23:42:78:ec:97:42:bf:0e:4d:60:56:e1:d3:
                    02:f2:19:cb:84:57:90:e5:70:a1:a2:83:35:86:e2:
                    da:86:9f:f9:8a:c4:79:b3:52:28:da:cb:bb:34:ca:
                    d3:da:91:4a:cf:8d:76:a2:b2:6b:9b:f9:96:fd:09:
                    2a:da:11:23:4d:f0:cb:d6:b2:b1:0e:12:6c:9a:19:
                    65:98:87:ca:e4:ee:24:ce:44:ac:90:8f:9d:1b:c5:
                    2a:9d
                Exponent: 65537 (0x10001)
        X509v3 extensions:
            X509v3 Key Usage: 
                Digital Signature, Key Encipherment
            X509v3 Basic Constraints: 
                CA:FALSE
            Netscape Cert Type: 
                SSL Server
            Netscape Comment: 
                OpenSSL Generated Server Certificate
            X509v3 Subject Key Identifier: 
                4D:07:90:AD:FF:1D:0D:E7:1A:DD:D6:2E:FA:BA:34:CB:AA:1F:24:C6
            X509v3 Authority Key Identifier: 
                keyid:F4:A7:C0:CC:91:46:AF:64:F3:91:F2:27:F8:C8:B2:6F:8A:87:32:73
                DirName:/C=DE/ST=Hessen/O=privacyidea/CN=CA001
                serial:FB:C8:EB:AC:83:CD:12:07

            X509v3 Extended Key Usage: 
                TLS Web Server Authentication
    Signature Algorithm: sha1WithRSAEncryption
         b4:4c:1b:63:93:42:97:06:69:b1:7f:56:8f:9a:ff:fd:c7:0a:
         09:76:29:6e:e6:5c:d0:f3:9e:c8:38:54:51:29:b8:b3:30:cf:
         65:80:c1:9a:9a:fc:13:59:9f:c5:db:24:5f:1c:94:42:0d:27:
         19:3e:c3:cf:a0:34:fd:e2:9d:77:0e:5c:60:eb:40:05:f8:54:
         44:58:27:ac:45:82:40:e2:55:e0:ed:19:63:f5:51:9e:51:22:
         72:79:9f:ee:35:c0:29:99:a4:f4:09:05:17:76:a5:53:41:2b:
         b3:13:50:87:4d:ae:20:24:e0:66:13:d1:cb:30:51:f6:68:c8:
         86:93:32:73:72:ff:af:3c:61:cc:47:e2:5d:e0:34:9a:8f:79:
         82:95:08:72:ba:0d:9f:00:ec:68:36:16:cd:76:3b:2c:69:32:
         8b:b1:f8:4d:f2:81:1b:1d:c8:4b:ca:3f:8a:a8:e5:e9:3d:c4:
         df:7b:d9:0b:35:64:6d:99:2c:24:07:d7:90:01:27:8d:c2:be:
         9b:7e:6e:d5:90:fb:fa:1c:eb:fe:e6:2e:ba:60:59:d8:be:ac:
         8d:af:e2:55:08:ce:a4:e6:5e:75:30:ee:c5:23:7c:bb:43:34:
         1b:94:93:39:c2:b9:b1:88:5c:76:b7:86:7d:9e:ef:3d:f0:5a:
         19:ce:85:39
-----BEGIN CERTIFICATE-----
MIIEDzCCAvegAwIBAgIEEAAAnDANBgkqhkiG9w0BAQUFADBEMQswCQYDVQQGEwJE
RTEPMA0GA1UECAwGSGVzc2VuMRQwEgYDVQQKDAtwcml2YWN5aWRlYTEOMAwGA1UE
AwwFQ0EwMDEwHhcNMTUwNjEwMTY1MDQyWhcNMTYwNjA5MTY1MDQyWjA9MSUwIwYD
VQQDExxzZWxmc2VydmljZSxDTj11c2VyLE89cmVhbG0xMRQwEgYJKoZIhvcNAQkB
FgVtZWluZTCCASIwDQYJKoZIhvcNAQEBBQADggEPADCCAQoCggEBAM881DMOEsTm
2s22VqEcJrsmHIpKc6hYirYes4uZ0h0HwpKJecBp2MjfKGGYHrP+riu9eKn3bkfc
o6AWjIUCwU6S/XJu8MgDKZu4AG7Ag5XINCA2nLPl5OZ2c6MarUCW4FNUAOx2eZrG
DX62vSnsg/PLiaTLbAC6DMV4D/9puJT0BHBDP9ie16f7Xc51jtrnxAexnd5viEu2
TZrP+bz6n80ybfY6Cw0jQnjsl0K/Dk1gVuHTAvIZy4RXkOVwoaKDNYbi2oaf+YrE
ebNSKNrLuzTK09qRSs+NdqKya5v5lv0JKtoRI03wy9aysQ4SbJoZZZiHyuTuJM5E
rJCPnRvFKp0CAwEAAaOCAQ4wggEKMAsGA1UdDwQEAwIFoDAJBgNVHRMEAjAAMBEG
CWCGSAGG+EIBAQQEAwIGQDAzBglghkgBhvhCAQ0EJhYkT3BlblNTTCBHZW5lcmF0
ZWQgU2VydmVyIENlcnRpZmljYXRlMB0GA1UdDgQWBBRNB5Ct/x0N5xrd1i76ujTL
qh8kxjB0BgNVHSMEbTBrgBT0p8DMkUavZPOR8if4yLJviocyc6FIpEYwRDELMAkG
A1UEBhMCREUxDzANBgNVBAgMBkhlc3NlbjEUMBIGA1UECgwLcHJpdmFjeWlkZWEx
DjAMBgNVBAMMBUNBMDAxggkA+8jrrIPNEgcwEwYDVR0lBAwwCgYIKwYBBQUHAwEw
DQYJKoZIhvcNAQEFBQADggEBALRMG2OTQpcGabF/Vo+a//3HCgl2KW7mXNDznsg4
VFEpuLMwz2WAwZqa/BNZn8XbJF8clEINJxk+w8+gNP3inXcOXGDrQAX4VERYJ6xF
gkDiVeDtGWP1UZ5RInJ5n+41wCmZpPQJBRd2pVNBK7MTUIdNriAk4GYT0cswUfZo
yIaTMnNy/688YcxH4l3gNJqPeYKVCHK6DZ8A7Gg2Fs12OyxpMoux+E3ygRsdyEvK
P4qo5ek9xN972Qs1ZG2ZLCQH15ABJ43Cvpt+btWQ+/oc6/7mLrpgWdi+rI2v4lUI
zqTmXnUw7sUjfLtDNBuUkznCubGIXHa3hn2e7z3wWhnOhTk=
-----END CERTIFICATE-----
