Certificate:
    Data:
        Version: 3 (0x2)
        Serial Number: 268435606 (0x10000096)
    Signature Algorithm: sha1WithRSAEncryption
        Issuer: C=DE, ST=Hessen, O=privacyidea, CN=CA001
        Validity
            Not Before: Jun 10 16:35:07 2015 GMT
            Not After : Jun  9 16:35:07 2016 GMT
        Subject: CN=selfservice,CN=user,O=realm1/emailAddress=meine
        Subject Public Key Info:
            Public Key Algorithm: rsaEncryption
                Public-Key: (2048 bit)
                Modulus:
                    00:cf:3c:d4:33:0e:12:c4:e6:da:cd:b6:56:a1:1c:
                    26:bb:26:1c:8a:4a:73:a8:58:8a:b6:1e:b3:8b:99:
                    d2:1d:07:c2:92:89:79:c0:69:d8:c8:df:28:61:98:
                    1e:b3:fe:ae:2b:bd:78:a9:f7:6e:47:dc:a3:a0:16:
                    8c:85:02:c1:4e:92:fd:72:6e:f0:c8:03:29:9b:b8:
                    00:6e:c0:83:95:c8:34:20:36:9c:b3:e5:e4:e6:76:
                    73:a3:1a:ad:40:96:e0:53:54:00:ec:76:79:9a:c6:
                    0d:7e:b6:bd:29:ec:83:f3:cb:89:a4:cb:6c:00:ba:
                    0c:c5:78:0f:ff:69:b8:94:f4:04:70:43:3f:d8:9e:
                    d7:a7:fb:5d:ce:75:8e:da:e7:c4:07:b1:9d:de:6f:
                    88:4b:b6:4d:9a:cf:f9:bc:fa:9f:cd:32:6d:f6:3a:
                    0b:0d:23:42:78:ec:97:42:bf:0e:4d:60:56:e1:d3:
                    02:f2:19:cb:84:57:90:e5:70:a1:a2:83:35:86:e2:
                    da:86:9f:f9:8a:c4:79:b3:52:28:da:cb:bb:34:ca:
                    d3:da:91:4a:cf:8d:76:a2:b2:6b:9b:f9:96:fd:09:
                    2a:da:11:23:4d:f0:cb:d6:b2:b1:0e:12:6c:9a:19:
                    65:98:87:ca:e4:ee:24:ce:44:ac:90:8f:9d:1b:c5:
                    2a:9d
                Exponent: 65537 (0x10001)
        X509v3 extensions:
            X509v3 Key Usage: 
                Digital Signature, Key Encipherment
            X509v3 Basic Constraints: 
                CA:FALSE
            Netscape Cert Type: 
                SSL Server
            Netscape Comment: 
                OpenSSL Generated Server Certificate
            X509v3 Subject Key Identifier: 
                4D:07:90:AD:FF:1D:0D:E7:1A:DD:D6:2E:FA:BA:34:CB:AA:1F:24:C6
            X509v3 Authority Key Identifier: 
                keyid:F4:A7:C0:CC:91:46:AF:64:F3:91:F2:27:F8:C8:B2:6F:8A:87:32:73
                DirName:/C=DE/ST=Hessen/O=privacyidea/CN=CA001
                serial:FB:C8:EB:AC:83:CD:12:07

            X509v3 Extended Key Usage: 
                TLS Web Server Authentication
    Signature Algorithm: sha1WithRSAEncryption
         0c:80:fd:cf:26:bd:1e:2e:92:c8:f4:23:cb:a2:3e:cb:46:9c:
         6f:97:bf:40:63:1b:25:ee:a2:9c:0d:d2:89:71:0f:41:f3:44:
         73:4d:71:5a:5e:f0:fc:e4:04:97:a3:6d:c1:7b:be:a1:ee:7a:
         4e:21:fd:a3:fa:38:8f:95:a4:8c:73:50:9c:9e:b7:78:bc:b6:
         ec:30:58:67:bd:4b:d6:28:e1:1e:77:ac:24:1b:b4:b3:6d:e9:
         b4:5b:57:95:1d:88:6e:6b:b8:87:7f:cf:ed:ca:48:7d:a4:0a:
         65:e5:52:4e:0a:5a:3a:ec:27:5a:3b:6c:7e:d1:4e:54:85:67:
         c0:a5:00:fc:3a:78:13:e1:d2:5f:0f:86:ac:aa:14:d5:0e:6f:
         87:0d:a9:0e:7d:fa:1a:ce:0b:01:98:13:6a:24:11:eb:09:a8:
         5e:e2:b8:a4:a6:2d:81:98:19:9e:cf:cc:07:ad:ca:c2:00:a8:
         66:2c:ec:2e:5e:a4:ad:6f:97:6a:e4:d2:3f:ea:fd:a3:c4:16:
         38:a3:d0:5c:53:77:28:b1:fe:9b:7d:cc:b5:86:6b:97:8b:a2:
         68:69:50:03:5a:e4:ce:64:f3:3f:e3:df:65:97:57:8e:3d:42:
         5a:0b:c8:aa:7c:7d:e0:3c:94:9e:3a:45:5a:98:7d:20:f4:9d:
         9a:9e:bc:0e
-----BEGIN CERTIFICATE-----
MIIEDzCCAvegAwIBAgIEEAAAljANBgkqhkiG9w0BAQUFADBEMQswCQYDVQQGEwJE
RTEPMA0GA1UECAwGSGVzc2VuMRQwEgYDVQQKDAtwcml2YWN5aWRlYTEOMAwGA1UE
AwwFQ0EwMDEwHhcNMTUwNjEwMTYzNTA3WhcNMTYwNjA5MTYzNTA3WjA9MSUwIwYD
VQQDExxzZWxmc2VydmljZSxDTj11c2VyLE89cmVhbG0xMRQwEgYJKoZIhvcNAQkB
FgVtZWluZTCCASIwDQYJKoZIhvcNAQEBBQADggEPADCCAQoCggEBAM881DMOEsTm
2s22VqEcJrsmHIpKc6hYirYes4uZ0h0HwpKJecBp2MjfKGGYHrP+riu9eKn3bkfc
o6AWjIUCwU6S/XJu8MgDKZu4AG7Ag5XINCA2nLPl5OZ2c6MarUCW4FNUAOx2eZrG
DX62vSnsg/PLiaTLbAC6DMV4D/9puJT0BHBDP9ie16f7Xc51jtrnxAexnd5viEu2
TZrP+bz6n80ybfY6Cw0jQnjsl0K/Dk1gVuHTAvIZy4RXkOVwoaKDNYbi2oaf+YrE
ebNSKNrLuzTK09qRSs+NdqKya5v5lv0JKtoRI03wy9aysQ4SbJoZZZiHyuTuJM5E
rJCPnRvFKp0CAwEAAaOCAQ4wggEKMAsGA1UdDwQEAwIFoDAJBgNVHRMEAjAAMBEG
CWCGSAGG+EIBAQQEAwIGQDAzBglghkgBhvhCAQ0EJhYkT3BlblNTTCBHZW5lcmF0
ZWQgU2VydmVyIENlcnRpZmljYXRlMB0GA1UdDgQWBBRNB5Ct/x0N5xrd1i76ujTL
qh8kxjB0BgNVHSMEbTBrgBT0p8DMkUavZPOR8if4yLJviocyc6FIpEYwRDELMAkG
A1UEBhMCREUxDzANBgNVBAgMBkhlc3NlbjEUMBIGA1UECgwLcHJpdmFjeWlkZWEx
DjAMBgNVBAMMBUNBMDAxggkA+8jrrIPNEgcwEwYDVR0lBAwwCgYIKwYBBQUHAwEw
DQYJKoZIhvcNAQEFBQADggEBAAyA/c8mvR4uksj0I8uiPstGnG+Xv0BjGyXuopwN
0olxD0HzRHNNcVpe8PzkBJejbcF7vqHuek4h/aP6OI+VpIxzUJyet3i8tuwwWGe9
S9Yo4R53rCQbtLNt6bRbV5UdiG5ruId/z+3KSH2kCmXlUk4KWjrsJ1o7bH7RTlSF
Z8ClAPw6eBPh0l8PhqyqFNUOb4cNqQ59+hrOCwGYE2okEesJqF7iuKSmLYGYGZ7P
zAetysIAqGYs7C5epK1vl2rk0j/q/aPEFjij0FxTdyix/pt9zLWGa5eLomhpUANa
5M5k8z/j32WXV449QloLyKp8feA8lJ46RVqYfSD0nZqevA4=
-----END CERTIFICATE-----
