Certificate:
    Data:
        Version: 3 (0x2)
        Serial Number: 268435602 (0x10000092)
    Signature Algorithm: sha1WithRSAEncryption
        Issuer: C=DE, ST=Hessen, O=privacyidea, CN=CA001
        Validity
            Not Before: Jun 10 16:27:33 2015 GMT
            Not After : Jun  9 16:27:33 2016 GMT
        Subject: C=DE, ST=Hessen, O=privacyidea, CN=requester.localdomain
        Subject Public Key Info:
            Public Key Algorithm: rsaEncryption
                Public-Key: (2048 bit)
                Modulus:
                    00:cd:be:14:4f:fa:ce:01:3f:42:22:1b:1d:9c:af:
                    dd:92:d2:7f:db:6c:b7:3e:39:43:43:6b:13:03:f1:
                    05:f4:07:74:bc:76:69:28:0b:af:19:8e:d7:fc:e3:
                    cd:c6:58:f2:ca:7f:08:6d:53:fc:07:02:44:24:c6:
                    b4:34:4c:8c:04:fe:33:0e:40:e2:20:ba:02:73:5a:
                    f7:f5:4f:63:6e:cc:c6:b6:df:54:1d:37:39:7d:51:
                    36:26:5f:bd:dc:3f:a8:8b:6b:a2:ae:b6:9d:d6:21:
                    e7:df:41:b8:7a:28:2a:68:48:ca:a8:2d:ed:e1:e9:
                    46:5e:5a:72:6d:b4:84:38:87:91:fd:94:11:0b:28:
                    84:c6:c2:2f:2a:fb:01:f9:36:7a:09:75:d1:33:88:
                    3c:73:41:5b:c8:bf:94:89:70:a1:f0:c0:b9:2e:50:
                    53:1e:b1:17:64:69:f4:2d:81:e0:a9:0d:0e:32:e9:
                    ba:55:8a:85:f1:1b:6f:49:79:b4:7f:88:c3:0d:3e:
                    54:88:9b:3d:1f:38:8c:04:f3:ee:6a:63:2b:f5:c6:
                    db:b4:83:aa:c4:78:41:3a:7d:4b:e1:c8:3e:71:ca:
                    1b:61:59:ea:c6:c4:ca:32:5e:c9:e9:bf:12:29:e6:
                    c6:c3:63:fe:a0:55:da:7a:f1:60:98:4d:26:ed:fa:
                    70:2d
                Exponent: 65537 (0x10001)
        X509v3 extensions:
            X509v3 Key Usage: 
                Digital Signature, Key Encipherment
            X509v3 Basic Constraints: 
                CA:FALSE
            Netscape Cert Type: 
                SSL Server
            Netscape Comment: 
                OpenSSL Generated Server Certificate
            X509v3 Subject Key Identifier: 
                53:3F:ED:5D:09:07:B3:65:7B:AB:45:C9:24:5B:09:77:80:0A:96:ED
            X509v3 Authority Key Identifier: 
                keyid:F4:A7:C0:CC:91:46:AF:64:F3:91:F2:27:F8:C8:B2:6F:8A:87:32:73
                DirName:/C=DE/ST=Hessen/O=privacyidea/CN=CA001
                serial:FB:C8:EB:AC:83:CD:12:07

            X509v3 Extended Key Usage: 
                TLS Web Server Authentication
    Signature Algorithm: sha1WithRSAEncryption
         85:94:75:4f:08:d5:4d:ce:8c:e8:ee:e6:99:b5:c3:3f:c9:c9:
         02:65:dd:13:d2:b5:cd:21:9a:76:cd:ca:17:73:c0:37:7f:58:
         85:9c:65:96:c1:ce:50:41:90:49:d9:0e:ff:c3:86:cb:cc:d9:
         d4:57:04:07:b8:c7:51:6c:a0:32:6d:08:24:71:7c:6d:1c:8c:
         48:0a:01:0e:cd:16:37:e9:af:dd:c8:94:f4:37:9e:40:17:fb:
         8c:33:64:43:d9:37:c0:de:c5:c2:83:c4:78:34:0b:da:b0:d7:
         d9:66:10:b4:fc:dd:55:79:b6:35:4e:45:ab:19:0a:00:99:db:
         bf:fd:ef:55:70:f0:4b:b8:c2:4a:bd:e0:53:bd:ca:52:90:ab:
         70:9c:f2:3a:95:34:32:3e:20:61:23:e1:4b:f6:d4:77:fe:4d:
         87:e7:a8:36:df:ed:7b:dc:f0:fb:d5:37:ec:c5:27:b0:b8:21:
         44:be:60:01:69:0a:64:7f:bc:0f:67:f0:ef:ff:6c:a8:60:c3:
         01:01:45:fc:06:75:c1:50:71:44:81:c3:53:d7:7c:97:d7:e6:
         0d:1d:17:75:96:d8:60:46:5c:55:13:fc:b3:46:9f:3f:4b:f7:
         e8:01:cb:c0:ba:af:9a:ae:60:03:eb:6e:3a:11:47:1b:76:89:
         3f:06:b5:96
-----BEGIN CERTIFICATE-----
MIIEJjCCAw6gAwIBAgIEEAAAkjANBgkqhkiG9w0BAQUFADBEMQswCQYDVQQGEwJE
RTEPMA0GA1UECAwGSGVzc2VuMRQwEgYDVQQKDAtwcml2YWN5aWRlYTEOMAwGA1UE
AwwFQ0EwMDEwHhcNMTUwNjEwMTYyNzMzWhcNMTYwNjA5MTYyNzMzWjBUMQswCQYD
VQQGEwJERTEPMA0GA1UECAwGSGVzc2VuMRQwEgYDVQQKDAtwcml2YWN5aWRlYTEe
MBwGA1UEAwwVcmVxdWVzdGVyLmxvY2FsZG9tYWluMIIBIjANBgkqhkiG9w0BAQEF
AAOCAQ8AMIIBCgKCAQEAzb4UT/rOAT9CIhsdnK/dktJ/22y3PjlDQ2sTA/EF9Ad0
vHZpKAuvGY7X/OPNxljyyn8IbVP8BwJEJMa0NEyMBP4zDkDiILoCc1r39U9jbszG
tt9UHTc5fVE2Jl+93D+oi2uirrad1iHn30G4eigqaEjKqC3t4elGXlpybbSEOIeR
/ZQRCyiExsIvKvsB+TZ6CXXRM4g8c0FbyL+UiXCh8MC5LlBTHrEXZGn0LYHgqQ0O
Mum6VYqF8RtvSXm0f4jDDT5UiJs9HziMBPPuamMr9cbbtIOqxHhBOn1L4cg+ccob
YVnqxsTKMl7J6b8SKebGw2P+oFXaevFgmE0m7fpwLQIDAQABo4IBDjCCAQowCwYD
VR0PBAQDAgWgMAkGA1UdEwQCMAAwEQYJYIZIAYb4QgEBBAQDAgZAMDMGCWCGSAGG
+EIBDQQmFiRPcGVuU1NMIEdlbmVyYXRlZCBTZXJ2ZXIgQ2VydGlmaWNhdGUwHQYD
VR0OBBYEFFM/7V0JB7Nle6tFySRbCXeACpbtMHQGA1UdIwRtMGuAFPSnwMyRRq9k
85HyJ/jIsm+KhzJzoUikRjBEMQswCQYDVQQGEwJERTEPMA0GA1UECAwGSGVzc2Vu
MRQwEgYDVQQKDAtwcml2YWN5aWRlYTEOMAwGA1UEAwwFQ0EwMDGCCQD7yOusg80S
BzATBgNVHSUEDDAKBggrBgEFBQcDATANBgkqhkiG9w0BAQUFAAOCAQEAhZR1TwjV
Tc6M6O7mmbXDP8nJAmXdE9K1zSGads3KF3PAN39YhZxllsHOUEGQSdkO/8OGy8zZ
1FcEB7jHUWygMm0IJHF8bRyMSAoBDs0WN+mv3ciU9DeeQBf7jDNkQ9k3wN7FwoPE
eDQL2rDX2WYQtPzdVXm2NU5FqxkKAJnbv/3vVXDwS7jCSr3gU73KUpCrcJzyOpU0
Mj4gYSPhS/bUd/5Nh+eoNt/te9zw+9U37MUnsLghRL5gAWkKZH+8D2fw7/9sqGDD
AQFF/AZ1wVBxRIHDU9d8l9fmDR0XdZbYYEZcVRP8s0afP0v36AHLwLqvmq5gA+tu
OhFHG3aJPwa1lg==
-----END CERTIFICATE-----
