Certificate:
    Data:
        Version: 3 (0x2)
        Serial Number: 268435610 (0x1000009a)
    Signature Algorithm: sha1WithRSAEncryption
        Issuer: C=DE, ST=Hessen, O=privacyidea, CN=CA001
        Validity
            Not Before: Jun 10 16:42:58 2015 GMT
            Not After : Jun  9 16:42:58 2016 GMT
        Subject: CN=Steve Test/emailAddress=steve@openssl.org
        Subject Public Key Info:
            Public Key Algorithm: rsaEncryption
                Public-Key: (2048 bit)
                Modulus:
                    00:d2:81:89:20:51:48:0f:73:f4:11:32:24:d5:1f:
                    1c:fd:5c:f5:b6:e6:c5:f0:52:81:dc:d2:af:66:4a:
                    7c:93:31:61:5c:af:d1:6d:06:70:03:60:7c:72:0c:
                    88:dd:49:cd:9e:02:6c:d2:5a:d7:53:0f:f3:da:be:
                    69:64:b5:0f:0c:00:e3:b3:50:47:a3:b3:9b:ba:13:
                    50:d6:58:5a:4b:ab:39:e0:11:ca:0a:27:67:03:78:
                    22:66:6d:92:1e:1b:5c:49:ae:e6:6b:d1:8e:3b:9d:
                    06:d3:c6:ac:4d:53:43:10:ab:e8:96:c1:87:82:97:
                    99:8f:20:d3:99:12:37:31:84:e1:8a:ff:29:03:5f:
                    22:90:3e:7f:9b:e0:20:c1:ad:dc:ae:4c:39:1a:31:
                    96:17:02:8c:b2:d9:b4:0d:20:12:9b:7d:86:54:fd:
                    33:fd:c1:2a:62:46:f8:60:96:cf:6e:01:6f:22:df:
                    13:47:e7:97:ec:05:72:23:a3:62:f8:fa:ef:ac:9c:
                    72:f0:37:cb:2f:37:cf:90:a8:27:51:86:c6:d7:78:
                    08:8f:7e:25:a2:15:70:a2:fb:1c:b6:15:5e:a0:97:
                    8b:81:4c:09:28:8a:27:3b:94:bc:71:db:5b:71:37:
                    9a:2b:16:e0:6f:b5:c9:f5:4b:4f:20:ba:65:cf:af:
                    ad:ad
                Exponent: 65537 (0x10001)
        X509v3 extensions:
            X509v3 Key Usage: 
                Digital Signature, Key Encipherment
            X509v3 Basic Constraints: 
                CA:FALSE
            Netscape Cert Type: 
                SSL Server
            Netscape Comment: 
                OpenSSL Generated Server Certificate
            X509v3 Subject Key Identifier: 
                E5:25:6D:3E:AF:0D:DD:3F:4C:F2:45:19:39:D5:14:DB:7E:9C:C0:AD
            X509v3 Authority Key Identifier: 
                keyid:F4:A7:C0:CC:91:46:AF:64:F3:91:F2:27:F8:C8:B2:6F:8A:87:32:73
                DirName:/C=DE/ST=Hessen/O=privacyidea/CN=CA001
                serial:FB:C8:EB:AC:83:CD:12:07

            X509v3 Extended Key Usage: 
                TLS Web Server Authentication
    Signature Algorithm: sha1WithRSAEncryption
         9d:09:a7:93:1d:0f:b0:27:42:25:3b:6a:3b:4a:aa:07:f1:49:
         c5:6b:30:88:7c:ff:bc:bf:5f:b4:52:92:c8:15:cc:78:10:3a:
         ac:00:c7:1b:f4:99:7b:46:e5:b7:fc:27:95:07:56:e7:8f:03:
         ef:c8:08:b2:37:2d:21:1d:f8:7a:32:39:df:26:3f:9d:eb:ff:
         ab:ab:2f:af:45:a7:c7:5b:69:3b:b8:93:a6:77:4b:8c:dc:53:
         a8:f9:b2:8b:ba:c4:10:61:7c:4d:67:fd:db:1e:e4:e8:fe:42:
         3c:81:63:15:1f:f8:f0:e6:03:63:eb:0b:bb:f0:8e:06:b1:0c:
         95:29:2c:96:aa:28:4d:fc:9d:7b:ae:25:87:bd:e2:82:a4:c1:
         b7:a8:51:8f:2b:41:f1:b9:57:9a:a5:3f:66:8f:b4:c9:d9:b7:
         38:ca:16:03:8b:e2:e4:67:c7:e1:f4:56:61:05:31:c3:ba:09:
         04:67:88:c3:3a:a2:92:47:94:be:4d:ef:e5:c7:9f:a3:44:f5:
         ca:45:44:d9:2f:dc:da:e5:71:6f:8e:9c:6e:59:bb:b0:a0:b2:
         23:5d:1e:66:3e:73:ce:2b:b5:18:ee:a4:16:41:9b:e3:c8:37:
         d4:c1:82:e5:63:6b:0d:2d:d2:66:9f:c8:87:a8:3e:ea:47:07:
         bc:d6:27:a8
-----BEGIN CERTIFICATE-----
MIIECTCCAvGgAwIBAgIEEAAAmjANBgkqhkiG9w0BAQUFADBEMQswCQYDVQQGEwJE
RTEPMA0GA1UECAwGSGVzc2VuMRQwEgYDVQQKDAtwcml2YWN5aWRlYTEOMAwGA1UE
AwwFQ0EwMDEwHhcNMTUwNjEwMTY0MjU4WhcNMTYwNjA5MTY0MjU4WjA3MRMwEQYD
VQQDEwpTdGV2ZSBUZXN0MSAwHgYJKoZIhvcNAQkBFhFzdGV2ZUBvcGVuc3NsLm9y
ZzCCASIwDQYJKoZIhvcNAQEBBQADggEPADCCAQoCggEBANKBiSBRSA9z9BEyJNUf
HP1c9bbmxfBSgdzSr2ZKfJMxYVyv0W0GcANgfHIMiN1JzZ4CbNJa11MP89q+aWS1
DwwA47NQR6Ozm7oTUNZYWkurOeARygonZwN4ImZtkh4bXEmu5mvRjjudBtPGrE1T
QxCr6JbBh4KXmY8g05kSNzGE4Yr/KQNfIpA+f5vgIMGt3K5MORoxlhcCjLLZtA0g
Ept9hlT9M/3BKmJG+GCWz24BbyLfE0fnl+wFciOjYvj676yccvA3yy83z5CoJ1GG
xtd4CI9+JaIVcKL7HLYVXqCXi4FMCSiKJzuUvHHbW3E3misW4G+1yfVLTyC6Zc+v
ra0CAwEAAaOCAQ4wggEKMAsGA1UdDwQEAwIFoDAJBgNVHRMEAjAAMBEGCWCGSAGG
+EIBAQQEAwIGQDAzBglghkgBhvhCAQ0EJhYkT3BlblNTTCBHZW5lcmF0ZWQgU2Vy
dmVyIENlcnRpZmljYXRlMB0GA1UdDgQWBBTlJW0+rw3dP0zyRRk51RTbfpzArTB0
BgNVHSMEbTBrgBT0p8DMkUavZPOR8if4yLJviocyc6FIpEYwRDELMAkGA1UEBhMC
REUxDzANBgNVBAgMBkhlc3NlbjEUMBIGA1UECgwLcHJpdmFjeWlkZWExDjAMBgNV
BAMMBUNBMDAxggkA+8jrrIPNEgcwEwYDVR0lBAwwCgYIKwYBBQUHAwEwDQYJKoZI
hvcNAQEFBQADggEBAJ0Jp5MdD7AnQiU7ajtKqgfxScVrMIh8/7y/X7RSksgVzHgQ
OqwAxxv0mXtG5bf8J5UHVuePA+/ICLI3LSEd+HoyOd8mP53r/6urL69Fp8dbaTu4
k6Z3S4zcU6j5sou6xBBhfE1n/dse5Oj+QjyBYxUf+PDmA2PrC7vwjgaxDJUpLJaq
KE38nXuuJYe94oKkwbeoUY8rQfG5V5qlP2aPtMnZtzjKFgOL4uRnx+H0VmEFMcO6
CQRniMM6opJHlL5N7+XHn6NE9cpFRNkv3NrlcW+OnG5Zu7CgsiNdHmY+c84rtRju
pBZBm+PIN9TBguVjaw0t0mafyIeoPupHB7zWJ6g=
-----END CERTIFICATE-----
