Certificate:
    Data:
        Version: 3 (0x2)
        Serial Number: 268435611 (0x1000009b)
    Signature Algorithm: sha1WithRSAEncryption
        Issuer: C=DE, ST=Hessen, O=privacyidea, CN=CA001
        Validity
            Not Before: Jun 10 16:47:10 2015 GMT
            Not After : Jun  9 16:47:10 2016 GMT
        Subject: C=DE, ST=Hessen, O=privacyidea, CN=requester.localdomain
        Subject Public Key Info:
            Public Key Algorithm: rsaEncryption
                Public-Key: (2048 bit)
                Modulus:
                    00:cd:be:14:4f:fa:ce:01:3f:42:22:1b:1d:9c:af:
                    dd:92:d2:7f:db:6c:b7:3e:39:43:43:6b:13:03:f1:
                    05:f4:07:74:bc:76:69:28:0b:af:19:8e:d7:fc:e3:
                    cd:c6:58:f2:ca:7f:08:6d:53:fc:07:02:44:24:c6:
                    b4:34:4c:8c:04:fe:33:0e:40:e2:20:ba:02:73:5a:
                    f7:f5:4f:63:6e:cc:c6:b6:df:54:1d:37:39:7d:51:
                    36:26:5f:bd:dc:3f:a8:8b:6b:a2:ae:b6:9d:d6:21:
                    e7:df:41:b8:7a:28:2a:68:48:ca:a8:2d:ed:e1:e9:
                    46:5e:5a:72:6d:b4:84:38:87:91:fd:94:11:0b:28:
                    84:c6:c2:2f:2a:fb:01:f9:36:7a:09:75:d1:33:88:
                    3c:73:41:5b:c8:bf:94:89:70:a1:f0:c0:b9:2e:50:
                    53:1e:b1:17:64:69:f4:2d:81:e0:a9:0d:0e:32:e9:
                    ba:55:8a:85:f1:1b:6f:49:79:b4:7f:88:c3:0d:3e:
                    54:88:9b:3d:1f:38:8c:04:f3:ee:6a:63:2b:f5:c6:
                    db:b4:83:aa:c4:78:41:3a:7d:4b:e1:c8:3e:71:ca:
                    1b:61:59:ea:c6:c4:ca:32:5e:c9:e9:bf:12:29:e6:
                    c6:c3:63:fe:a0:55:da:7a:f1:60:98:4d:26:ed:fa:
                    70:2d
                Exponent: 65537 (0x10001)
        X509v3 extensions:
            X509v3 Key Usage: 
                Digital Signature, Key Encipherment
            X509v3 Basic Constraints: 
                CA:FALSE
            Netscape Cert Type: 
                SSL Server
            Netscape Comment: 
                OpenSSL Generated Server Certificate
            X509v3 Subject Key Identifier: 
                53:3F:ED:5D:09:07:B3:65:7B:AB:45:C9:24:5B:09:77:80:0A:96:ED
            X509v3 Authority Key Identifier: 
                keyid:F4:A7:C0:CC:91:46:AF:64:F3:91:F2:27:F8:C8:B2:6F:8A:87:32:73
                DirName:/C=DE/ST=Hessen/O=privacyidea/CN=CA001
                serial:FB:C8:EB:AC:83:CD:12:07

            X509v3 Extended Key Usage: 
                TLS Web Server Authentication
    Signature Algorithm: sha1WithRSAEncryption
         3c:df:36:d2:15:06:e1:17:5d:a7:66:cc:ff:89:a3:4e:ee:90:
         01:13:b4:d0:4e:c0:30:86:cd:d4:bf:aa:19:7c:06:8b:e9:20:
         39:a2:f4:b3:63:61:c3:1f:ce:c8:14:9d:3b:5d:aa:73:94:c8:
         ee:5f:f8:7b:f1:b8:67:23:8f:01:a6:b1:39:5d:28:6f:b6:b2:
         19:f2:3c:7c:c0:4f:4a:4e:8d:6a:6b:6a:60:e8:da:b5:76:81:
         3b:a0:f6:80:fb:51:ba:80:3e:fc:50:8e:ce:22:ee:d6:ac:fa:
         d9:c5:0e:88:2d:be:f5:0a:a3:80:4e:0f:9c:ce:d9:4a:51:df:
         e2:79:ca:23:48:71:da:93:38:74:ac:61:32:73:62:22:87:5d:
         a2:06:24:f9:4c:63:da:a3:39:19:c6:81:79:5e:75:f7:a6:3b:
         f2:16:3b:4a:21:3d:eb:96:a8:c9:b0:82:cd:68:b2:65:e9:3f:
         4a:b5:2a:a6:71:64:9b:d8:56:d5:c5:ab:20:8b:64:59:43:ba:
         96:b7:80:6b:b0:b9:18:fb:e7:60:fd:79:0e:8d:33:fd:e5:0f:
         82:b8:8c:31:35:ec:63:c0:b8:cd:a1:d1:f9:fe:cc:6d:49:c4:
         bb:16:15:0b:3d:e8:64:1e:90:98:3a:96:02:c2:db:0c:26:91:
         26:85:70:2d
-----BEGIN CERTIFICATE-----
MIIEJjCCAw6gAwIBAgIEEAAAmzANBgkqhkiG9w0BAQUFADBEMQswCQYDVQQGEwJE
RTEPMA0GA1UECAwGSGVzc2VuMRQwEgYDVQQKDAtwcml2YWN5aWRlYTEOMAwGA1UE
AwwFQ0EwMDEwHhcNMTUwNjEwMTY0NzEwWhcNMTYwNjA5MTY0NzEwWjBUMQswCQYD
VQQGEwJERTEPMA0GA1UECAwGSGVzc2VuMRQwEgYDVQQKDAtwcml2YWN5aWRlYTEe
MBwGA1UEAwwVcmVxdWVzdGVyLmxvY2FsZG9tYWluMIIBIjANBgkqhkiG9w0BAQEF
AAOCAQ8AMIIBCgKCAQEAzb4UT/rOAT9CIhsdnK/dktJ/22y3PjlDQ2sTA/EF9Ad0
vHZpKAuvGY7X/OPNxljyyn8IbVP8BwJEJMa0NEyMBP4zDkDiILoCc1r39U9jbszG
tt9UHTc5fVE2Jl+93D+oi2uirrad1iHn30G4eigqaEjKqC3t4elGXlpybbSEOIeR
/ZQRCyiExsIvKvsB+TZ6CXXRM4g8c0FbyL+UiXCh8MC5LlBTHrEXZGn0LYHgqQ0O
Mum6VYqF8RtvSXm0f4jDDT5UiJs9HziMBPPuamMr9cbbtIOqxHhBOn1L4cg+ccob
YVnqxsTKMl7J6b8SKebGw2P+oFXaevFgmE0m7fpwLQIDAQABo4IBDjCCAQowCwYD
VR0PBAQDAgWgMAkGA1UdEwQCMAAwEQYJYIZIAYb4QgEBBAQDAgZAMDMGCWCGSAGG
+EIBDQQmFiRPcGVuU1NMIEdlbmVyYXRlZCBTZXJ2ZXIgQ2VydGlmaWNhdGUwHQYD
VR0OBBYEFFM/7V0JB7Nle6tFySRbCXeACpbtMHQGA1UdIwRtMGuAFPSnwMyRRq9k
85HyJ/jIsm+KhzJzoUikRjBEMQswCQYDVQQGEwJERTEPMA0GA1UECAwGSGVzc2Vu
MRQwEgYDVQQKDAtwcml2YWN5aWRlYTEOMAwGA1UEAwwFQ0EwMDGCCQD7yOusg80S
BzATBgNVHSUEDDAKBggrBgEFBQcDATANBgkqhkiG9w0BAQUFAAOCAQEAPN820hUG
4Rddp2bM/4mjTu6QARO00E7AMIbN1L+qGXwGi+kgOaL0s2Nhwx/OyBSdO12qc5TI
7l/4e/G4ZyOPAaaxOV0ob7ayGfI8fMBPSk6NamtqYOjatXaBO6D2gPtRuoA+/FCO
ziLu1qz62cUOiC2+9QqjgE4PnM7ZSlHf4nnKI0hx2pM4dKxhMnNiIoddogYk+Uxj
2qM5GcaBeV5196Y78hY7SiE965aoybCCzWiyZek/SrUqpnFkm9hW1cWrIItkWUO6
lreAa7C5GPvnYP15Do0z/eUPgriMMTXsY8C4zaHR+f7MbUnEuxYVCz3oZB6QmDqW
AsLbDCaRJoVwLQ==
-----END CERTIFICATE-----
