Certificate:
    Data:
        Version: 3 (0x2)
        Serial Number: 268435593 (0x10000089)
    Signature Algorithm: sha1WithRSAEncryption
        Issuer: C=DE, ST=Hessen, O=privacyidea, CN=CA001
        Validity
            Not Before: May 28 08:33:18 2015 GMT
            Not After : May 27 08:33:18 2016 GMT
        Subject: C=DE, ST=Hessen, O=privacyidea, CN=usercert
        Subject Public Key Info:
            Public Key Algorithm: rsaEncryption
                Public-Key: (2048 bit)
                Modulus:
                    00:dc:2f:d1:5f:29:97:d4:7c:c3:53:c8:30:bd:4b:
                    67:70:2c:24:6b:b8:5e:eb:21:7a:48:12:56:7c:81:
                    5c:48:75:b6:68:eb:f6:f2:98:4e:50:51:d1:7f:6c:
                    73:f3:0a:a7:ae:be:48:5e:e5:d6:e1:d9:2a:7c:32:
                    6e:4e:fd:08:f6:5a:54:49:23:73:c3:b9:07:18:d1:
                    ef:b3:ac:f8:8a:dc:94:96:a4:90:3a:8e:74:df:e6:
                    0d:37:1b:bd:5b:b7:25:1a:56:39:da:6f:91:aa:5e:
                    1c:74:f3:f9:7c:14:01:83:12:65:76:c7:bb:fe:36:
                    5b:95:e9:72:65:83:ed:3e:98:30:71:fa:87:dd:a3:
                    36:5a:30:03:2e:26:e0:61:d1:bf:02:3f:b6:06:1f:
                    4a:89:28:1c:5c:a2:ff:4e:be:94:e6:8c:e0:da:82:
                    f1:9d:29:32:48:30:73:b4:04:f6:42:1e:be:f7:e2:
                    32:32:27:3c:9d:89:2f:70:3e:85:9a:6f:5c:c5:09:
                    c0:8c:32:2f:72:22:c9:d2:95:1f:b6:ac:72:60:72:
                    b7:82:4d:6b:ce:5b:e3:00:d0:d2:2f:58:c6:e0:10:
                    e5:51:ca:4d:3b:2e:e6:7e:ab:84:d6:56:f1:93:35:
                    a0:93:64:26:81:75:2f:91:b5:16:06:38:0b:db:cc:
                    2d:07
                Exponent: 65537 (0x10001)
        X509v3 extensions:
            X509v3 Key Usage: 
                Digital Signature, Key Encipherment
            X509v3 Basic Constraints: 
                CA:FALSE
            Netscape Cert Type: 
                SSL Server
            Netscape Comment: 
                OpenSSL Generated Server Certificate
            X509v3 Subject Key Identifier: 
                FC:14:D1:F0:4B:8D:00:90:F2:F5:B8:71:9E:4E:97:C3:92:54:AD:0B
            X509v3 Authority Key Identifier: 
                keyid:F4:A7:C0:CC:91:46:AF:64:F3:91:F2:27:F8:C8:B2:6F:8A:87:32:73
                DirName:/C=DE/ST=Hessen/O=privacyidea/CN=CA001
                serial:FB:C8:EB:AC:83:CD:12:07

            X509v3 Extended Key Usage: 
                TLS Web Server Authentication
    Signature Algorithm: sha1WithRSAEncryption
         93:2c:b8:48:fb:de:e0:f6:ba:fc:5c:c6:6c:99:b1:4e:03:a4:
         8f:c7:55:b4:75:66:a7:e0:a4:17:3f:7e:69:2e:81:2f:a0:0a:
         aa:7b:11:26:a3:13:bf:fc:ec:2c:95:74:04:ec:9e:cf:e9:29:
         83:80:53:b7:80:e8:56:00:56:00:08:aa:5d:f3:d5:10:ba:7a:
         90:77:0d:52:20:8e:49:c4:b4:5b:8c:77:82:6d:52:3c:d9:0e:
         87:bc:ff:fe:87:98:12:b4:af:e8:1e:c7:be:ec:b1:09:fa:56:
         25:10:f0:9f:f7:aa:c9:b4:6a:46:08:b4:e6:7f:61:22:e9:a5:
         b8:74:6d:42:13:1c:63:19:e2:b4:b5:a6:05:68:49:29:2c:9d:
         42:f0:db:60:4b:36:8f:6a:ae:c0:61:82:c4:75:bb:ac:03:43:
         28:82:a3:8d:3d:4e:29:e4:8d:57:87:f8:57:8b:9a:be:1d:5f:
         45:80:0f:7f:1d:03:b3:0d:7d:3c:e7:67:52:c6:90:15:64:f2:
         56:a8:29:d4:50:41:5b:6c:a5:69:74:f3:aa:5c:71:6b:32:1d:
         29:5a:9f:0c:ef:05:b0:1f:95:cd:a3:c2:67:4a:88:e6:9e:97:
         3b:6b:f1:6b:65:8c:9e:83:1b:12:9b:86:f1:d3:df:38:b6:06:
         5c:db:97:4f
-----BEGIN CERTIFICATE-----
MIIEGTCCAwGgAwIBAgIEEAAAiTANBgkqhkiG9w0BAQUFADBEMQswCQYDVQQGEwJE
RTEPMA0GA1UECAwGSGVzc2VuMRQwEgYDVQQKDAtwcml2YWN5aWRlYTEOMAwGA1UE
AwwFQ0EwMDEwHhcNMTUwNTI4MDgzMzE4WhcNMTYwNTI3MDgzMzE4WjBHMQswCQYD
VQQGEwJERTEPMA0GA1UECAwGSGVzc2VuMRQwEgYDVQQKDAtwcml2YWN5aWRlYTER
MA8GA1UEAwwIdXNlcmNlcnQwggEiMA0GCSqGSIb3DQEBAQUAA4IBDwAwggEKAoIB
AQDcL9FfKZfUfMNTyDC9S2dwLCRruF7rIXpIElZ8gVxIdbZo6/bymE5QUdF/bHPz
Cqeuvkhe5dbh2Sp8Mm5O/Qj2WlRJI3PDuQcY0e+zrPiK3JSWpJA6jnTf5g03G71b
tyUaVjnab5GqXhx08/l8FAGDEmV2x7v+NluV6XJlg+0+mDBx+ofdozZaMAMuJuBh
0b8CP7YGH0qJKBxcov9OvpTmjODagvGdKTJIMHO0BPZCHr734jIyJzydiS9wPoWa
b1zFCcCMMi9yIsnSlR+2rHJgcreCTWvOW+MA0NIvWMbgEOVRyk07LuZ+q4TWVvGT
NaCTZCaBdS+RtRYGOAvbzC0HAgMBAAGjggEOMIIBCjALBgNVHQ8EBAMCBaAwCQYD
VR0TBAIwADARBglghkgBhvhCAQEEBAMCBkAwMwYJYIZIAYb4QgENBCYWJE9wZW5T
U0wgR2VuZXJhdGVkIFNlcnZlciBDZXJ0aWZpY2F0ZTAdBgNVHQ4EFgQU/BTR8EuN
AJDy9bhxnk6Xw5JUrQswdAYDVR0jBG0wa4AU9KfAzJFGr2TzkfIn+Miyb4qHMnOh
SKRGMEQxCzAJBgNVBAYTAkRFMQ8wDQYDVQQIDAZIZXNzZW4xFDASBgNVBAoMC3By
aXZhY3lpZGVhMQ4wDAYDVQQDDAVDQTAwMYIJAPvI66yDzRIHMBMGA1UdJQQMMAoG
CCsGAQUFBwMBMA0GCSqGSIb3DQEBBQUAA4IBAQCTLLhI+97g9rr8XMZsmbFOA6SP
x1W0dWan4KQXP35pLoEvoAqqexEmoxO//OwslXQE7J7P6SmDgFO3gOhWAFYACKpd
89UQunqQdw1SII5JxLRbjHeCbVI82Q6HvP/+h5gStK/oHse+7LEJ+lYlEPCf96rJ
tGpGCLTmf2Ei6aW4dG1CExxjGeK0taYFaEkpLJ1C8NtgSzaPaq7AYYLEdbusA0Mo
gqONPU4p5I1Xh/hXi5q+HV9FgA9/HQOzDX0852dSxpAVZPJWqCnUUEFbbKVpdPOq
XHFrMh0pWp8M7wWwH5XNo8JnSojmnpc7a/FrZYyegxsSm4bx0984tgZc25dP
-----END CERTIFICATE-----
