Certificate:
    Data:
        Version: 3 (0x2)
        Serial Number: 268435592 (0x10000088)
    Signature Algorithm: sha1WithRSAEncryption
        Issuer: C=DE, ST=Hessen, O=privacyidea, CN=CA001
        Validity
            Not Before: May 28 08:33:18 2015 GMT
            Not After : May 27 08:33:18 2016 GMT
        Subject: C=DE, ST=Hessen, O=privacyidea, CN=requester.localdomain
        Subject Public Key Info:
            Public Key Algorithm: rsaEncryption
                Public-Key: (2048 bit)
                Modulus:
                    00:cd:be:14:4f:fa:ce:01:3f:42:22:1b:1d:9c:af:
                    dd:92:d2:7f:db:6c:b7:3e:39:43:43:6b:13:03:f1:
                    05:f4:07:74:bc:76:69:28:0b:af:19:8e:d7:fc:e3:
                    cd:c6:58:f2:ca:7f:08:6d:53:fc:07:02:44:24:c6:
                    b4:34:4c:8c:04:fe:33:0e:40:e2:20:ba:02:73:5a:
                    f7:f5:4f:63:6e:cc:c6:b6:df:54:1d:37:39:7d:51:
                    36:26:5f:bd:dc:3f:a8:8b:6b:a2:ae:b6:9d:d6:21:
                    e7:df:41:b8:7a:28:2a:68:48:ca:a8:2d:ed:e1:e9:
                    46:5e:5a:72:6d:b4:84:38:87:91:fd:94:11:0b:28:
                    84:c6:c2:2f:2a:fb:01:f9:36:7a:09:75:d1:33:88:
                    3c:73:41:5b:c8:bf:94:89:70:a1:f0:c0:b9:2e:50:
                    53:1e:b1:17:64:69:f4:2d:81:e0:a9:0d:0e:32:e9:
                    ba:55:8a:85:f1:1b:6f:49:79:b4:7f:88:c3:0d:3e:
                    54:88:9b:3d:1f:38:8c:04:f3:ee:6a:63:2b:f5:c6:
                    db:b4:83:aa:c4:78:41:3a:7d:4b:e1:c8:3e:71:ca:
                    1b:61:59:ea:c6:c4:ca:32:5e:c9:e9:bf:12:29:e6:
                    c6:c3:63:fe:a0:55:da:7a:f1:60:98:4d:26:ed:fa:
                    70:2d
                Exponent: 65537 (0x10001)
        X509v3 extensions:
            X509v3 Key Usage: 
                Digital Signature, Key Encipherment
            X509v3 Basic Constraints: 
                CA:FALSE
            Netscape Cert Type: 
                SSL Server
            Netscape Comment: 
                OpenSSL Generated Server Certificate
            X509v3 Subject Key Identifier: 
                53:3F:ED:5D:09:07:B3:65:7B:AB:45:C9:24:5B:09:77:80:0A:96:ED
            X509v3 Authority Key Identifier: 
                keyid:F4:A7:C0:CC:91:46:AF:64:F3:91:F2:27:F8:C8:B2:6F:8A:87:32:73
                DirName:/C=DE/ST=Hessen/O=privacyidea/CN=CA001
                serial:FB:C8:EB:AC:83:CD:12:07

            X509v3 Extended Key Usage: 
                TLS Web Server Authentication
    Signature Algorithm: sha1WithRSAEncryption
         4c:05:3e:d6:f9:58:33:eb:7c:6b:f2:7a:be:c9:d5:73:ad:34:
         d5:7b:f0:e5:b8:3d:cb:03:19:91:0e:7d:84:99:7d:d9:13:90:
         43:e6:94:ae:15:db:d9:ba:61:f0:c2:9d:34:02:d1:bc:e2:69:
         2b:19:42:24:3a:5c:ac:3b:e3:8b:9e:e4:83:10:e2:f3:ff:18:
         1a:bb:5e:89:9c:cd:61:35:45:fa:df:a1:be:62:a3:04:72:6b:
         20:ee:71:df:33:75:37:46:a1:53:87:b5:a4:85:b2:c7:ee:c3:
         4f:3e:09:bd:de:1f:13:29:bf:e9:02:7f:ca:f2:6b:e2:8f:ec:
         f6:0c:e5:99:35:99:72:bc:98:73:67:5a:6f:c9:6b:c4:48:1f:
         7e:bf:25:01:ff:2f:18:d7:dd:1a:8a:59:31:8f:32:4e:57:b2:
         ec:8b:de:be:bf:27:c2:65:a9:a8:37:78:8a:4d:17:a5:9b:ff:
         77:75:46:72:be:6e:fb:b3:9c:e4:4a:23:e6:07:47:53:10:34:
         36:dc:40:ff:d3:75:d5:88:86:88:29:53:92:fd:34:e2:e2:8e:
         d8:0d:b0:f2:cf:d1:52:10:9f:24:8e:52:51:dd:b0:9b:88:3b:
         9a:f1:a0:f6:10:b4:dd:c7:14:d8:0a:3c:2b:eb:ad:e5:1a:a9:
         04:00:98:b9
-----BEGIN CERTIFICATE-----
MIIEJjCCAw6gAwIBAgIEEAAAiDANBgkqhkiG9w0BAQUFADBEMQswCQYDVQQGEwJE
RTEPMA0GA1UECAwGSGVzc2VuMRQwEgYDVQQKDAtwcml2YWN5aWRlYTEOMAwGA1UE
AwwFQ0EwMDEwHhcNMTUwNTI4MDgzMzE4WhcNMTYwNTI3MDgzMzE4WjBUMQswCQYD
VQQGEwJERTEPMA0GA1UECAwGSGVzc2VuMRQwEgYDVQQKDAtwcml2YWN5aWRlYTEe
MBwGA1UEAwwVcmVxdWVzdGVyLmxvY2FsZG9tYWluMIIBIjANBgkqhkiG9w0BAQEF
AAOCAQ8AMIIBCgKCAQEAzb4UT/rOAT9CIhsdnK/dktJ/22y3PjlDQ2sTA/EF9Ad0
vHZpKAuvGY7X/OPNxljyyn8IbVP8BwJEJMa0NEyMBP4zDkDiILoCc1r39U9jbszG
tt9UHTc5fVE2Jl+93D+oi2uirrad1iHn30G4eigqaEjKqC3t4elGXlpybbSEOIeR
/ZQRCyiExsIvKvsB+TZ6CXXRM4g8c0FbyL+UiXCh8MC5LlBTHrEXZGn0LYHgqQ0O
Mum6VYqF8RtvSXm0f4jDDT5UiJs9HziMBPPuamMr9cbbtIOqxHhBOn1L4cg+ccob
YVnqxsTKMl7J6b8SKebGw2P+oFXaevFgmE0m7fpwLQIDAQABo4IBDjCCAQowCwYD
VR0PBAQDAgWgMAkGA1UdEwQCMAAwEQYJYIZIAYb4QgEBBAQDAgZAMDMGCWCGSAGG
+EIBDQQmFiRPcGVuU1NMIEdlbmVyYXRlZCBTZXJ2ZXIgQ2VydGlmaWNhdGUwHQYD
VR0OBBYEFFM/7V0JB7Nle6tFySRbCXeACpbtMHQGA1UdIwRtMGuAFPSnwMyRRq9k
85HyJ/jIsm+KhzJzoUikRjBEMQswCQYDVQQGEwJERTEPMA0GA1UECAwGSGVzc2Vu
MRQwEgYDVQQKDAtwcml2YWN5aWRlYTEOMAwGA1UEAwwFQ0EwMDGCCQD7yOusg80S
BzATBgNVHSUEDDAKBggrBgEFBQcDATANBgkqhkiG9w0BAQUFAAOCAQEATAU+1vlY
M+t8a/J6vsnVc6001Xvw5bg9ywMZkQ59hJl92ROQQ+aUrhXb2bph8MKdNALRvOJp
KxlCJDpcrDvji57kgxDi8/8YGrteiZzNYTVF+t+hvmKjBHJrIO5x3zN1N0ahU4e1
pIWyx+7DTz4Jvd4fEym/6QJ/yvJr4o/s9gzlmTWZcryYc2dab8lrxEgffr8lAf8v
GNfdGopZMY8yTley7Ivevr8nwmWpqDd4ik0XpZv/d3VGcr5u+7Oc5Eoj5gdHUxA0
NtxA/9N11YiGiClTkv004uKO2A2w8s/RUhCfJI5SUd2wm4g7mvGg9hC03ccU2Ao8
K+ut5RqpBACYuQ==
-----END CERTIFICATE-----
