Certificate:
    Data:
        Version: 3 (0x2)
        Serial Number: 268435458 (0x10000002)
    Signature Algorithm: sha1WithRSAEncryption
        Issuer: C=DE, ST=Hessen, O=privacyidea, CN=CA001
        Validity
            Not Before: Apr 22 15:23:53 2015 GMT
            Not After : Apr 21 15:23:53 2016 GMT
        Subject: C=DE, ST=Hessen, O=privacyidea, CN=requester.localdomain
        Subject Public Key Info:
            Public Key Algorithm: rsaEncryption
                Public-Key: (2048 bit)
                Modulus:
                    00:cd:be:14:4f:fa:ce:01:3f:42:22:1b:1d:9c:af:
                    dd:92:d2:7f:db:6c:b7:3e:39:43:43:6b:13:03:f1:
                    05:f4:07:74:bc:76:69:28:0b:af:19:8e:d7:fc:e3:
                    cd:c6:58:f2:ca:7f:08:6d:53:fc:07:02:44:24:c6:
                    b4:34:4c:8c:04:fe:33:0e:40:e2:20:ba:02:73:5a:
                    f7:f5:4f:63:6e:cc:c6:b6:df:54:1d:37:39:7d:51:
                    36:26:5f:bd:dc:3f:a8:8b:6b:a2:ae:b6:9d:d6:21:
                    e7:df:41:b8:7a:28:2a:68:48:ca:a8:2d:ed:e1:e9:
                    46:5e:5a:72:6d:b4:84:38:87:91:fd:94:11:0b:28:
                    84:c6:c2:2f:2a:fb:01:f9:36:7a:09:75:d1:33:88:
                    3c:73:41:5b:c8:bf:94:89:70:a1:f0:c0:b9:2e:50:
                    53:1e:b1:17:64:69:f4:2d:81:e0:a9:0d:0e:32:e9:
                    ba:55:8a:85:f1:1b:6f:49:79:b4:7f:88:c3:0d:3e:
                    54:88:9b:3d:1f:38:8c:04:f3:ee:6a:63:2b:f5:c6:
                    db:b4:83:aa:c4:78:41:3a:7d:4b:e1:c8:3e:71:ca:
                    1b:61:59:ea:c6:c4:ca:32:5e:c9:e9:bf:12:29:e6:
                    c6:c3:63:fe:a0:55:da:7a:f1:60:98:4d:26:ed:fa:
                    70:2d
                Exponent: 65537 (0x10001)
        X509v3 extensions:
            X509v3 Key Usage: 
                Digital Signature, Key Encipherment
            X509v3 Basic Constraints: 
                CA:FALSE
            Netscape Cert Type: 
                SSL Server
            Netscape Comment: 
                OpenSSL Generated Server Certificate
            X509v3 Subject Key Identifier: 
                53:3F:ED:5D:09:07:B3:65:7B:AB:45:C9:24:5B:09:77:80:0A:96:ED
            X509v3 Authority Key Identifier: 
                keyid:F4:A7:C0:CC:91:46:AF:64:F3:91:F2:27:F8:C8:B2:6F:8A:87:32:73
                DirName:/C=DE/ST=Hessen/O=privacyidea/CN=CA001
                serial:FB:C8:EB:AC:83:CD:12:07

            X509v3 Extended Key Usage: 
                TLS Web Server Authentication
    Signature Algorithm: sha1WithRSAEncryption
         3e:09:2a:96:23:d9:7e:fc:db:68:48:cb:6c:64:be:d4:2c:06:
         b2:96:62:7d:e3:38:7c:e4:79:50:d3:0b:91:ee:0b:35:ec:d0:
         aa:9b:6f:35:0c:74:d0:40:eb:a4:8d:f0:1d:ea:5a:68:5f:ed:
         62:38:71:4e:ba:58:c7:c3:33:c1:a9:98:44:bd:6e:51:1d:41:
         8e:8a:90:82:1b:2e:2f:dd:61:70:fb:21:c0:92:77:9c:00:dc:
         67:41:36:41:f7:d6:b7:b3:65:f8:83:7d:a5:66:fa:44:c5:f5:
         4d:49:a5:3f:b3:2f:1c:f4:76:4a:34:89:4b:7f:34:ea:18:46:
         cf:9a:82:0d:09:5c:af:43:e8:26:61:a1:30:77:4f:f6:25:01:
         ca:3e:d4:c9:d2:aa:40:90:69:31:75:84:ca:cb:94:b5:10:da:
         83:f4:a6:fe:3d:dc:2a:03:03:33:9f:07:fa:75:80:bf:76:e6:
         fd:e6:6a:46:78:d5:e8:8d:5e:a8:9f:6d:c8:38:a5:f7:74:9b:
         e5:26:58:8b:ca:78:d9:f5:2b:d9:47:69:67:85:ad:c8:93:d1:
         c7:42:e7:4d:dc:8a:a4:da:d9:58:bf:2e:75:0f:5c:69:2e:d2:
         31:c3:42:dd:9b:e6:c9:95:73:f3:fa:ba:b8:0e:6c:42:e3:7c:
         de:8a:2e:93
-----BEGIN CERTIFICATE-----
MIIEJjCCAw6gAwIBAgIEEAAAAjANBgkqhkiG9w0BAQUFADBEMQswCQYDVQQGEwJE
RTEPMA0GA1UECAwGSGVzc2VuMRQwEgYDVQQKDAtwcml2YWN5aWRlYTEOMAwGA1UE
AwwFQ0EwMDEwHhcNMTUwNDIyMTUyMzUzWhcNMTYwNDIxMTUyMzUzWjBUMQswCQYD
VQQGEwJERTEPMA0GA1UECAwGSGVzc2VuMRQwEgYDVQQKDAtwcml2YWN5aWRlYTEe
MBwGA1UEAwwVcmVxdWVzdGVyLmxvY2FsZG9tYWluMIIBIjANBgkqhkiG9w0BAQEF
AAOCAQ8AMIIBCgKCAQEAzb4UT/rOAT9CIhsdnK/dktJ/22y3PjlDQ2sTA/EF9Ad0
vHZpKAuvGY7X/OPNxljyyn8IbVP8BwJEJMa0NEyMBP4zDkDiILoCc1r39U9jbszG
tt9UHTc5fVE2Jl+93D+oi2uirrad1iHn30G4eigqaEjKqC3t4elGXlpybbSEOIeR
/ZQRCyiExsIvKvsB+TZ6CXXRM4g8c0FbyL+UiXCh8MC5LlBTHrEXZGn0LYHgqQ0O
Mum6VYqF8RtvSXm0f4jDDT5UiJs9HziMBPPuamMr9cbbtIOqxHhBOn1L4cg+ccob
YVnqxsTKMl7J6b8SKebGw2P+oFXaevFgmE0m7fpwLQIDAQABo4IBDjCCAQowCwYD
VR0PBAQDAgWgMAkGA1UdEwQCMAAwEQYJYIZIAYb4QgEBBAQDAgZAMDMGCWCGSAGG
+EIBDQQmFiRPcGVuU1NMIEdlbmVyYXRlZCBTZXJ2ZXIgQ2VydGlmaWNhdGUwHQYD
VR0OBBYEFFM/7V0JB7Nle6tFySRbCXeACpbtMHQGA1UdIwRtMGuAFPSnwMyRRq9k
85HyJ/jIsm+KhzJzoUikRjBEMQswCQYDVQQGEwJERTEPMA0GA1UECAwGSGVzc2Vu
MRQwEgYDVQQKDAtwcml2YWN5aWRlYTEOMAwGA1UEAwwFQ0EwMDGCCQD7yOusg80S
BzATBgNVHSUEDDAKBggrBgEFBQcDATANBgkqhkiG9w0BAQUFAAOCAQEAPgkqliPZ
fvzbaEjLbGS+1CwGspZifeM4fOR5UNMLke4LNezQqptvNQx00EDrpI3wHepaaF/t
YjhxTrpYx8MzwamYRL1uUR1BjoqQghsuL91hcPshwJJ3nADcZ0E2QffWt7Nl+IN9
pWb6RMX1TUmlP7MvHPR2SjSJS3806hhGz5qCDQlcr0PoJmGhMHdP9iUByj7UydKq
QJBpMXWEysuUtRDag/Sm/j3cKgMDM58H+nWAv3bm/eZqRnjV6I1eqJ9tyDil93Sb
5SZYi8p42fUr2UdpZ4WtyJPRx0LnTdyKpNrZWL8udQ9caS7SMcNC3ZvmyZVz8/q6
uA5sQuN83ooukw==
-----END CERTIFICATE-----
