Certificate:
    Data:
        Version: 3 (0x2)
        Serial Number: 268435457 (0x10000001)
    Signature Algorithm: sha1WithRSAEncryption
        Issuer: C=DE, ST=Hessen, O=privacyidea, CN=CA001
        Validity
            Not Before: Apr 22 15:22:55 2015 GMT
            Not After : Apr 21 15:22:55 2016 GMT
        Subject: C=DE, ST=Hessen, O=privacyidea, CN=requester.localdomain
        Subject Public Key Info:
            Public Key Algorithm: rsaEncryption
                Public-Key: (2048 bit)
                Modulus:
                    00:cd:be:14:4f:fa:ce:01:3f:42:22:1b:1d:9c:af:
                    dd:92:d2:7f:db:6c:b7:3e:39:43:43:6b:13:03:f1:
                    05:f4:07:74:bc:76:69:28:0b:af:19:8e:d7:fc:e3:
                    cd:c6:58:f2:ca:7f:08:6d:53:fc:07:02:44:24:c6:
                    b4:34:4c:8c:04:fe:33:0e:40:e2:20:ba:02:73:5a:
                    f7:f5:4f:63:6e:cc:c6:b6:df:54:1d:37:39:7d:51:
                    36:26:5f:bd:dc:3f:a8:8b:6b:a2:ae:b6:9d:d6:21:
                    e7:df:41:b8:7a:28:2a:68:48:ca:a8:2d:ed:e1:e9:
                    46:5e:5a:72:6d:b4:84:38:87:91:fd:94:11:0b:28:
                    84:c6:c2:2f:2a:fb:01:f9:36:7a:09:75:d1:33:88:
                    3c:73:41:5b:c8:bf:94:89:70:a1:f0:c0:b9:2e:50:
                    53:1e:b1:17:64:69:f4:2d:81:e0:a9:0d:0e:32:e9:
                    ba:55:8a:85:f1:1b:6f:49:79:b4:7f:88:c3:0d:3e:
                    54:88:9b:3d:1f:38:8c:04:f3:ee:6a:63:2b:f5:c6:
                    db:b4:83:aa:c4:78:41:3a:7d:4b:e1:c8:3e:71:ca:
                    1b:61:59:ea:c6:c4:ca:32:5e:c9:e9:bf:12:29:e6:
                    c6:c3:63:fe:a0:55:da:7a:f1:60:98:4d:26:ed:fa:
                    70:2d
                Exponent: 65537 (0x10001)
        X509v3 extensions:
            X509v3 Key Usage: 
                Digital Signature, Key Encipherment
            X509v3 Basic Constraints: 
                CA:FALSE
            Netscape Cert Type: 
                SSL Server
            Netscape Comment: 
                OpenSSL Generated Server Certificate
            X509v3 Subject Key Identifier: 
                53:3F:ED:5D:09:07:B3:65:7B:AB:45:C9:24:5B:09:77:80:0A:96:ED
            X509v3 Authority Key Identifier: 
                keyid:F4:A7:C0:CC:91:46:AF:64:F3:91:F2:27:F8:C8:B2:6F:8A:87:32:73
                DirName:/C=DE/ST=Hessen/O=privacyidea/CN=CA001
                serial:FB:C8:EB:AC:83:CD:12:07

            X509v3 Extended Key Usage: 
                TLS Web Server Authentication
    Signature Algorithm: sha1WithRSAEncryption
         3f:79:71:eb:76:ce:ba:5d:61:47:68:7b:35:e1:3c:a5:34:c6:
         af:00:b0:e5:31:80:c0:dc:e9:53:f6:b4:d9:9e:e7:de:b4:c9:
         61:3d:17:a7:6a:c9:ae:2c:d8:ec:c7:7f:cd:b6:2a:ba:ca:f8:
         53:b0:b9:ca:23:61:0a:9a:87:e1:2a:67:9f:3a:37:1c:0f:1d:
         fc:e4:59:ac:a6:c2:83:59:69:3c:53:b3:90:3a:ce:b0:cc:84:
         9d:f3:28:d7:04:8d:dc:df:74:bd:3e:05:4d:28:30:15:b9:7e:
         95:d2:38:9a:19:4e:07:29:05:d8:f2:1a:84:93:1b:ce:90:b8:
         6d:1d:ed:cf:b2:5b:d5:b7:ba:15:c1:84:d7:a2:a7:54:c0:03:
         36:bb:69:b2:0f:db:2b:19:91:29:85:75:13:c4:5c:c0:20:ff:
         05:50:70:01:74:6a:64:88:f4:94:12:53:d5:a6:29:fa:91:5c:
         84:5a:4d:4c:7d:5b:cd:28:3a:c5:4a:05:8e:90:50:6c:75:01:
         1b:25:3a:e0:31:8a:9a:5a:c4:b6:6b:98:07:3d:3b:2d:11:95:
         2d:a8:7c:09:5c:2f:77:f6:08:d8:39:1d:bc:3a:f3:f7:b5:d8:
         fc:86:ff:b6:9b:ca:36:52:a0:88:cb:3c:d1:a1:ff:6a:7a:da:
         55:77:86:ac
-----BEGIN CERTIFICATE-----
MIIEJjCCAw6gAwIBAgIEEAAAATANBgkqhkiG9w0BAQUFADBEMQswCQYDVQQGEwJE
RTEPMA0GA1UECAwGSGVzc2VuMRQwEgYDVQQKDAtwcml2YWN5aWRlYTEOMAwGA1UE
AwwFQ0EwMDEwHhcNMTUwNDIyMTUyMjU1WhcNMTYwNDIxMTUyMjU1WjBUMQswCQYD
VQQGEwJERTEPMA0GA1UECAwGSGVzc2VuMRQwEgYDVQQKDAtwcml2YWN5aWRlYTEe
MBwGA1UEAwwVcmVxdWVzdGVyLmxvY2FsZG9tYWluMIIBIjANBgkqhkiG9w0BAQEF
AAOCAQ8AMIIBCgKCAQEAzb4UT/rOAT9CIhsdnK/dktJ/22y3PjlDQ2sTA/EF9Ad0
vHZpKAuvGY7X/OPNxljyyn8IbVP8BwJEJMa0NEyMBP4zDkDiILoCc1r39U9jbszG
tt9UHTc5fVE2Jl+93D+oi2uirrad1iHn30G4eigqaEjKqC3t4elGXlpybbSEOIeR
/ZQRCyiExsIvKvsB+TZ6CXXRM4g8c0FbyL+UiXCh8MC5LlBTHrEXZGn0LYHgqQ0O
Mum6VYqF8RtvSXm0f4jDDT5UiJs9HziMBPPuamMr9cbbtIOqxHhBOn1L4cg+ccob
YVnqxsTKMl7J6b8SKebGw2P+oFXaevFgmE0m7fpwLQIDAQABo4IBDjCCAQowCwYD
VR0PBAQDAgWgMAkGA1UdEwQCMAAwEQYJYIZIAYb4QgEBBAQDAgZAMDMGCWCGSAGG
+EIBDQQmFiRPcGVuU1NMIEdlbmVyYXRlZCBTZXJ2ZXIgQ2VydGlmaWNhdGUwHQYD
VR0OBBYEFFM/7V0JB7Nle6tFySRbCXeACpbtMHQGA1UdIwRtMGuAFPSnwMyRRq9k
85HyJ/jIsm+KhzJzoUikRjBEMQswCQYDVQQGEwJERTEPMA0GA1UECAwGSGVzc2Vu
MRQwEgYDVQQKDAtwcml2YWN5aWRlYTEOMAwGA1UEAwwFQ0EwMDGCCQD7yOusg80S
BzATBgNVHSUEDDAKBggrBgEFBQcDATANBgkqhkiG9w0BAQUFAAOCAQEAP3lx63bO
ul1hR2h7NeE8pTTGrwCw5TGAwNzpU/a02Z7n3rTJYT0Xp2rJrizY7Md/zbYqusr4
U7C5yiNhCpqH4Spnnzo3HA8d/ORZrKbCg1lpPFOzkDrOsMyEnfMo1wSN3N90vT4F
TSgwFbl+ldI4mhlOBykF2PIahJMbzpC4bR3tz7Jb1be6FcGE16KnVMADNrtpsg/b
KxmRKYV1E8RcwCD/BVBwAXRqZIj0lBJT1aYp+pFchFpNTH1bzSg6xUoFjpBQbHUB
GyU64DGKmlrEtmuYBz07LRGVLah8CVwvd/YI2DkdvDrz97XY/Ib/tpvKNlKgiMs8
0aH/anraVXeGrA==
-----END CERTIFICATE-----
