Certificate:
    Data:
        Version: 3 (0x2)
        Serial Number: 268435459 (0x10000003)
    Signature Algorithm: sha1WithRSAEncryption
        Issuer: C=DE, ST=Hessen, O=privacyidea, CN=CA001
        Validity
            Not Before: Apr 22 15:25:55 2015 GMT
            Not After : Apr 21 15:25:55 2016 GMT
        Subject: C=DE, ST=Hessen, O=privacyidea, CN=requester.localdomain
        Subject Public Key Info:
            Public Key Algorithm: rsaEncryption
                Public-Key: (2048 bit)
                Modulus:
                    00:cd:be:14:4f:fa:ce:01:3f:42:22:1b:1d:9c:af:
                    dd:92:d2:7f:db:6c:b7:3e:39:43:43:6b:13:03:f1:
                    05:f4:07:74:bc:76:69:28:0b:af:19:8e:d7:fc:e3:
                    cd:c6:58:f2:ca:7f:08:6d:53:fc:07:02:44:24:c6:
                    b4:34:4c:8c:04:fe:33:0e:40:e2:20:ba:02:73:5a:
                    f7:f5:4f:63:6e:cc:c6:b6:df:54:1d:37:39:7d:51:
                    36:26:5f:bd:dc:3f:a8:8b:6b:a2:ae:b6:9d:d6:21:
                    e7:df:41:b8:7a:28:2a:68:48:ca:a8:2d:ed:e1:e9:
                    46:5e:5a:72:6d:b4:84:38:87:91:fd:94:11:0b:28:
                    84:c6:c2:2f:2a:fb:01:f9:36:7a:09:75:d1:33:88:
                    3c:73:41:5b:c8:bf:94:89:70:a1:f0:c0:b9:2e:50:
                    53:1e:b1:17:64:69:f4:2d:81:e0:a9:0d:0e:32:e9:
                    ba:55:8a:85:f1:1b:6f:49:79:b4:7f:88:c3:0d:3e:
                    54:88:9b:3d:1f:38:8c:04:f3:ee:6a:63:2b:f5:c6:
                    db:b4:83:aa:c4:78:41:3a:7d:4b:e1:c8:3e:71:ca:
                    1b:61:59:ea:c6:c4:ca:32:5e:c9:e9:bf:12:29:e6:
                    c6:c3:63:fe:a0:55:da:7a:f1:60:98:4d:26:ed:fa:
                    70:2d
                Exponent: 65537 (0x10001)
        X509v3 extensions:
            X509v3 Key Usage: 
                Digital Signature, Key Encipherment
            X509v3 Basic Constraints: 
                CA:FALSE
            Netscape Cert Type: 
                SSL Server
            Netscape Comment: 
                OpenSSL Generated Server Certificate
            X509v3 Subject Key Identifier: 
                53:3F:ED:5D:09:07:B3:65:7B:AB:45:C9:24:5B:09:77:80:0A:96:ED
            X509v3 Authority Key Identifier: 
                keyid:F4:A7:C0:CC:91:46:AF:64:F3:91:F2:27:F8:C8:B2:6F:8A:87:32:73
                DirName:/C=DE/ST=Hessen/O=privacyidea/CN=CA001
                serial:FB:C8:EB:AC:83:CD:12:07

            X509v3 Extended Key Usage: 
                TLS Web Server Authentication
    Signature Algorithm: sha1WithRSAEncryption
         4d:0b:a3:d5:ec:6a:ca:cf:55:e1:99:8c:64:c8:37:00:9f:14:
         26:f5:b2:d0:c9:19:57:b5:85:9e:7d:2e:c1:bd:d6:4c:92:46:
         46:49:03:7e:61:81:d2:ff:f0:f8:f3:a7:dd:57:84:ad:96:cc:
         9f:ad:1c:3e:44:2b:8d:41:3a:6d:7a:54:05:97:c0:5c:a0:07:
         53:f8:0b:ad:a3:dc:05:df:c1:b9:52:08:3b:22:6b:de:0c:62:
         cb:3e:83:bf:30:3a:7f:18:82:7d:8f:4e:c1:f6:5c:f0:ac:43:
         b3:63:21:f7:ec:ed:3c:5d:4e:a7:3d:32:3a:06:a8:65:7f:77:
         f3:2c:79:4b:7e:30:7c:cf:8f:4e:53:6c:b3:25:c8:32:74:a6:
         5f:4b:72:19:f0:0f:fe:1c:9c:5d:76:0e:73:e4:3b:91:5f:30:
         72:53:58:90:23:02:99:fc:63:0b:f7:3d:56:5b:bc:ee:18:15:
         18:43:89:9e:0e:98:d3:f4:29:62:ae:fb:72:e6:c0:33:bc:21:
         30:00:78:02:c8:04:2d:07:ab:de:05:9c:4f:ad:73:57:d6:2a:
         92:7d:93:16:34:2b:5d:c0:2c:9d:cb:03:16:09:82:61:c5:89:
         0c:99:d7:30:b6:99:bd:c4:fe:c8:0d:da:17:3e:30:2e:1e:f2:
         44:a0:71:2e
-----BEGIN CERTIFICATE-----
MIIEJjCCAw6gAwIBAgIEEAAAAzANBgkqhkiG9w0BAQUFADBEMQswCQYDVQQGEwJE
RTEPMA0GA1UECAwGSGVzc2VuMRQwEgYDVQQKDAtwcml2YWN5aWRlYTEOMAwGA1UE
AwwFQ0EwMDEwHhcNMTUwNDIyMTUyNTU1WhcNMTYwNDIxMTUyNTU1WjBUMQswCQYD
VQQGEwJERTEPMA0GA1UECAwGSGVzc2VuMRQwEgYDVQQKDAtwcml2YWN5aWRlYTEe
MBwGA1UEAwwVcmVxdWVzdGVyLmxvY2FsZG9tYWluMIIBIjANBgkqhkiG9w0BAQEF
AAOCAQ8AMIIBCgKCAQEAzb4UT/rOAT9CIhsdnK/dktJ/22y3PjlDQ2sTA/EF9Ad0
vHZpKAuvGY7X/OPNxljyyn8IbVP8BwJEJMa0NEyMBP4zDkDiILoCc1r39U9jbszG
tt9UHTc5fVE2Jl+93D+oi2uirrad1iHn30G4eigqaEjKqC3t4elGXlpybbSEOIeR
/ZQRCyiExsIvKvsB+TZ6CXXRM4g8c0FbyL+UiXCh8MC5LlBTHrEXZGn0LYHgqQ0O
Mum6VYqF8RtvSXm0f4jDDT5UiJs9HziMBPPuamMr9cbbtIOqxHhBOn1L4cg+ccob
YVnqxsTKMl7J6b8SKebGw2P+oFXaevFgmE0m7fpwLQIDAQABo4IBDjCCAQowCwYD
VR0PBAQDAgWgMAkGA1UdEwQCMAAwEQYJYIZIAYb4QgEBBAQDAgZAMDMGCWCGSAGG
+EIBDQQmFiRPcGVuU1NMIEdlbmVyYXRlZCBTZXJ2ZXIgQ2VydGlmaWNhdGUwHQYD
VR0OBBYEFFM/7V0JB7Nle6tFySRbCXeACpbtMHQGA1UdIwRtMGuAFPSnwMyRRq9k
85HyJ/jIsm+KhzJzoUikRjBEMQswCQYDVQQGEwJERTEPMA0GA1UECAwGSGVzc2Vu
MRQwEgYDVQQKDAtwcml2YWN5aWRlYTEOMAwGA1UEAwwFQ0EwMDGCCQD7yOusg80S
BzATBgNVHSUEDDAKBggrBgEFBQcDATANBgkqhkiG9w0BAQUFAAOCAQEATQuj1exq
ys9V4ZmMZMg3AJ8UJvWy0MkZV7WFnn0uwb3WTJJGRkkDfmGB0v/w+POn3VeErZbM
n60cPkQrjUE6bXpUBZfAXKAHU/gLraPcBd/BuVIIOyJr3gxiyz6DvzA6fxiCfY9O
wfZc8KxDs2Mh9+ztPF1Opz0yOgaoZX938yx5S34wfM+PTlNssyXIMnSmX0tyGfAP
/hycXXYOc+Q7kV8wclNYkCMCmfxjC/c9Vlu87hgVGEOJng6Y0/QpYq77cubAM7wh
MAB4AsgELQer3gWcT61zV9Yqkn2TFjQrXcAsncsDFgmCYcWJDJnXMLaZvcT+yA3a
Fz4wLh7yRKBxLg==
-----END CERTIFICATE-----
